
build/valkyrie.elf:     file format elf64-littleaarch64


Disassembly of section .text:

0000000000080000 <_start>:
   80000:	d53800a0 	mrs	x0, mpidr_el1
   80004:	92400400 	and	x0, x0, #0x3
   80008:	b50001e0 	cbnz	x0, 80044 <_halt>
   8000c:	58000220 	ldr	x0, 80050 <_halt+0xc>
   80010:	9100001f 	mov	sp, x0
   80014:	58000220 	ldr	x0, 80058 <_halt+0x14>
   80018:	d2800001 	mov	x1, #0x0                   	// #0
   8001c:	58000222 	ldr	x2, 80060 <_halt+0x1c>
   80020:	cb000042 	sub	x2, x2, x0
   80024:	940001b1 	bl	806e8 <memset>
   80028:	d5381040 	mrs	x0, cpacr_el1
   8002c:	b26c0400 	orr	x0, x0, #0x300000
   80030:	d5181040 	msr	cpacr_el1, x0
   80034:	d53c1100 	mrs	x0, hcr_el2
   80038:	b2610000 	orr	x0, x0, #0x80000000
   8003c:	d51c1100 	msr	hcr_el2, x0
   80040:	9400098f 	bl	8267c <kmain>

0000000000080044 <_halt>:
   80044:	d503205f 	wfe
   80048:	17ffffff 	b	80044 <_halt>
   8004c:	00000000 	udf	#0
   80050:	00080000 	.word	0x00080000
   80054:	00000000 	.word	0x00000000
   80058:	000930e0 	.word	0x000930e0
   8005c:	00000000 	.word	0x00000000
   80060:	00095838 	.word	0x00095838
   80064:	00000000 	.word	0x00000000

0000000000080068 <_ZN8valkyrie6kernel16AddressSanitizerC1Ev>:
   80068:	d10043ff 	sub	sp, sp, #0x10
   8006c:	f90007e0 	str	x0, [sp, #8]
   80070:	f94007e1 	ldr	x1, [sp, #8]
   80074:	d2807ce0 	mov	x0, #0x3e7                 	// #999
   80078:	f100001f 	cmp	x0, #0x0
   8007c:	540000ab 	b.lt	80090 <_ZN8valkyrie6kernel16AddressSanitizerC1Ev+0x28>  // b.tstop
   80080:	f900003f 	str	xzr, [x1]
   80084:	91002021 	add	x1, x1, #0x8
   80088:	d1000400 	sub	x0, x0, #0x1
   8008c:	17fffffb 	b	80078 <_ZN8valkyrie6kernel16AddressSanitizerC1Ev+0x10>
   80090:	d503201f 	nop
   80094:	910043ff 	add	sp, sp, #0x10
   80098:	d65f03c0 	ret

000000000008009c <_ZN8valkyrie6kernel16AddressSanitizer13mark_free_chkEPv>:
   8009c:	a9bd7bfd 	stp	x29, x30, [sp, #-48]!
   800a0:	910003fd 	mov	x29, sp
   800a4:	f9000fe0 	str	x0, [sp, #24]
   800a8:	f9000be1 	str	x1, [sp, #16]
   800ac:	b9002fff 	str	wzr, [sp, #44]
   800b0:	b9402fe0 	ldr	w0, [sp, #44]
   800b4:	710f9c1f 	cmp	w0, #0x3e7
   800b8:	5400020c 	b.gt	800f8 <_ZN8valkyrie6kernel16AddressSanitizer13mark_free_chkEPv+0x5c>
   800bc:	f9400fe0 	ldr	x0, [sp, #24]
   800c0:	b9802fe1 	ldrsw	x1, [sp, #44]
   800c4:	f8617800 	ldr	x0, [x0, x1, lsl #3]
   800c8:	f9400be1 	ldr	x1, [sp, #16]
   800cc:	eb00003f 	cmp	x1, x0
   800d0:	540000c1 	b.ne	800e8 <_ZN8valkyrie6kernel16AddressSanitizer13mark_free_chkEPv+0x4c>  // b.any
   800d4:	f9400fe0 	ldr	x0, [sp, #24]
   800d8:	b9802fe1 	ldrsw	x1, [sp, #44]
   800dc:	f821781f 	str	xzr, [x0, x1, lsl #3]
   800e0:	52800020 	mov	w0, #0x1                   	// #1
   800e4:	14000008 	b	80104 <_ZN8valkyrie6kernel16AddressSanitizer13mark_free_chkEPv+0x68>
   800e8:	b9402fe0 	ldr	w0, [sp, #44]
   800ec:	11000400 	add	w0, w0, #0x1
   800f0:	b9002fe0 	str	w0, [sp, #44]
   800f4:	17ffffef 	b	800b0 <_ZN8valkyrie6kernel16AddressSanitizer13mark_free_chkEPv+0x14>
   800f8:	90000040 	adrp	x0, 88000 <_ZN8valkyrie6kernel16TimerMultiplexer4tickEv+0x18>
   800fc:	91290000 	add	x0, x0, #0xa40
   80100:	94003727 	bl	8dd9c <_ZN8valkyrie6kernel6Kernel5panicIJEEEvPKcDpOT_>
   80104:	a8c37bfd 	ldp	x29, x30, [sp], #48
   80108:	d65f03c0 	ret

000000000008010c <_ZN8valkyrie6kernel16AddressSanitizer14mark_allocatedEPv>:
   8010c:	a9bd7bfd 	stp	x29, x30, [sp, #-48]!
   80110:	910003fd 	mov	x29, sp
   80114:	f9000fe0 	str	x0, [sp, #24]
   80118:	f9000be1 	str	x1, [sp, #16]
   8011c:	b9002fff 	str	wzr, [sp, #44]
   80120:	b9402fe0 	ldr	w0, [sp, #44]
   80124:	710f9c1f 	cmp	w0, #0x3e7
   80128:	5400020c 	b.gt	80168 <_ZN8valkyrie6kernel16AddressSanitizer14mark_allocatedEPv+0x5c>
   8012c:	f9400fe0 	ldr	x0, [sp, #24]
   80130:	b9802fe1 	ldrsw	x1, [sp, #44]
   80134:	f8617801 	ldr	x1, [x0, x1, lsl #3]
   80138:	f9400be0 	ldr	x0, [sp, #16]
   8013c:	eb00003f 	cmp	x1, x0
   80140:	540000c1 	b.ne	80158 <_ZN8valkyrie6kernel16AddressSanitizer14mark_allocatedEPv+0x4c>  // b.any
   80144:	910043e0 	add	x0, sp, #0x10
   80148:	aa0003e1 	mov	x1, x0
   8014c:	90000040 	adrp	x0, 88000 <_ZN8valkyrie6kernel16TimerMultiplexer4tickEv+0x18>
   80150:	9129a000 	add	x0, x0, #0xa68
   80154:	94003740 	bl	8de54 <_ZN8valkyrie6kernel6Kernel5panicIJRPvEEEvPKcDpOT_>
   80158:	b9402fe0 	ldr	w0, [sp, #44]
   8015c:	11000400 	add	w0, w0, #0x1
   80160:	b9002fe0 	str	w0, [sp, #44]
   80164:	17ffffef 	b	80120 <_ZN8valkyrie6kernel16AddressSanitizer14mark_allocatedEPv+0x14>
   80168:	b9002bff 	str	wzr, [sp, #40]
   8016c:	b9402be0 	ldr	w0, [sp, #40]
   80170:	710f9c1f 	cmp	w0, #0x3e7
   80174:	540001ec 	b.gt	801b0 <_ZN8valkyrie6kernel16AddressSanitizer14mark_allocatedEPv+0xa4>
   80178:	f9400fe0 	ldr	x0, [sp, #24]
   8017c:	b9802be1 	ldrsw	x1, [sp, #40]
   80180:	f8617800 	ldr	x0, [x0, x1, lsl #3]
   80184:	f100001f 	cmp	x0, #0x0
   80188:	540000c1 	b.ne	801a0 <_ZN8valkyrie6kernel16AddressSanitizer14mark_allocatedEPv+0x94>  // b.any
   8018c:	f9400be2 	ldr	x2, [sp, #16]
   80190:	f9400fe0 	ldr	x0, [sp, #24]
   80194:	b9802be1 	ldrsw	x1, [sp, #40]
   80198:	f8217802 	str	x2, [x0, x1, lsl #3]
   8019c:	14000005 	b	801b0 <_ZN8valkyrie6kernel16AddressSanitizer14mark_allocatedEPv+0xa4>
   801a0:	b9402be0 	ldr	w0, [sp, #40]
   801a4:	11000400 	add	w0, w0, #0x1
   801a8:	b9002be0 	str	w0, [sp, #40]
   801ac:	17fffff0 	b	8016c <_ZN8valkyrie6kernel16AddressSanitizer14mark_allocatedEPv+0x60>
   801b0:	a8c37bfd 	ldp	x29, x30, [sp], #48
   801b4:	d65f03c0 	ret

00000000000801b8 <_ZN8valkyrie6kernel16AddressSanitizer4showEv>:
   801b8:	a9bd7bfd 	stp	x29, x30, [sp, #-48]!
   801bc:	910003fd 	mov	x29, sp
   801c0:	f9000fe0 	str	x0, [sp, #24]
   801c4:	90000040 	adrp	x0, 88000 <_ZN8valkyrie6kernel16TimerMultiplexer4tickEv+0x18>
   801c8:	912a8000 	add	x0, x0, #0xaa0
   801cc:	94003753 	bl	8df18 <_Z6printkIJEEvPKcDpOT_>
   801d0:	b9002fff 	str	wzr, [sp, #44]
   801d4:	b9402fe0 	ldr	w0, [sp, #44]
   801d8:	710f9c1f 	cmp	w0, #0x3e7
   801dc:	5400026c 	b.gt	80228 <_ZN8valkyrie6kernel16AddressSanitizer4showEv+0x70>
   801e0:	f9400fe0 	ldr	x0, [sp, #24]
   801e4:	b9802fe1 	ldrsw	x1, [sp, #44]
   801e8:	f8617800 	ldr	x0, [x0, x1, lsl #3]
   801ec:	f100001f 	cmp	x0, #0x0
   801f0:	54000140 	b.eq	80218 <_ZN8valkyrie6kernel16AddressSanitizer4showEv+0x60>  // b.none
   801f4:	f9400fe0 	ldr	x0, [sp, #24]
   801f8:	b9802fe1 	ldrsw	x1, [sp, #44]
   801fc:	f8617800 	ldr	x0, [x0, x1, lsl #3]
   80200:	f90013e0 	str	x0, [sp, #32]
   80204:	910083e0 	add	x0, sp, #0x20
   80208:	aa0003e1 	mov	x1, x0
   8020c:	90000040 	adrp	x0, 88000 <_ZN8valkyrie6kernel16TimerMultiplexer4tickEv+0x18>
   80210:	912ae000 	add	x0, x0, #0xab8
   80214:	94003778 	bl	8dff4 <_Z6printfIJmEEvPKcDpOT_>
   80218:	b9402fe0 	ldr	w0, [sp, #44]
   8021c:	11000400 	add	w0, w0, #0x1
   80220:	b9002fe0 	str	w0, [sp, #44]
   80224:	17ffffec 	b	801d4 <_ZN8valkyrie6kernel16AddressSanitizer4showEv+0x1c>
   80228:	90000040 	adrp	x0, 88000 <_ZN8valkyrie6kernel16TimerMultiplexer4tickEv+0x18>
   8022c:	912b0000 	add	x0, x0, #0xac0
   80230:	9400377d 	bl	8e024 <_Z6printfIJEEvPKcDpOT_>
   80234:	d503201f 	nop
   80238:	a8c37bfd 	ldp	x29, x30, [sp], #48
   8023c:	d65f03c0 	ret

0000000000080240 <__cxa_pure_virtual>:
   80240:	a9bf7bfd 	stp	x29, x30, [sp, #-16]!
   80244:	910003fd 	mov	x29, sp
   80248:	90000040 	adrp	x0, 88000 <_ZN8valkyrie6kernel16TimerMultiplexer4tickEv+0x18>
   8024c:	912c6000 	add	x0, x0, #0xb18
   80250:	940036d3 	bl	8dd9c <_ZN8valkyrie6kernel6Kernel5panicIJEEEvPKcDpOT_>

0000000000080254 <__cxa_atexit>:
   80254:	d503201f 	nop
   80258:	d65f03c0 	ret

000000000008025c <__dso_handle>:
   8025c:	a9bf7bfd 	stp	x29, x30, [sp, #-16]!
   80260:	910003fd 	mov	x29, sp
   80264:	90000040 	adrp	x0, 88000 <_ZN8valkyrie6kernel16TimerMultiplexer4tickEv+0x18>
   80268:	912d6000 	add	x0, x0, #0xb58
   8026c:	940036cc 	bl	8dd9c <_ZN8valkyrie6kernel6Kernel5panicIJEEEvPKcDpOT_>

0000000000080270 <_ZN12_GLOBAL__N_18_putcharEPvc>:
   80270:	a9be7bfd 	stp	x29, x30, [sp, #-32]!
   80274:	910003fd 	mov	x29, sp
   80278:	f9000fe0 	str	x0, [sp, #24]
   8027c:	39005fe1 	strb	w1, [sp, #23]
   80280:	39405fe0 	ldrb	w0, [sp, #23]
   80284:	9400003d 	bl	80378 <putchar>
   80288:	d503201f 	nop
   8028c:	a8c27bfd 	ldp	x29, x30, [sp], #32
   80290:	d65f03c0 	ret

0000000000080294 <_ZN8valkyrie6kernel7console10initializeEPNS0_8MiniUARTE>:
   80294:	a9be7bfd 	stp	x29, x30, [sp, #-32]!
   80298:	910003fd 	mov	x29, sp
   8029c:	f9000fe0 	str	x0, [sp, #24]
   802a0:	f0000080 	adrp	x0, 93000 <_ZTVN8valkyrie6kernel8FunctionIFbRNS0_9UniquePtrINS0_4TaskEEEEE12CallableImplIZNS0_13TaskScheduler11remove_taskERKS3_EUlRT_E_EE+0x18>
   802a4:	91038000 	add	x0, x0, #0xe0
   802a8:	f9400fe1 	ldr	x1, [sp, #24]
   802ac:	f9000001 	str	x1, [x0]
   802b0:	90000000 	adrp	x0, 80000 <_start>
   802b4:	9109c001 	add	x1, x0, #0x270
   802b8:	d2800000 	mov	x0, #0x0                   	// #0
   802bc:	94001283 	bl	84cc8 <_Z11init_printfPvPFvS_cE>
   802c0:	d503201f 	nop
   802c4:	a8c27bfd 	ldp	x29, x30, [sp], #32
   802c8:	d65f03c0 	ret

00000000000802cc <_ZN8valkyrie6kernel7console9set_colorENS1_5ColorEb>:
   802cc:	a9be7bfd 	stp	x29, x30, [sp, #-32]!
   802d0:	910003fd 	mov	x29, sp
   802d4:	b9001fe0 	str	w0, [sp, #28]
   802d8:	39006fe1 	strb	w1, [sp, #27]
   802dc:	910073e1 	add	x1, sp, #0x1c
   802e0:	91006fe0 	add	x0, sp, #0x1b
   802e4:	aa0103e2 	mov	x2, x1
   802e8:	aa0003e1 	mov	x1, x0
   802ec:	90000040 	adrp	x0, 88000 <_ZN8valkyrie6kernel16TimerMultiplexer4tickEv+0x18>
   802f0:	912f0000 	add	x0, x0, #0xbc0
   802f4:	940037b4 	bl	8e1c4 <_Z6printfIJRbRN8valkyrie6kernel7console5ColorEEEvPKcDpOT_>
   802f8:	d503201f 	nop
   802fc:	a8c27bfd 	ldp	x29, x30, [sp], #32
   80300:	d65f03c0 	ret

0000000000080304 <_ZN8valkyrie6kernel7console11clear_colorEv>:
   80304:	a9bf7bfd 	stp	x29, x30, [sp, #-16]!
   80308:	910003fd 	mov	x29, sp
   8030c:	52800001 	mov	w1, #0x0                   	// #0
   80310:	90000040 	adrp	x0, 88000 <_ZN8valkyrie6kernel16TimerMultiplexer4tickEv+0x18>
   80314:	912f4000 	add	x0, x0, #0xbd0
   80318:	94000023 	bl	803a4 <puts>
   8031c:	d503201f 	nop
   80320:	a8c17bfd 	ldp	x29, x30, [sp], #16
   80324:	d65f03c0 	ret

0000000000080328 <getchar>:
   80328:	a9bf7bfd 	stp	x29, x30, [sp, #-16]!
   8032c:	910003fd 	mov	x29, sp
   80330:	f0000080 	adrp	x0, 93000 <_ZTVN8valkyrie6kernel8FunctionIFbRNS0_9UniquePtrINS0_4TaskEEEEE12CallableImplIZNS0_13TaskScheduler11remove_taskERKS3_EUlRT_E_EE+0x18>
   80334:	91038000 	add	x0, x0, #0xe0
   80338:	f9400000 	ldr	x0, [x0]
   8033c:	94000b52 	bl	83084 <_ZN8valkyrie6kernel8MiniUART7getcharEv>
   80340:	12001c00 	and	w0, w0, #0xff
   80344:	a8c17bfd 	ldp	x29, x30, [sp], #16
   80348:	d65f03c0 	ret

000000000008034c <gets>:
   8034c:	a9be7bfd 	stp	x29, x30, [sp, #-32]!
   80350:	910003fd 	mov	x29, sp
   80354:	f9000fe0 	str	x0, [sp, #24]
   80358:	f0000080 	adrp	x0, 93000 <_ZTVN8valkyrie6kernel8FunctionIFbRNS0_9UniquePtrINS0_4TaskEEEEE12CallableImplIZNS0_13TaskScheduler11remove_taskERKS3_EUlRT_E_EE+0x18>
   8035c:	91038000 	add	x0, x0, #0xe0
   80360:	f9400000 	ldr	x0, [x0]
   80364:	f9400fe1 	ldr	x1, [sp, #24]
   80368:	94000b4f 	bl	830a4 <_ZN8valkyrie6kernel8MiniUART4getsEPc>
   8036c:	d503201f 	nop
   80370:	a8c27bfd 	ldp	x29, x30, [sp], #32
   80374:	d65f03c0 	ret

0000000000080378 <putchar>:
   80378:	a9be7bfd 	stp	x29, x30, [sp, #-32]!
   8037c:	910003fd 	mov	x29, sp
   80380:	39007fe0 	strb	w0, [sp, #31]
   80384:	f0000080 	adrp	x0, 93000 <_ZTVN8valkyrie6kernel8FunctionIFbRNS0_9UniquePtrINS0_4TaskEEEEE12CallableImplIZNS0_13TaskScheduler11remove_taskERKS3_EUlRT_E_EE+0x18>
   80388:	91038000 	add	x0, x0, #0xe0
   8038c:	f9400000 	ldr	x0, [x0]
   80390:	39407fe1 	ldrb	w1, [sp, #31]
   80394:	94000b56 	bl	830ec <_ZN8valkyrie6kernel8MiniUART7putcharEc>
   80398:	d503201f 	nop
   8039c:	a8c27bfd 	ldp	x29, x30, [sp], #32
   803a0:	d65f03c0 	ret

00000000000803a4 <puts>:
   803a4:	a9be7bfd 	stp	x29, x30, [sp, #-32]!
   803a8:	910003fd 	mov	x29, sp
   803ac:	f9000fe0 	str	x0, [sp, #24]
   803b0:	39005fe1 	strb	w1, [sp, #23]
   803b4:	f0000080 	adrp	x0, 93000 <_ZTVN8valkyrie6kernel8FunctionIFbRNS0_9UniquePtrINS0_4TaskEEEEE12CallableImplIZNS0_13TaskScheduler11remove_taskERKS3_EUlRT_E_EE+0x18>
   803b8:	91038000 	add	x0, x0, #0xe0
   803bc:	f9400000 	ldr	x0, [x0]
   803c0:	39405fe2 	ldrb	w2, [sp, #23]
   803c4:	f9400fe1 	ldr	x1, [sp, #24]
   803c8:	94000b5b 	bl	83134 <_ZN8valkyrie6kernel8MiniUART4putsEPKcb>
   803cc:	d503201f 	nop
   803d0:	a8c27bfd 	ldp	x29, x30, [sp], #32
   803d4:	d65f03c0 	ret

00000000000803d8 <_ZN8valkyrie6kernel11CPIOArchiveC1Em>:
   803d8:	d10043ff 	sub	sp, sp, #0x10
   803dc:	f90007e0 	str	x0, [sp, #8]
   803e0:	f90003e1 	str	x1, [sp]
   803e4:	f94003e1 	ldr	x1, [sp]
   803e8:	f94007e0 	ldr	x0, [sp, #8]
   803ec:	f9000001 	str	x1, [x0]
   803f0:	d503201f 	nop
   803f4:	910043ff 	add	sp, sp, #0x10
   803f8:	d65f03c0 	ret

00000000000803fc <_ZNK8valkyrie6kernel11CPIOArchive26get_entry_content_and_sizeEPKc>:
   803fc:	a9b77bfd 	stp	x29, x30, [sp, #-144]!
   80400:	910003fd 	mov	x29, sp
   80404:	a90157f4 	stp	x20, x21, [sp, #16]
   80408:	f90017e0 	str	x0, [sp, #40]
   8040c:	f90013e1 	str	x1, [sp, #32]
   80410:	f94017e0 	ldr	x0, [sp, #40]
   80414:	f9400000 	ldr	x0, [x0]
   80418:	f90047e0 	str	x0, [sp, #136]
   8041c:	910183e0 	add	x0, sp, #0x60
   80420:	f94047e1 	ldr	x1, [sp, #136]
   80424:	94000038 	bl	80504 <_ZN8valkyrie6kernel11CPIOArchive14DirectoryEntryC1EPKc>
   80428:	9100e3e0 	add	x0, sp, #0x38
   8042c:	910183e1 	add	x1, sp, #0x60
   80430:	a9400c22 	ldp	x2, x3, [x1]
   80434:	a9000c02 	stp	x2, x3, [x0]
   80438:	a9410c22 	ldp	x2, x3, [x1, #16]
   8043c:	a9010c02 	stp	x2, x3, [x0, #16]
   80440:	f9401021 	ldr	x1, [x1, #32]
   80444:	f9001001 	str	x1, [x0, #32]
   80448:	9100e3e0 	add	x0, sp, #0x38
   8044c:	9400007e 	bl	80644 <_ZNK8valkyrie6kernel11CPIOArchive14DirectoryEntrycvbEv>
   80450:	12001c00 	and	w0, w0, #0xff
   80454:	7100001f 	cmp	w0, #0x0
   80458:	54000480 	b.eq	804e8 <_ZNK8valkyrie6kernel11CPIOArchive26get_entry_content_and_sizeEPKc+0xec>  // b.none
   8045c:	f94023e0 	ldr	x0, [sp, #64]
   80460:	aa0003e1 	mov	x1, x0
   80464:	f94013e0 	ldr	x0, [sp, #32]
   80468:	940000f3 	bl	80834 <strcmp>
   8046c:	7100001f 	cmp	w0, #0x0
   80470:	1a9f17e0 	cset	w0, eq  // eq = none
   80474:	12001c00 	and	w0, w0, #0xff
   80478:	7100001f 	cmp	w0, #0x0
   8047c:	540000c0 	b.eq	80494 <_ZNK8valkyrie6kernel11CPIOArchive26get_entry_content_and_sizeEPKc+0x98>  // b.none
   80480:	f94027e0 	ldr	x0, [sp, #72]
   80484:	aa0003f4 	mov	x20, x0
   80488:	f9402fe0 	ldr	x0, [sp, #88]
   8048c:	aa0003f5 	mov	x21, x0
   80490:	14000018 	b	804f0 <_ZNK8valkyrie6kernel11CPIOArchive26get_entry_content_and_sizeEPKc+0xf4>
   80494:	f9402be1 	ldr	x1, [sp, #80]
   80498:	f9402fe0 	ldr	x0, [sp, #88]
   8049c:	8b000020 	add	x0, x1, x0
   804a0:	9101b800 	add	x0, x0, #0x6e
   804a4:	f94047e1 	ldr	x1, [sp, #136]
   804a8:	8b000020 	add	x0, x1, x0
   804ac:	f90047e0 	str	x0, [sp, #136]
   804b0:	d28000c2 	mov	x2, #0x6                   	// #6
   804b4:	90000040 	adrp	x0, 88000 <_ZN8valkyrie6kernel16TimerMultiplexer4tickEv+0x18>
   804b8:	912f6001 	add	x1, x0, #0xbd8
   804bc:	f94047e0 	ldr	x0, [sp, #136]
   804c0:	940000ff 	bl	808bc <strncmp>
   804c4:	7100001f 	cmp	w0, #0x0
   804c8:	1a9f07e0 	cset	w0, ne  // ne = any
   804cc:	12001c00 	and	w0, w0, #0xff
   804d0:	7100001f 	cmp	w0, #0x0
   804d4:	54fffa40 	b.eq	8041c <_ZNK8valkyrie6kernel11CPIOArchive26get_entry_content_and_sizeEPKc+0x20>  // b.none
   804d8:	f94047e0 	ldr	x0, [sp, #136]
   804dc:	91000400 	add	x0, x0, #0x1
   804e0:	f90047e0 	str	x0, [sp, #136]
   804e4:	17fffff3 	b	804b0 <_ZNK8valkyrie6kernel11CPIOArchive26get_entry_content_and_sizeEPKc+0xb4>
   804e8:	d2800014 	mov	x20, #0x0                   	// #0
   804ec:	d2800015 	mov	x21, #0x0                   	// #0
   804f0:	aa1403e0 	mov	x0, x20
   804f4:	aa1503e1 	mov	x1, x21
   804f8:	a94157f4 	ldp	x20, x21, [sp, #16]
   804fc:	a8c97bfd 	ldp	x29, x30, [sp], #144
   80500:	d65f03c0 	ret

0000000000080504 <_ZN8valkyrie6kernel11CPIOArchive14DirectoryEntryC1EPKc>:
   80504:	a9bd7bfd 	stp	x29, x30, [sp, #-48]!
   80508:	910003fd 	mov	x29, sp
   8050c:	f9000fe0 	str	x0, [sp, #24]
   80510:	f9000be1 	str	x1, [sp, #16]
   80514:	f9400fe0 	ldr	x0, [sp, #24]
   80518:	f9400be1 	ldr	x1, [sp, #16]
   8051c:	f9000001 	str	x1, [x0]
   80520:	910083e0 	add	x0, sp, #0x20
   80524:	d2800202 	mov	x2, #0x10                  	// #16
   80528:	52800001 	mov	w1, #0x0                   	// #0
   8052c:	9400006f 	bl	806e8 <memset>
   80530:	f9400fe0 	ldr	x0, [sp, #24]
   80534:	f9400000 	ldr	x0, [x0]
   80538:	91017801 	add	x1, x0, #0x5e
   8053c:	910083e0 	add	x0, sp, #0x20
   80540:	d2800102 	mov	x2, #0x8                   	// #8
   80544:	94000123 	bl	809d0 <strncpy>
   80548:	910083e0 	add	x0, sp, #0x20
   8054c:	52800201 	mov	w1, #0x10                  	// #16
   80550:	9400020a 	bl	80d78 <atoi>
   80554:	93407c01 	sxtw	x1, w0
   80558:	f9400fe0 	ldr	x0, [sp, #24]
   8055c:	f9000c01 	str	x1, [x0, #24]
   80560:	910083e0 	add	x0, sp, #0x20
   80564:	d2800202 	mov	x2, #0x10                  	// #16
   80568:	52800001 	mov	w1, #0x0                   	// #0
   8056c:	9400005f 	bl	806e8 <memset>
   80570:	f9400fe0 	ldr	x0, [sp, #24]
   80574:	f9400000 	ldr	x0, [x0]
   80578:	9100d801 	add	x1, x0, #0x36
   8057c:	910083e0 	add	x0, sp, #0x20
   80580:	d2800102 	mov	x2, #0x8                   	// #8
   80584:	94000113 	bl	809d0 <strncpy>
   80588:	910083e0 	add	x0, sp, #0x20
   8058c:	52800201 	mov	w1, #0x10                  	// #16
   80590:	940001fa 	bl	80d78 <atoi>
   80594:	93407c01 	sxtw	x1, w0
   80598:	f9400fe0 	ldr	x0, [sp, #24]
   8059c:	f9001001 	str	x1, [x0, #32]
   805a0:	f9400fe0 	ldr	x0, [sp, #24]
   805a4:	f9400c00 	ldr	x0, [x0, #24]
   805a8:	f100001f 	cmp	x0, #0x0
   805ac:	54000080 	b.eq	805bc <_ZN8valkyrie6kernel11CPIOArchive14DirectoryEntryC1EPKc+0xb8>  // b.none
   805b0:	f9400be0 	ldr	x0, [sp, #16]
   805b4:	9101b800 	add	x0, x0, #0x6e
   805b8:	14000002 	b	805c0 <_ZN8valkyrie6kernel11CPIOArchive14DirectoryEntryC1EPKc+0xbc>
   805bc:	d2800000 	mov	x0, #0x0                   	// #0
   805c0:	f9400fe1 	ldr	x1, [sp, #24]
   805c4:	f9000420 	str	x0, [x1, #8]
   805c8:	f9400fe0 	ldr	x0, [sp, #24]
   805cc:	f9401000 	ldr	x0, [x0, #32]
   805d0:	f100001f 	cmp	x0, #0x0
   805d4:	540000e0 	b.eq	805f0 <_ZN8valkyrie6kernel11CPIOArchive14DirectoryEntryC1EPKc+0xec>  // b.none
   805d8:	f9400fe0 	ldr	x0, [sp, #24]
   805dc:	f9400c00 	ldr	x0, [x0, #24]
   805e0:	9101b800 	add	x0, x0, #0x6e
   805e4:	f9400be1 	ldr	x1, [sp, #16]
   805e8:	8b000020 	add	x0, x1, x0
   805ec:	14000002 	b	805f4 <_ZN8valkyrie6kernel11CPIOArchive14DirectoryEntryC1EPKc+0xf0>
   805f0:	d2800000 	mov	x0, #0x0                   	// #0
   805f4:	f9400fe1 	ldr	x1, [sp, #24]
   805f8:	f9000820 	str	x0, [x1, #16]
   805fc:	f9400fe0 	ldr	x0, [sp, #24]
   80600:	f9401000 	ldr	x0, [x0, #32]
   80604:	f100001f 	cmp	x0, #0x0
   80608:	54000180 	b.eq	80638 <_ZN8valkyrie6kernel11CPIOArchive14DirectoryEntryC1EPKc+0x134>  // b.none
   8060c:	f9400fe0 	ldr	x0, [sp, #24]
   80610:	f9400800 	ldr	x0, [x0, #16]
   80614:	39400000 	ldrb	w0, [x0]
   80618:	7100001f 	cmp	w0, #0x0
   8061c:	540000e1 	b.ne	80638 <_ZN8valkyrie6kernel11CPIOArchive14DirectoryEntryC1EPKc+0x134>  // b.any
   80620:	f9400fe0 	ldr	x0, [sp, #24]
   80624:	f9400800 	ldr	x0, [x0, #16]
   80628:	91000401 	add	x1, x0, #0x1
   8062c:	f9400fe0 	ldr	x0, [sp, #24]
   80630:	f9000801 	str	x1, [x0, #16]
   80634:	17fffff2 	b	805fc <_ZN8valkyrie6kernel11CPIOArchive14DirectoryEntryC1EPKc+0xf8>
   80638:	d503201f 	nop
   8063c:	a8c37bfd 	ldp	x29, x30, [sp], #48
   80640:	d65f03c0 	ret

0000000000080644 <_ZNK8valkyrie6kernel11CPIOArchive14DirectoryEntrycvbEv>:
   80644:	a9be7bfd 	stp	x29, x30, [sp, #-32]!
   80648:	910003fd 	mov	x29, sp
   8064c:	f9000fe0 	str	x0, [sp, #24]
   80650:	f9400fe0 	ldr	x0, [sp, #24]
   80654:	f9400402 	ldr	x2, [x0, #8]
   80658:	90000040 	adrp	x0, 88000 <_ZN8valkyrie6kernel16TimerMultiplexer4tickEv+0x18>
   8065c:	912f8001 	add	x1, x0, #0xbe0
   80660:	aa0203e0 	mov	x0, x2
   80664:	94000074 	bl	80834 <strcmp>
   80668:	7100001f 	cmp	w0, #0x0
   8066c:	1a9f07e0 	cset	w0, ne  // ne = any
   80670:	12001c00 	and	w0, w0, #0xff
   80674:	a8c27bfd 	ldp	x29, x30, [sp], #32
   80678:	d65f03c0 	ret

000000000008067c <memcpy>:
   8067c:	d100c3ff 	sub	sp, sp, #0x30
   80680:	f9000fe0 	str	x0, [sp, #24]
   80684:	f9000be1 	str	x1, [sp, #16]
   80688:	f90007e2 	str	x2, [sp, #8]
   8068c:	f9400be0 	ldr	x0, [sp, #16]
   80690:	f90017e0 	str	x0, [sp, #40]
   80694:	f9400fe0 	ldr	x0, [sp, #24]
   80698:	f90013e0 	str	x0, [sp, #32]
   8069c:	f94007e0 	ldr	x0, [sp, #8]
   806a0:	f100001f 	cmp	x0, #0x0
   806a4:	540001c0 	b.eq	806dc <memcpy+0x60>  // b.none
   806a8:	f94017e0 	ldr	x0, [sp, #40]
   806ac:	91000401 	add	x1, x0, #0x1
   806b0:	f90017e1 	str	x1, [sp, #40]
   806b4:	39400002 	ldrb	w2, [x0]
   806b8:	f94013e0 	ldr	x0, [sp, #32]
   806bc:	91000401 	add	x1, x0, #0x1
   806c0:	f90013e1 	str	x1, [sp, #32]
   806c4:	2a0203e1 	mov	w1, w2
   806c8:	39000001 	strb	w1, [x0]
   806cc:	f94007e0 	ldr	x0, [sp, #8]
   806d0:	d1000400 	sub	x0, x0, #0x1
   806d4:	f90007e0 	str	x0, [sp, #8]
   806d8:	17fffff1 	b	8069c <memcpy+0x20>
   806dc:	f9400fe0 	ldr	x0, [sp, #24]
   806e0:	9100c3ff 	add	sp, sp, #0x30
   806e4:	d65f03c0 	ret

00000000000806e8 <memset>:
   806e8:	d100c3ff 	sub	sp, sp, #0x30
   806ec:	f9000fe0 	str	x0, [sp, #24]
   806f0:	39005fe1 	strb	w1, [sp, #23]
   806f4:	f90007e2 	str	x2, [sp, #8]
   806f8:	f9400fe0 	ldr	x0, [sp, #24]
   806fc:	f90017e0 	str	x0, [sp, #40]
   80700:	f94007e0 	ldr	x0, [sp, #8]
   80704:	f100001f 	cmp	x0, #0x0
   80708:	54000160 	b.eq	80734 <memset+0x4c>  // b.none
   8070c:	39405fe2 	ldrb	w2, [sp, #23]
   80710:	f94017e0 	ldr	x0, [sp, #40]
   80714:	91000401 	add	x1, x0, #0x1
   80718:	f90017e1 	str	x1, [sp, #40]
   8071c:	2a0203e1 	mov	w1, w2
   80720:	39000001 	strb	w1, [x0]
   80724:	f94007e0 	ldr	x0, [sp, #8]
   80728:	d1000400 	sub	x0, x0, #0x1
   8072c:	f90007e0 	str	x0, [sp, #8]
   80730:	17fffff4 	b	80700 <memset+0x18>
   80734:	f9400fe0 	ldr	x0, [sp, #24]
   80738:	9100c3ff 	add	sp, sp, #0x30
   8073c:	d65f03c0 	ret

0000000000080740 <memcmp>:
   80740:	d100c3ff 	sub	sp, sp, #0x30
   80744:	f9000fe0 	str	x0, [sp, #24]
   80748:	f9000be1 	str	x1, [sp, #16]
   8074c:	f90007e2 	str	x2, [sp, #8]
   80750:	f9400fe0 	ldr	x0, [sp, #24]
   80754:	f90017e0 	str	x0, [sp, #40]
   80758:	f9400be0 	ldr	x0, [sp, #16]
   8075c:	f90013e0 	str	x0, [sp, #32]
   80760:	f94007e0 	ldr	x0, [sp, #8]
   80764:	d1000401 	sub	x1, x0, #0x1
   80768:	f90007e1 	str	x1, [sp, #8]
   8076c:	f100001f 	cmp	x0, #0x0
   80770:	1a9f07e0 	cset	w0, ne  // ne = any
   80774:	12001c00 	and	w0, w0, #0xff
   80778:	7100001f 	cmp	w0, #0x0
   8077c:	54000340 	b.eq	807e4 <memcmp+0xa4>  // b.none
   80780:	f94017e0 	ldr	x0, [sp, #40]
   80784:	91000401 	add	x1, x0, #0x1
   80788:	f90017e1 	str	x1, [sp, #40]
   8078c:	39400001 	ldrb	w1, [x0]
   80790:	f94013e0 	ldr	x0, [sp, #32]
   80794:	91000402 	add	x2, x0, #0x1
   80798:	f90013e2 	str	x2, [sp, #32]
   8079c:	39400000 	ldrb	w0, [x0]
   807a0:	6b00003f 	cmp	w1, w0
   807a4:	1a9f07e0 	cset	w0, ne  // ne = any
   807a8:	12001c00 	and	w0, w0, #0xff
   807ac:	7100001f 	cmp	w0, #0x0
   807b0:	54fffd80 	b.eq	80760 <memcmp+0x20>  // b.none
   807b4:	f94017e0 	ldr	x0, [sp, #40]
   807b8:	d1000400 	sub	x0, x0, #0x1
   807bc:	39400001 	ldrb	w1, [x0]
   807c0:	f94013e0 	ldr	x0, [sp, #32]
   807c4:	d1000400 	sub	x0, x0, #0x1
   807c8:	39400000 	ldrb	w0, [x0]
   807cc:	6b00003f 	cmp	w1, w0
   807d0:	54000062 	b.cs	807dc <memcmp+0x9c>  // b.hs, b.nlast
   807d4:	12800000 	mov	w0, #0xffffffff            	// #-1
   807d8:	14000004 	b	807e8 <memcmp+0xa8>
   807dc:	52800020 	mov	w0, #0x1                   	// #1
   807e0:	14000002 	b	807e8 <memcmp+0xa8>
   807e4:	52800000 	mov	w0, #0x0                   	// #0
   807e8:	9100c3ff 	add	sp, sp, #0x30
   807ec:	d65f03c0 	ret

00000000000807f0 <strlen>:
   807f0:	d10083ff 	sub	sp, sp, #0x20
   807f4:	f90007e0 	str	x0, [sp, #8]
   807f8:	f9000fff 	str	xzr, [sp, #24]
   807fc:	f94007e0 	ldr	x0, [sp, #8]
   80800:	39400000 	ldrb	w0, [x0]
   80804:	7100001f 	cmp	w0, #0x0
   80808:	54000100 	b.eq	80828 <strlen+0x38>  // b.none
   8080c:	f9400fe0 	ldr	x0, [sp, #24]
   80810:	91000400 	add	x0, x0, #0x1
   80814:	f9000fe0 	str	x0, [sp, #24]
   80818:	f94007e0 	ldr	x0, [sp, #8]
   8081c:	91000400 	add	x0, x0, #0x1
   80820:	f90007e0 	str	x0, [sp, #8]
   80824:	17fffff6 	b	807fc <strlen+0xc>
   80828:	f9400fe0 	ldr	x0, [sp, #24]
   8082c:	910083ff 	add	sp, sp, #0x20
   80830:	d65f03c0 	ret

0000000000080834 <strcmp>:
   80834:	d10043ff 	sub	sp, sp, #0x10
   80838:	f90007e0 	str	x0, [sp, #8]
   8083c:	f90003e1 	str	x1, [sp]
   80840:	f94007e0 	ldr	x0, [sp, #8]
   80844:	39400000 	ldrb	w0, [x0]
   80848:	7100001f 	cmp	w0, #0x0
   8084c:	540000a1 	b.ne	80860 <strcmp+0x2c>  // b.any
   80850:	f94003e0 	ldr	x0, [sp]
   80854:	39400000 	ldrb	w0, [x0]
   80858:	7100001f 	cmp	w0, #0x0
   8085c:	540002a0 	b.eq	808b0 <strcmp+0x7c>  // b.none
   80860:	f94007e0 	ldr	x0, [sp, #8]
   80864:	39400001 	ldrb	w1, [x0]
   80868:	f94003e0 	ldr	x0, [sp]
   8086c:	39400000 	ldrb	w0, [x0]
   80870:	6b00003f 	cmp	w1, w0
   80874:	54000101 	b.ne	80894 <strcmp+0x60>  // b.any
   80878:	f94007e0 	ldr	x0, [sp, #8]
   8087c:	91000400 	add	x0, x0, #0x1
   80880:	f90007e0 	str	x0, [sp, #8]
   80884:	f94003e0 	ldr	x0, [sp]
   80888:	91000400 	add	x0, x0, #0x1
   8088c:	f90003e0 	str	x0, [sp]
   80890:	17ffffec 	b	80840 <strcmp+0xc>
   80894:	f94007e0 	ldr	x0, [sp, #8]
   80898:	39400000 	ldrb	w0, [x0]
   8089c:	2a0003e1 	mov	w1, w0
   808a0:	f94003e0 	ldr	x0, [sp]
   808a4:	39400000 	ldrb	w0, [x0]
   808a8:	4b000020 	sub	w0, w1, w0
   808ac:	14000002 	b	808b4 <strcmp+0x80>
   808b0:	52800000 	mov	w0, #0x0                   	// #0
   808b4:	910043ff 	add	sp, sp, #0x10
   808b8:	d65f03c0 	ret

00000000000808bc <strncmp>:
   808bc:	d10083ff 	sub	sp, sp, #0x20
   808c0:	f9000fe0 	str	x0, [sp, #24]
   808c4:	f9000be1 	str	x1, [sp, #16]
   808c8:	f90007e2 	str	x2, [sp, #8]
   808cc:	f9400fe0 	ldr	x0, [sp, #24]
   808d0:	39400000 	ldrb	w0, [x0]
   808d4:	7100001f 	cmp	w0, #0x0
   808d8:	540000a1 	b.ne	808ec <strncmp+0x30>  // b.any
   808dc:	f9400be0 	ldr	x0, [sp, #16]
   808e0:	39400000 	ldrb	w0, [x0]
   808e4:	7100001f 	cmp	w0, #0x0
   808e8:	54000100 	b.eq	80908 <strncmp+0x4c>  // b.none
   808ec:	f94007e0 	ldr	x0, [sp, #8]
   808f0:	d1000401 	sub	x1, x0, #0x1
   808f4:	f90007e1 	str	x1, [sp, #8]
   808f8:	f100001f 	cmp	x0, #0x0
   808fc:	54000060 	b.eq	80908 <strncmp+0x4c>  // b.none
   80900:	52800020 	mov	w0, #0x1                   	// #1
   80904:	14000002 	b	8090c <strncmp+0x50>
   80908:	52800000 	mov	w0, #0x0                   	// #0
   8090c:	7100001f 	cmp	w0, #0x0
   80910:	540002a0 	b.eq	80964 <strncmp+0xa8>  // b.none
   80914:	f9400fe0 	ldr	x0, [sp, #24]
   80918:	39400001 	ldrb	w1, [x0]
   8091c:	f9400be0 	ldr	x0, [sp, #16]
   80920:	39400000 	ldrb	w0, [x0]
   80924:	6b00003f 	cmp	w1, w0
   80928:	54000101 	b.ne	80948 <strncmp+0x8c>  // b.any
   8092c:	f9400fe0 	ldr	x0, [sp, #24]
   80930:	91000400 	add	x0, x0, #0x1
   80934:	f9000fe0 	str	x0, [sp, #24]
   80938:	f9400be0 	ldr	x0, [sp, #16]
   8093c:	91000400 	add	x0, x0, #0x1
   80940:	f9000be0 	str	x0, [sp, #16]
   80944:	17ffffe2 	b	808cc <strncmp+0x10>
   80948:	f9400fe0 	ldr	x0, [sp, #24]
   8094c:	39400000 	ldrb	w0, [x0]
   80950:	2a0003e1 	mov	w1, w0
   80954:	f9400be0 	ldr	x0, [sp, #16]
   80958:	39400000 	ldrb	w0, [x0]
   8095c:	4b000020 	sub	w0, w1, w0
   80960:	14000002 	b	80968 <strncmp+0xac>
   80964:	52800000 	mov	w0, #0x0                   	// #0
   80968:	910083ff 	add	sp, sp, #0x20
   8096c:	d65f03c0 	ret

0000000000080970 <strcpy>:
   80970:	d10083ff 	sub	sp, sp, #0x20
   80974:	f90007e0 	str	x0, [sp, #8]
   80978:	f90003e1 	str	x1, [sp]
   8097c:	f94007e0 	ldr	x0, [sp, #8]
   80980:	f9000fe0 	str	x0, [sp, #24]
   80984:	f94003e0 	ldr	x0, [sp]
   80988:	39400000 	ldrb	w0, [x0]
   8098c:	7100001f 	cmp	w0, #0x0
   80990:	54000160 	b.eq	809bc <strcpy+0x4c>  // b.none
   80994:	f94003e0 	ldr	x0, [sp]
   80998:	91000401 	add	x1, x0, #0x1
   8099c:	f90003e1 	str	x1, [sp]
   809a0:	39400002 	ldrb	w2, [x0]
   809a4:	f94007e0 	ldr	x0, [sp, #8]
   809a8:	91000401 	add	x1, x0, #0x1
   809ac:	f90007e1 	str	x1, [sp, #8]
   809b0:	2a0203e1 	mov	w1, w2
   809b4:	39000001 	strb	w1, [x0]
   809b8:	17fffff3 	b	80984 <strcpy+0x14>
   809bc:	f94007e0 	ldr	x0, [sp, #8]
   809c0:	3900001f 	strb	wzr, [x0]
   809c4:	f9400fe0 	ldr	x0, [sp, #24]
   809c8:	910083ff 	add	sp, sp, #0x20
   809cc:	d65f03c0 	ret

00000000000809d0 <strncpy>:
   809d0:	d100c3ff 	sub	sp, sp, #0x30
   809d4:	f9000fe0 	str	x0, [sp, #24]
   809d8:	f9000be1 	str	x1, [sp, #16]
   809dc:	f90007e2 	str	x2, [sp, #8]
   809e0:	f9400fe0 	ldr	x0, [sp, #24]
   809e4:	f90017e0 	str	x0, [sp, #40]
   809e8:	f9400be0 	ldr	x0, [sp, #16]
   809ec:	39400000 	ldrb	w0, [x0]
   809f0:	7100001f 	cmp	w0, #0x0
   809f4:	54000100 	b.eq	80a14 <strncpy+0x44>  // b.none
   809f8:	f94007e0 	ldr	x0, [sp, #8]
   809fc:	d1000401 	sub	x1, x0, #0x1
   80a00:	f90007e1 	str	x1, [sp, #8]
   80a04:	f100001f 	cmp	x0, #0x0
   80a08:	54000060 	b.eq	80a14 <strncpy+0x44>  // b.none
   80a0c:	52800020 	mov	w0, #0x1                   	// #1
   80a10:	14000002 	b	80a18 <strncpy+0x48>
   80a14:	52800000 	mov	w0, #0x0                   	// #0
   80a18:	7100001f 	cmp	w0, #0x0
   80a1c:	54000160 	b.eq	80a48 <strncpy+0x78>  // b.none
   80a20:	f9400be0 	ldr	x0, [sp, #16]
   80a24:	91000401 	add	x1, x0, #0x1
   80a28:	f9000be1 	str	x1, [sp, #16]
   80a2c:	39400002 	ldrb	w2, [x0]
   80a30:	f9400fe0 	ldr	x0, [sp, #24]
   80a34:	91000401 	add	x1, x0, #0x1
   80a38:	f9000fe1 	str	x1, [sp, #24]
   80a3c:	2a0203e1 	mov	w1, w2
   80a40:	39000001 	strb	w1, [x0]
   80a44:	17ffffe9 	b	809e8 <strncpy+0x18>
   80a48:	f9400fe0 	ldr	x0, [sp, #24]
   80a4c:	3900001f 	strb	wzr, [x0]
   80a50:	f94017e0 	ldr	x0, [sp, #40]
   80a54:	9100c3ff 	add	sp, sp, #0x30
   80a58:	d65f03c0 	ret

0000000000080a5c <strcat>:
   80a5c:	a9bd7bfd 	stp	x29, x30, [sp, #-48]!
   80a60:	910003fd 	mov	x29, sp
   80a64:	f9000fe0 	str	x0, [sp, #24]
   80a68:	f9000be1 	str	x1, [sp, #16]
   80a6c:	f9400fe0 	ldr	x0, [sp, #24]
   80a70:	97ffff60 	bl	807f0 <strlen>
   80a74:	aa0003e1 	mov	x1, x0
   80a78:	f9400fe0 	ldr	x0, [sp, #24]
   80a7c:	8b010000 	add	x0, x0, x1
   80a80:	f90017e0 	str	x0, [sp, #40]
   80a84:	f9400be0 	ldr	x0, [sp, #16]
   80a88:	39400000 	ldrb	w0, [x0]
   80a8c:	7100001f 	cmp	w0, #0x0
   80a90:	54000160 	b.eq	80abc <strcat+0x60>  // b.none
   80a94:	f9400be0 	ldr	x0, [sp, #16]
   80a98:	91000401 	add	x1, x0, #0x1
   80a9c:	f9000be1 	str	x1, [sp, #16]
   80aa0:	39400002 	ldrb	w2, [x0]
   80aa4:	f94017e0 	ldr	x0, [sp, #40]
   80aa8:	91000401 	add	x1, x0, #0x1
   80aac:	f90017e1 	str	x1, [sp, #40]
   80ab0:	2a0203e1 	mov	w1, w2
   80ab4:	39000001 	strb	w1, [x0]
   80ab8:	17fffff3 	b	80a84 <strcat+0x28>
   80abc:	f94017e0 	ldr	x0, [sp, #40]
   80ac0:	3900001f 	strb	wzr, [x0]
   80ac4:	f9400fe0 	ldr	x0, [sp, #24]
   80ac8:	a8c37bfd 	ldp	x29, x30, [sp], #48
   80acc:	d65f03c0 	ret

0000000000080ad0 <strstr>:
   80ad0:	a9bc7bfd 	stp	x29, x30, [sp, #-64]!
   80ad4:	910003fd 	mov	x29, sp
   80ad8:	f9000fe0 	str	x0, [sp, #24]
   80adc:	f9000be1 	str	x1, [sp, #16]
   80ae0:	f9400fe0 	ldr	x0, [sp, #24]
   80ae4:	97ffff43 	bl	807f0 <strlen>
   80ae8:	b90033e0 	str	w0, [sp, #48]
   80aec:	f9400be0 	ldr	x0, [sp, #16]
   80af0:	97ffff40 	bl	807f0 <strlen>
   80af4:	b9002fe0 	str	w0, [sp, #44]
   80af8:	b9402fe0 	ldr	w0, [sp, #44]
   80afc:	7100001f 	cmp	w0, #0x0
   80b00:	54000061 	b.ne	80b0c <strstr+0x3c>  // b.any
   80b04:	d2800000 	mov	x0, #0x0                   	// #0
   80b08:	1400002e 	b	80bc0 <strstr+0xf0>
   80b0c:	b9003fff 	str	wzr, [sp, #60]
   80b10:	b94033e1 	ldr	w1, [sp, #48]
   80b14:	b9402fe0 	ldr	w0, [sp, #44]
   80b18:	4b000020 	sub	w0, w1, w0
   80b1c:	b9403fe1 	ldr	w1, [sp, #60]
   80b20:	6b00003f 	cmp	w1, w0
   80b24:	540004cc 	b.gt	80bbc <strstr+0xec>
   80b28:	52800020 	mov	w0, #0x1                   	// #1
   80b2c:	3900efe0 	strb	w0, [sp, #59]
   80b30:	b90037ff 	str	wzr, [sp, #52]
   80b34:	b94037e1 	ldr	w1, [sp, #52]
   80b38:	b9402fe0 	ldr	w0, [sp, #44]
   80b3c:	6b00003f 	cmp	w1, w0
   80b40:	5400028a 	b.ge	80b90 <strstr+0xc0>  // b.tcont
   80b44:	b9403fe1 	ldr	w1, [sp, #60]
   80b48:	b94037e0 	ldr	w0, [sp, #52]
   80b4c:	0b000020 	add	w0, w1, w0
   80b50:	93407c00 	sxtw	x0, w0
   80b54:	f9400fe1 	ldr	x1, [sp, #24]
   80b58:	8b000020 	add	x0, x1, x0
   80b5c:	39400001 	ldrb	w1, [x0]
   80b60:	b98037e0 	ldrsw	x0, [sp, #52]
   80b64:	f9400be2 	ldr	x2, [sp, #16]
   80b68:	8b000040 	add	x0, x2, x0
   80b6c:	39400000 	ldrb	w0, [x0]
   80b70:	6b00003f 	cmp	w1, w0
   80b74:	54000060 	b.eq	80b80 <strstr+0xb0>  // b.none
   80b78:	3900efff 	strb	wzr, [sp, #59]
   80b7c:	14000005 	b	80b90 <strstr+0xc0>
   80b80:	b94037e0 	ldr	w0, [sp, #52]
   80b84:	11000400 	add	w0, w0, #0x1
   80b88:	b90037e0 	str	w0, [sp, #52]
   80b8c:	17ffffea 	b	80b34 <strstr+0x64>
   80b90:	3940efe0 	ldrb	w0, [sp, #59]
   80b94:	7100001f 	cmp	w0, #0x0
   80b98:	540000a0 	b.eq	80bac <strstr+0xdc>  // b.none
   80b9c:	b9803fe0 	ldrsw	x0, [sp, #60]
   80ba0:	f9400fe1 	ldr	x1, [sp, #24]
   80ba4:	8b000020 	add	x0, x1, x0
   80ba8:	14000006 	b	80bc0 <strstr+0xf0>
   80bac:	b9403fe0 	ldr	w0, [sp, #60]
   80bb0:	11000400 	add	w0, w0, #0x1
   80bb4:	b9003fe0 	str	w0, [sp, #60]
   80bb8:	17ffffd6 	b	80b10 <strstr+0x40>
   80bbc:	d2800000 	mov	x0, #0x0                   	// #0
   80bc0:	a8c47bfd 	ldp	x29, x30, [sp], #64
   80bc4:	d65f03c0 	ret

0000000000080bc8 <_ZZ4atoiENKUlcE_clEc>:
   80bc8:	d10043ff 	sub	sp, sp, #0x10
   80bcc:	f90007e0 	str	x0, [sp, #8]
   80bd0:	39001fe1 	strb	w1, [sp, #7]
   80bd4:	39401fe0 	ldrb	w0, [sp, #7]
   80bd8:	7100bc1f 	cmp	w0, #0x2f
   80bdc:	540000c9 	b.ls	80bf4 <_ZZ4atoiENKUlcE_clEc+0x2c>  // b.plast
   80be0:	39401fe0 	ldrb	w0, [sp, #7]
   80be4:	7100e41f 	cmp	w0, #0x39
   80be8:	54000068 	b.hi	80bf4 <_ZZ4atoiENKUlcE_clEc+0x2c>  // b.pmore
   80bec:	52800020 	mov	w0, #0x1                   	// #1
   80bf0:	14000002 	b	80bf8 <_ZZ4atoiENKUlcE_clEc+0x30>
   80bf4:	52800000 	mov	w0, #0x0                   	// #0
   80bf8:	910043ff 	add	sp, sp, #0x10
   80bfc:	d65f03c0 	ret

0000000000080c00 <_ZZ4atoiENUlcE_4_FUNEc>:
   80c00:	a9be7bfd 	stp	x29, x30, [sp, #-32]!
   80c04:	910003fd 	mov	x29, sp
   80c08:	39007fe0 	strb	w0, [sp, #31]
   80c0c:	39407fe1 	ldrb	w1, [sp, #31]
   80c10:	d2800000 	mov	x0, #0x0                   	// #0
   80c14:	97ffffed 	bl	80bc8 <_ZZ4atoiENKUlcE_clEc>
   80c18:	12001c00 	and	w0, w0, #0xff
   80c1c:	a8c27bfd 	ldp	x29, x30, [sp], #32
   80c20:	d65f03c0 	ret

0000000000080c24 <_ZZ4atoiENKUlcE_cvPFbcEEv>:
   80c24:	d10043ff 	sub	sp, sp, #0x10
   80c28:	f90007e0 	str	x0, [sp, #8]
   80c2c:	90000000 	adrp	x0, 80000 <_start>
   80c30:	91300000 	add	x0, x0, #0xc00
   80c34:	910043ff 	add	sp, sp, #0x10
   80c38:	d65f03c0 	ret

0000000000080c3c <_ZZ4atoiENKUlcE0_clEc>:
   80c3c:	d10043ff 	sub	sp, sp, #0x10
   80c40:	f90007e0 	str	x0, [sp, #8]
   80c44:	39001fe1 	strb	w1, [sp, #7]
   80c48:	39401fe0 	ldrb	w0, [sp, #7]
   80c4c:	7100bc1f 	cmp	w0, #0x2f
   80c50:	54000089 	b.ls	80c60 <_ZZ4atoiENKUlcE0_clEc+0x24>  // b.plast
   80c54:	39401fe0 	ldrb	w0, [sp, #7]
   80c58:	7100e41f 	cmp	w0, #0x39
   80c5c:	540001a9 	b.ls	80c90 <_ZZ4atoiENKUlcE0_clEc+0x54>  // b.plast
   80c60:	39401fe0 	ldrb	w0, [sp, #7]
   80c64:	7101001f 	cmp	w0, #0x40
   80c68:	54000089 	b.ls	80c78 <_ZZ4atoiENKUlcE0_clEc+0x3c>  // b.plast
   80c6c:	39401fe0 	ldrb	w0, [sp, #7]
   80c70:	7101181f 	cmp	w0, #0x46
   80c74:	540000e9 	b.ls	80c90 <_ZZ4atoiENKUlcE0_clEc+0x54>  // b.plast
   80c78:	39401fe0 	ldrb	w0, [sp, #7]
   80c7c:	7101801f 	cmp	w0, #0x60
   80c80:	540000c9 	b.ls	80c98 <_ZZ4atoiENKUlcE0_clEc+0x5c>  // b.plast
   80c84:	39401fe0 	ldrb	w0, [sp, #7]
   80c88:	7101981f 	cmp	w0, #0x66
   80c8c:	54000068 	b.hi	80c98 <_ZZ4atoiENKUlcE0_clEc+0x5c>  // b.pmore
   80c90:	52800020 	mov	w0, #0x1                   	// #1
   80c94:	14000002 	b	80c9c <_ZZ4atoiENKUlcE0_clEc+0x60>
   80c98:	52800000 	mov	w0, #0x0                   	// #0
   80c9c:	910043ff 	add	sp, sp, #0x10
   80ca0:	d65f03c0 	ret

0000000000080ca4 <_ZZ4atoiENUlcE0_4_FUNEc>:
   80ca4:	a9be7bfd 	stp	x29, x30, [sp, #-32]!
   80ca8:	910003fd 	mov	x29, sp
   80cac:	39007fe0 	strb	w0, [sp, #31]
   80cb0:	39407fe1 	ldrb	w1, [sp, #31]
   80cb4:	d2800000 	mov	x0, #0x0                   	// #0
   80cb8:	97ffffe1 	bl	80c3c <_ZZ4atoiENKUlcE0_clEc>
   80cbc:	12001c00 	and	w0, w0, #0xff
   80cc0:	a8c27bfd 	ldp	x29, x30, [sp], #32
   80cc4:	d65f03c0 	ret

0000000000080cc8 <_ZZ4atoiENKUlcE0_cvPFbcEEv>:
   80cc8:	d10043ff 	sub	sp, sp, #0x10
   80ccc:	f90007e0 	str	x0, [sp, #8]
   80cd0:	90000000 	adrp	x0, 80000 <_start>
   80cd4:	91329000 	add	x0, x0, #0xca4
   80cd8:	910043ff 	add	sp, sp, #0x10
   80cdc:	d65f03c0 	ret

0000000000080ce0 <_ZZ4atoiENKUlcE1_clEc>:
   80ce0:	a9bd7bfd 	stp	x29, x30, [sp, #-48]!
   80ce4:	910003fd 	mov	x29, sp
   80ce8:	f9000fe0 	str	x0, [sp, #24]
   80cec:	39005fe1 	strb	w1, [sp, #23]
   80cf0:	b9002fff 	str	wzr, [sp, #44]
   80cf4:	39405fe1 	ldrb	w1, [sp, #23]
   80cf8:	f0000080 	adrp	x0, 93000 <_ZTVN8valkyrie6kernel8FunctionIFbRNS0_9UniquePtrINS0_4TaskEEEEE12CallableImplIZNS0_13TaskScheduler11remove_taskERKS3_EUlRT_E_EE+0x18>
   80cfc:	9103a000 	add	x0, x0, #0xe8
   80d00:	97ffffb2 	bl	80bc8 <_ZZ4atoiENKUlcE_clEc>
   80d04:	12001c00 	and	w0, w0, #0xff
   80d08:	7100001f 	cmp	w0, #0x0
   80d0c:	540000a0 	b.eq	80d20 <_ZZ4atoiENKUlcE1_clEc+0x40>  // b.none
   80d10:	39405fe0 	ldrb	w0, [sp, #23]
   80d14:	5100c000 	sub	w0, w0, #0x30
   80d18:	b9002fe0 	str	w0, [sp, #44]
   80d1c:	14000014 	b	80d6c <_ZZ4atoiENKUlcE1_clEc+0x8c>
   80d20:	39405fe0 	ldrb	w0, [sp, #23]
   80d24:	7101001f 	cmp	w0, #0x40
   80d28:	54000109 	b.ls	80d48 <_ZZ4atoiENKUlcE1_clEc+0x68>  // b.plast
   80d2c:	39405fe0 	ldrb	w0, [sp, #23]
   80d30:	7101181f 	cmp	w0, #0x46
   80d34:	540000a8 	b.hi	80d48 <_ZZ4atoiENKUlcE1_clEc+0x68>  // b.pmore
   80d38:	39405fe0 	ldrb	w0, [sp, #23]
   80d3c:	5100dc00 	sub	w0, w0, #0x37
   80d40:	b9002fe0 	str	w0, [sp, #44]
   80d44:	1400000a 	b	80d6c <_ZZ4atoiENKUlcE1_clEc+0x8c>
   80d48:	39405fe0 	ldrb	w0, [sp, #23]
   80d4c:	7101801f 	cmp	w0, #0x60
   80d50:	540000e9 	b.ls	80d6c <_ZZ4atoiENKUlcE1_clEc+0x8c>  // b.plast
   80d54:	39405fe0 	ldrb	w0, [sp, #23]
   80d58:	7101981f 	cmp	w0, #0x66
   80d5c:	54000088 	b.hi	80d6c <_ZZ4atoiENKUlcE1_clEc+0x8c>  // b.pmore
   80d60:	39405fe0 	ldrb	w0, [sp, #23]
   80d64:	51015c00 	sub	w0, w0, #0x57
   80d68:	b9002fe0 	str	w0, [sp, #44]
   80d6c:	b9402fe0 	ldr	w0, [sp, #44]
   80d70:	a8c37bfd 	ldp	x29, x30, [sp], #48
   80d74:	d65f03c0 	ret

0000000000080d78 <atoi>:
   80d78:	a9bb7bfd 	stp	x29, x30, [sp, #-80]!
   80d7c:	910003fd 	mov	x29, sp
   80d80:	f9000fe0 	str	x0, [sp, #24]
   80d84:	b90017e1 	str	w1, [sp, #20]
   80d88:	39013fff 	strb	wzr, [sp, #79]
   80d8c:	f9001bff 	str	xzr, [sp, #48]
   80d90:	f90023ff 	str	xzr, [sp, #64]
   80d94:	b9003fff 	str	wzr, [sp, #60]
   80d98:	b9003bff 	str	wzr, [sp, #56]
   80d9c:	b94017e0 	ldr	w0, [sp, #20]
   80da0:	7100281f 	cmp	w0, #0xa
   80da4:	540000a1 	b.ne	80db8 <atoi+0x40>  // b.any
   80da8:	f0000080 	adrp	x0, 93000 <_ZTVN8valkyrie6kernel8FunctionIFbRNS0_9UniquePtrINS0_4TaskEEEEE12CallableImplIZNS0_13TaskScheduler11remove_taskERKS3_EUlRT_E_EE+0x18>
   80dac:	9103a000 	add	x0, x0, #0xe8
   80db0:	97ffff9d 	bl	80c24 <_ZZ4atoiENKUlcE_cvPFbcEEv>
   80db4:	14000004 	b	80dc4 <atoi+0x4c>
   80db8:	f0000080 	adrp	x0, 93000 <_ZTVN8valkyrie6kernel8FunctionIFbRNS0_9UniquePtrINS0_4TaskEEEEE12CallableImplIZNS0_13TaskScheduler11remove_taskERKS3_EUlRT_E_EE+0x18>
   80dbc:	9103c000 	add	x0, x0, #0xf0
   80dc0:	97ffffc2 	bl	80cc8 <_ZZ4atoiENKUlcE0_cvPFbcEEv>
   80dc4:	f90017e0 	str	x0, [sp, #40]
   80dc8:	f9400fe1 	ldr	x1, [sp, #24]
   80dcc:	f94023e0 	ldr	x0, [sp, #64]
   80dd0:	8b000020 	add	x0, x1, x0
   80dd4:	39400000 	ldrb	w0, [x0]
   80dd8:	7100801f 	cmp	w0, #0x20
   80ddc:	540001a1 	b.ne	80e10 <atoi+0x98>  // b.any
   80de0:	f9400fe1 	ldr	x1, [sp, #24]
   80de4:	f94023e0 	ldr	x0, [sp, #64]
   80de8:	8b000020 	add	x0, x1, x0
   80dec:	39400000 	ldrb	w0, [x0]
   80df0:	7100001f 	cmp	w0, #0x0
   80df4:	54000061 	b.ne	80e00 <atoi+0x88>  // b.any
   80df8:	52800000 	mov	w0, #0x0                   	// #0
   80dfc:	1400007d 	b	80ff0 <atoi+0x278>
   80e00:	f94023e0 	ldr	x0, [sp, #64]
   80e04:	91000400 	add	x0, x0, #0x1
   80e08:	f90023e0 	str	x0, [sp, #64]
   80e0c:	17ffffef 	b	80dc8 <atoi+0x50>
   80e10:	f9400fe1 	ldr	x1, [sp, #24]
   80e14:	f94023e0 	ldr	x0, [sp, #64]
   80e18:	8b000020 	add	x0, x1, x0
   80e1c:	f9000fe0 	str	x0, [sp, #24]
   80e20:	f9400fe0 	ldr	x0, [sp, #24]
   80e24:	97fffe73 	bl	807f0 <strlen>
   80e28:	f9001be0 	str	x0, [sp, #48]
   80e2c:	f9400fe0 	ldr	x0, [sp, #24]
   80e30:	39400000 	ldrb	w0, [x0]
   80e34:	7100ac1f 	cmp	w0, #0x2b
   80e38:	54000200 	b.eq	80e78 <atoi+0x100>  // b.none
   80e3c:	f9400fe0 	ldr	x0, [sp, #24]
   80e40:	39400000 	ldrb	w0, [x0]
   80e44:	7100b41f 	cmp	w0, #0x2d
   80e48:	54000180 	b.eq	80e78 <atoi+0x100>  // b.none
   80e4c:	f94017e1 	ldr	x1, [sp, #40]
   80e50:	f9400fe0 	ldr	x0, [sp, #24]
   80e54:	39400000 	ldrb	w0, [x0]
   80e58:	d63f0020 	blr	x1
   80e5c:	12001c00 	and	w0, w0, #0xff
   80e60:	52000000 	eor	w0, w0, #0x1
   80e64:	12001c00 	and	w0, w0, #0xff
   80e68:	7100001f 	cmp	w0, #0x0
   80e6c:	54000060 	b.eq	80e78 <atoi+0x100>  // b.none
   80e70:	52800020 	mov	w0, #0x1                   	// #1
   80e74:	14000002 	b	80e7c <atoi+0x104>
   80e78:	52800000 	mov	w0, #0x0                   	// #0
   80e7c:	7100001f 	cmp	w0, #0x0
   80e80:	54000060 	b.eq	80e8c <atoi+0x114>  // b.none
   80e84:	52800000 	mov	w0, #0x0                   	// #0
   80e88:	1400005a 	b	80ff0 <atoi+0x278>
   80e8c:	f9400fe0 	ldr	x0, [sp, #24]
   80e90:	39400000 	ldrb	w0, [x0]
   80e94:	7100ac1f 	cmp	w0, #0x2b
   80e98:	54000100 	b.eq	80eb8 <atoi+0x140>  // b.none
   80e9c:	7100b41f 	cmp	w0, #0x2d
   80ea0:	54000121 	b.ne	80ec4 <atoi+0x14c>  // b.any
   80ea4:	52800020 	mov	w0, #0x1                   	// #1
   80ea8:	39013fe0 	strb	w0, [sp, #79]
   80eac:	52800020 	mov	w0, #0x1                   	// #1
   80eb0:	b9003be0 	str	w0, [sp, #56]
   80eb4:	14000005 	b	80ec8 <atoi+0x150>
   80eb8:	52800020 	mov	w0, #0x1                   	// #1
   80ebc:	b9003be0 	str	w0, [sp, #56]
   80ec0:	14000002 	b	80ec8 <atoi+0x150>
   80ec4:	d503201f 	nop
   80ec8:	f9401be0 	ldr	x0, [sp, #48]
   80ecc:	2a0003e1 	mov	w1, w0
   80ed0:	b9403be0 	ldr	w0, [sp, #56]
   80ed4:	6b01001f 	cmp	w0, w1
   80ed8:	5400018a 	b.ge	80f08 <atoi+0x190>  // b.tcont
   80edc:	f94017e1 	ldr	x1, [sp, #40]
   80ee0:	b9803be0 	ldrsw	x0, [sp, #56]
   80ee4:	f9400fe2 	ldr	x2, [sp, #24]
   80ee8:	8b000040 	add	x0, x2, x0
   80eec:	39400000 	ldrb	w0, [x0]
   80ef0:	d63f0020 	blr	x1
   80ef4:	12001c00 	and	w0, w0, #0xff
   80ef8:	7100001f 	cmp	w0, #0x0
   80efc:	54000060 	b.eq	80f08 <atoi+0x190>  // b.none
   80f00:	52800020 	mov	w0, #0x1                   	// #1
   80f04:	14000002 	b	80f0c <atoi+0x194>
   80f08:	52800000 	mov	w0, #0x0                   	// #0
   80f0c:	7100001f 	cmp	w0, #0x0
   80f10:	54000600 	b.eq	80fd0 <atoi+0x258>  // b.none
   80f14:	12b00001 	mov	w1, #0x7fffffff            	// #2147483647
   80f18:	b94017e0 	ldr	w0, [sp, #20]
   80f1c:	1ac00c20 	sdiv	w0, w1, w0
   80f20:	b9403fe1 	ldr	w1, [sp, #60]
   80f24:	6b00003f 	cmp	w1, w0
   80f28:	5400010d 	b.le	80f48 <atoi+0x1d0>
   80f2c:	39413fe0 	ldrb	w0, [sp, #79]
   80f30:	7100001f 	cmp	w0, #0x0
   80f34:	54000060 	b.eq	80f40 <atoi+0x1c8>  // b.none
   80f38:	52b00000 	mov	w0, #0x80000000            	// #-2147483648
   80f3c:	1400002d 	b	80ff0 <atoi+0x278>
   80f40:	12b00000 	mov	w0, #0x7fffffff            	// #2147483647
   80f44:	1400002b 	b	80ff0 <atoi+0x278>
   80f48:	b9403fe1 	ldr	w1, [sp, #60]
   80f4c:	b94017e0 	ldr	w0, [sp, #20]
   80f50:	1b007c20 	mul	w0, w1, w0
   80f54:	b9003fe0 	str	w0, [sp, #60]
   80f58:	b9803be0 	ldrsw	x0, [sp, #56]
   80f5c:	f9400fe1 	ldr	x1, [sp, #24]
   80f60:	8b000020 	add	x0, x1, x0
   80f64:	39400000 	ldrb	w0, [x0]
   80f68:	2a0003e1 	mov	w1, w0
   80f6c:	f0000080 	adrp	x0, 93000 <_ZTVN8valkyrie6kernel8FunctionIFbRNS0_9UniquePtrINS0_4TaskEEEEE12CallableImplIZNS0_13TaskScheduler11remove_taskERKS3_EUlRT_E_EE+0x18>
   80f70:	9103e000 	add	x0, x0, #0xf8
   80f74:	97ffff5b 	bl	80ce0 <_ZZ4atoiENKUlcE1_clEc>
   80f78:	b90027e0 	str	w0, [sp, #36]
   80f7c:	12b00001 	mov	w1, #0x7fffffff            	// #2147483647
   80f80:	b94027e0 	ldr	w0, [sp, #36]
   80f84:	4b000020 	sub	w0, w1, w0
   80f88:	b9403fe1 	ldr	w1, [sp, #60]
   80f8c:	6b00003f 	cmp	w1, w0
   80f90:	5400010d 	b.le	80fb0 <atoi+0x238>
   80f94:	39413fe0 	ldrb	w0, [sp, #79]
   80f98:	7100001f 	cmp	w0, #0x0
   80f9c:	54000060 	b.eq	80fa8 <atoi+0x230>  // b.none
   80fa0:	52b00000 	mov	w0, #0x80000000            	// #-2147483648
   80fa4:	14000013 	b	80ff0 <atoi+0x278>
   80fa8:	12b00000 	mov	w0, #0x7fffffff            	// #2147483647
   80fac:	14000011 	b	80ff0 <atoi+0x278>
   80fb0:	b9403fe1 	ldr	w1, [sp, #60]
   80fb4:	b94027e0 	ldr	w0, [sp, #36]
   80fb8:	0b000020 	add	w0, w1, w0
   80fbc:	b9003fe0 	str	w0, [sp, #60]
   80fc0:	b9403be0 	ldr	w0, [sp, #56]
   80fc4:	11000400 	add	w0, w0, #0x1
   80fc8:	b9003be0 	str	w0, [sp, #56]
   80fcc:	17ffffbf 	b	80ec8 <atoi+0x150>
   80fd0:	39413fe0 	ldrb	w0, [sp, #79]
   80fd4:	7100001f 	cmp	w0, #0x0
   80fd8:	54000080 	b.eq	80fe8 <atoi+0x270>  // b.none
   80fdc:	b9403fe0 	ldr	w0, [sp, #60]
   80fe0:	4b0003e0 	neg	w0, w0
   80fe4:	14000002 	b	80fec <atoi+0x274>
   80fe8:	b9403fe0 	ldr	w0, [sp, #60]
   80fec:	d503201f 	nop
   80ff0:	a8c57bfd 	ldp	x29, x30, [sp], #80
   80ff4:	d65f03c0 	ret

0000000000080ff8 <switch_to>:
   80ff8:	f100001f 	cmp	x0, #0x0
   80ffc:	54000160 	b.eq	81028 <_restore>  // b.none
   81000:	eb01001f 	cmp	x0, x1
   81004:	54000120 	b.eq	81028 <_restore>  // b.none

0000000000081008 <_save>:
   81008:	a9005013 	stp	x19, x20, [x0]
   8100c:	a9015815 	stp	x21, x22, [x0, #16]
   81010:	a9026017 	stp	x23, x24, [x0, #32]
   81014:	a9036819 	stp	x25, x26, [x0, #48]
   81018:	a904701b 	stp	x27, x28, [x0, #64]
   8101c:	a905781d 	stp	x29, x30, [x0, #80]
   81020:	910003e9 	mov	x9, sp
   81024:	f9003009 	str	x9, [x0, #96]

0000000000081028 <_restore>:
   81028:	f100003f 	cmp	x1, #0x0
   8102c:	54000140 	b.eq	81054 <_out>  // b.none
   81030:	a9405033 	ldp	x19, x20, [x1]
   81034:	a9415835 	ldp	x21, x22, [x1, #16]
   81038:	a9426037 	ldp	x23, x24, [x1, #32]
   8103c:	a9436839 	ldp	x25, x26, [x1, #48]
   81040:	a944703b 	ldp	x27, x28, [x1, #64]
   81044:	a945783d 	ldp	x29, x30, [x1, #80]
   81048:	f9403029 	ldr	x9, [x1, #96]
   8104c:	9100013f 	mov	sp, x9
   81050:	d518d081 	msr	tpidr_el1, x1

0000000000081054 <_out>:
   81054:	d65f03c0 	ret

0000000000081058 <_ZN8valkyrie6kernel3ELFC1ENS0_4PairIPKcmEE>:
   81058:	d10083ff 	sub	sp, sp, #0x20
   8105c:	f9000fe0 	str	x0, [sp, #24]
   81060:	a9008be1 	stp	x1, x2, [sp, #8]
   81064:	f94007e1 	ldr	x1, [sp, #8]
   81068:	f9400fe0 	ldr	x0, [sp, #24]
   8106c:	f9000001 	str	x1, [x0]
   81070:	f9400be1 	ldr	x1, [sp, #16]
   81074:	f9400fe0 	ldr	x0, [sp, #24]
   81078:	f9000401 	str	x1, [x0, #8]
   8107c:	d503201f 	nop
   81080:	910083ff 	add	sp, sp, #0x20
   81084:	d65f03c0 	ret

0000000000081088 <_ZNK8valkyrie6kernel3ELF8is_validEv>:
   81088:	a9be7bfd 	stp	x29, x30, [sp, #-32]!
   8108c:	910003fd 	mov	x29, sp
   81090:	f9000fe0 	str	x0, [sp, #24]
   81094:	f9400fe0 	ldr	x0, [sp, #24]
   81098:	f9400000 	ldr	x0, [x0]
   8109c:	aa0003e3 	mov	x3, x0
   810a0:	d2800082 	mov	x2, #0x4                   	// #4
   810a4:	f0000020 	adrp	x0, 88000 <_ZN8valkyrie6kernel16TimerMultiplexer4tickEv+0x18>
   810a8:	912fc001 	add	x1, x0, #0xbf0
   810ac:	aa0303e0 	mov	x0, x3
   810b0:	97fffda4 	bl	80740 <memcmp>
   810b4:	7100001f 	cmp	w0, #0x0
   810b8:	1a9f17e0 	cset	w0, eq  // eq = none
   810bc:	12001c00 	and	w0, w0, #0xff
   810c0:	a8c27bfd 	ldp	x29, x30, [sp], #32
   810c4:	d65f03c0 	ret

00000000000810c8 <_ZNK8valkyrie6kernel3ELF7load_atEPv>:
   810c8:	a9bd7bfd 	stp	x29, x30, [sp, #-48]!
   810cc:	910003fd 	mov	x29, sp
   810d0:	f9000fe0 	str	x0, [sp, #24]
   810d4:	f9000be1 	str	x1, [sp, #16]
   810d8:	f9400be0 	ldr	x0, [sp, #16]
   810dc:	f90017e0 	str	x0, [sp, #40]
   810e0:	f94017e0 	ldr	x0, [sp, #40]
   810e4:	f90013e0 	str	x0, [sp, #32]
   810e8:	f9400fe1 	ldr	x1, [sp, #24]
   810ec:	f9400fe0 	ldr	x0, [sp, #24]
   810f0:	91002002 	add	x2, x0, #0x8
   810f4:	910043e0 	add	x0, sp, #0x10
   810f8:	aa0203e3 	mov	x3, x2
   810fc:	aa0103e2 	mov	x2, x1
   81100:	aa0003e1 	mov	x1, x0
   81104:	f0000020 	adrp	x0, 88000 <_ZN8valkyrie6kernel16TimerMultiplexer4tickEv+0x18>
   81108:	912fe000 	add	x0, x0, #0xbf8
   8110c:	9400343e 	bl	8e204 <_Z6printkIJRPvRKPKN8valkyrie6kernel3ELF10FileHeaderERKmEEvPKcDpOT_>
   81110:	f9400be3 	ldr	x3, [sp, #16]
   81114:	f9400fe0 	ldr	x0, [sp, #24]
   81118:	f9400001 	ldr	x1, [x0]
   8111c:	f9400fe0 	ldr	x0, [sp, #24]
   81120:	f9400400 	ldr	x0, [x0, #8]
   81124:	aa0003e2 	mov	x2, x0
   81128:	aa0303e0 	mov	x0, x3
   8112c:	97fffd54 	bl	8067c <memcpy>
   81130:	d503201f 	nop
   81134:	a8c37bfd 	ldp	x29, x30, [sp], #48
   81138:	d65f03c0 	ret

000000000008113c <_ZNK8valkyrie6kernel3ELF15get_entry_pointEPKv>:
   8113c:	d10083ff 	sub	sp, sp, #0x20
   81140:	f90007e0 	str	x0, [sp, #8]
   81144:	f90003e1 	str	x1, [sp]
   81148:	f94003e0 	ldr	x0, [sp]
   8114c:	91404000 	add	x0, x0, #0x10, lsl #12
   81150:	f9000fe0 	str	x0, [sp, #24]
   81154:	f9400fe0 	ldr	x0, [sp, #24]
   81158:	910083ff 	add	sp, sp, #0x20
   8115c:	d65f03c0 	ret

0000000000081160 <handle_exception>:
   81160:	d10443ff 	sub	sp, sp, #0x110
   81164:	a90007e0 	stp	x0, x1, [sp]
   81168:	a9010fe2 	stp	x2, x3, [sp, #16]
   8116c:	a90217e4 	stp	x4, x5, [sp, #32]
   81170:	a9031fe6 	stp	x6, x7, [sp, #48]
   81174:	a90427e8 	stp	x8, x9, [sp, #64]
   81178:	a9052fea 	stp	x10, x11, [sp, #80]
   8117c:	a90637ec 	stp	x12, x13, [sp, #96]
   81180:	a9073fee 	stp	x14, x15, [sp, #112]
   81184:	a90847f0 	stp	x16, x17, [sp, #128]
   81188:	a9094ff2 	stp	x18, x19, [sp, #144]
   8118c:	a90a57f4 	stp	x20, x21, [sp, #160]
   81190:	a90b5ff6 	stp	x22, x23, [sp, #176]
   81194:	a90c67f8 	stp	x24, x25, [sp, #192]
   81198:	a90d6ffa 	stp	x26, x27, [sp, #208]
   8119c:	a90e77fc 	stp	x28, x29, [sp, #224]
   811a0:	d538401c 	mrs	x28, spsr_el1
   811a4:	d538403d 	mrs	x29, elr_el1
   811a8:	a90f77fc 	stp	x28, x29, [sp, #240]
   811ac:	f90083fe 	str	x30, [sp, #256]
   811b0:	910003e0 	mov	x0, sp
   811b4:	940003a5 	bl	82048 <_ZN8valkyrie6kernel16ExceptionManager16handle_exceptionEPNS0_9TrapFrameE>
   811b8:	a94007e0 	ldp	x0, x1, [sp]
   811bc:	a9410fe2 	ldp	x2, x3, [sp, #16]
   811c0:	a94217e4 	ldp	x4, x5, [sp, #32]
   811c4:	a9431fe6 	ldp	x6, x7, [sp, #48]
   811c8:	a94427e8 	ldp	x8, x9, [sp, #64]
   811cc:	a9452fea 	ldp	x10, x11, [sp, #80]
   811d0:	a94637ec 	ldp	x12, x13, [sp, #96]
   811d4:	a9473fee 	ldp	x14, x15, [sp, #112]
   811d8:	a94847f0 	ldp	x16, x17, [sp, #128]
   811dc:	a9494ff2 	ldp	x18, x19, [sp, #144]
   811e0:	a94a57f4 	ldp	x20, x21, [sp, #160]
   811e4:	a94b5ff6 	ldp	x22, x23, [sp, #176]
   811e8:	a94c67f8 	ldp	x24, x25, [sp, #192]
   811ec:	a94d6ffa 	ldp	x26, x27, [sp, #208]
   811f0:	a94f77fc 	ldp	x28, x29, [sp, #240]
   811f4:	d518401c 	msr	spsr_el1, x28
   811f8:	d518403d 	msr	elr_el1, x29
   811fc:	a94e77fc 	ldp	x28, x29, [sp, #224]
   81200:	f94083fe 	ldr	x30, [sp, #256]
   81204:	910443ff 	add	sp, sp, #0x110
   81208:	d69f03e0 	eret

000000000008120c <handle_irq>:
   8120c:	d10443ff 	sub	sp, sp, #0x110
   81210:	a90007e0 	stp	x0, x1, [sp]
   81214:	a9010fe2 	stp	x2, x3, [sp, #16]
   81218:	a90217e4 	stp	x4, x5, [sp, #32]
   8121c:	a9031fe6 	stp	x6, x7, [sp, #48]
   81220:	a90427e8 	stp	x8, x9, [sp, #64]
   81224:	a9052fea 	stp	x10, x11, [sp, #80]
   81228:	a90637ec 	stp	x12, x13, [sp, #96]
   8122c:	a9073fee 	stp	x14, x15, [sp, #112]
   81230:	a90847f0 	stp	x16, x17, [sp, #128]
   81234:	a9094ff2 	stp	x18, x19, [sp, #144]
   81238:	a90a57f4 	stp	x20, x21, [sp, #160]
   8123c:	a90b5ff6 	stp	x22, x23, [sp, #176]
   81240:	a90c67f8 	stp	x24, x25, [sp, #192]
   81244:	a90d6ffa 	stp	x26, x27, [sp, #208]
   81248:	a90e77fc 	stp	x28, x29, [sp, #224]
   8124c:	d538401c 	mrs	x28, spsr_el1
   81250:	d538403d 	mrs	x29, elr_el1
   81254:	a90f77fc 	stp	x28, x29, [sp, #240]
   81258:	f90083fe 	str	x30, [sp, #256]
   8125c:	940003ee 	bl	82214 <_ZN8valkyrie6kernel16ExceptionManager10handle_irqEv>
   81260:	a94007e0 	ldp	x0, x1, [sp]
   81264:	a9410fe2 	ldp	x2, x3, [sp, #16]
   81268:	a94217e4 	ldp	x4, x5, [sp, #32]
   8126c:	a9431fe6 	ldp	x6, x7, [sp, #48]
   81270:	a94427e8 	ldp	x8, x9, [sp, #64]
   81274:	a9452fea 	ldp	x10, x11, [sp, #80]
   81278:	a94637ec 	ldp	x12, x13, [sp, #96]
   8127c:	a9473fee 	ldp	x14, x15, [sp, #112]
   81280:	a94847f0 	ldp	x16, x17, [sp, #128]
   81284:	a9494ff2 	ldp	x18, x19, [sp, #144]
   81288:	a94a57f4 	ldp	x20, x21, [sp, #160]
   8128c:	a94b5ff6 	ldp	x22, x23, [sp, #176]
   81290:	a94c67f8 	ldp	x24, x25, [sp, #192]
   81294:	a94d6ffa 	ldp	x26, x27, [sp, #208]
   81298:	a94f77fc 	ldp	x28, x29, [sp, #240]
   8129c:	d518401c 	msr	spsr_el1, x28
   812a0:	d518403d 	msr	elr_el1, x29
   812a4:	a94e77fc 	ldp	x28, x29, [sp, #224]
   812a8:	f94083fe 	ldr	x30, [sp, #256]
   812ac:	910443ff 	add	sp, sp, #0x110
   812b0:	d69f03e0 	eret
	...

0000000000081800 <evt>:
   81800:	17fffe58 	b	81160 <handle_exception>
   81804:	d503201f 	nop
   81808:	d503201f 	nop
   8180c:	d503201f 	nop
   81810:	d503201f 	nop
   81814:	d503201f 	nop
   81818:	d503201f 	nop
   8181c:	d503201f 	nop
   81820:	d503201f 	nop
   81824:	d503201f 	nop
   81828:	d503201f 	nop
   8182c:	d503201f 	nop
   81830:	d503201f 	nop
   81834:	d503201f 	nop
   81838:	d503201f 	nop
   8183c:	d503201f 	nop
   81840:	d503201f 	nop
   81844:	d503201f 	nop
   81848:	d503201f 	nop
   8184c:	d503201f 	nop
   81850:	d503201f 	nop
   81854:	d503201f 	nop
   81858:	d503201f 	nop
   8185c:	d503201f 	nop
   81860:	d503201f 	nop
   81864:	d503201f 	nop
   81868:	d503201f 	nop
   8186c:	d503201f 	nop
   81870:	d503201f 	nop
   81874:	d503201f 	nop
   81878:	d503201f 	nop
   8187c:	d503201f 	nop
   81880:	17fffe63 	b	8120c <handle_irq>
   81884:	d503201f 	nop
   81888:	d503201f 	nop
   8188c:	d503201f 	nop
   81890:	d503201f 	nop
   81894:	d503201f 	nop
   81898:	d503201f 	nop
   8189c:	d503201f 	nop
   818a0:	d503201f 	nop
   818a4:	d503201f 	nop
   818a8:	d503201f 	nop
   818ac:	d503201f 	nop
   818b0:	d503201f 	nop
   818b4:	d503201f 	nop
   818b8:	d503201f 	nop
   818bc:	d503201f 	nop
   818c0:	d503201f 	nop
   818c4:	d503201f 	nop
   818c8:	d503201f 	nop
   818cc:	d503201f 	nop
   818d0:	d503201f 	nop
   818d4:	d503201f 	nop
   818d8:	d503201f 	nop
   818dc:	d503201f 	nop
   818e0:	d503201f 	nop
   818e4:	d503201f 	nop
   818e8:	d503201f 	nop
   818ec:	d503201f 	nop
   818f0:	d503201f 	nop
   818f4:	d503201f 	nop
   818f8:	d503201f 	nop
   818fc:	d503201f 	nop
   81900:	17fffe18 	b	81160 <handle_exception>
   81904:	d503201f 	nop
   81908:	d503201f 	nop
   8190c:	d503201f 	nop
   81910:	d503201f 	nop
   81914:	d503201f 	nop
   81918:	d503201f 	nop
   8191c:	d503201f 	nop
   81920:	d503201f 	nop
   81924:	d503201f 	nop
   81928:	d503201f 	nop
   8192c:	d503201f 	nop
   81930:	d503201f 	nop
   81934:	d503201f 	nop
   81938:	d503201f 	nop
   8193c:	d503201f 	nop
   81940:	d503201f 	nop
   81944:	d503201f 	nop
   81948:	d503201f 	nop
   8194c:	d503201f 	nop
   81950:	d503201f 	nop
   81954:	d503201f 	nop
   81958:	d503201f 	nop
   8195c:	d503201f 	nop
   81960:	d503201f 	nop
   81964:	d503201f 	nop
   81968:	d503201f 	nop
   8196c:	d503201f 	nop
   81970:	d503201f 	nop
   81974:	d503201f 	nop
   81978:	d503201f 	nop
   8197c:	d503201f 	nop
   81980:	17fffdf8 	b	81160 <handle_exception>
   81984:	d503201f 	nop
   81988:	d503201f 	nop
   8198c:	d503201f 	nop
   81990:	d503201f 	nop
   81994:	d503201f 	nop
   81998:	d503201f 	nop
   8199c:	d503201f 	nop
   819a0:	d503201f 	nop
   819a4:	d503201f 	nop
   819a8:	d503201f 	nop
   819ac:	d503201f 	nop
   819b0:	d503201f 	nop
   819b4:	d503201f 	nop
   819b8:	d503201f 	nop
   819bc:	d503201f 	nop
   819c0:	d503201f 	nop
   819c4:	d503201f 	nop
   819c8:	d503201f 	nop
   819cc:	d503201f 	nop
   819d0:	d503201f 	nop
   819d4:	d503201f 	nop
   819d8:	d503201f 	nop
   819dc:	d503201f 	nop
   819e0:	d503201f 	nop
   819e4:	d503201f 	nop
   819e8:	d503201f 	nop
   819ec:	d503201f 	nop
   819f0:	d503201f 	nop
   819f4:	d503201f 	nop
   819f8:	d503201f 	nop
   819fc:	d503201f 	nop
   81a00:	17fffdd8 	b	81160 <handle_exception>
   81a04:	d503201f 	nop
   81a08:	d503201f 	nop
   81a0c:	d503201f 	nop
   81a10:	d503201f 	nop
   81a14:	d503201f 	nop
   81a18:	d503201f 	nop
   81a1c:	d503201f 	nop
   81a20:	d503201f 	nop
   81a24:	d503201f 	nop
   81a28:	d503201f 	nop
   81a2c:	d503201f 	nop
   81a30:	d503201f 	nop
   81a34:	d503201f 	nop
   81a38:	d503201f 	nop
   81a3c:	d503201f 	nop
   81a40:	d503201f 	nop
   81a44:	d503201f 	nop
   81a48:	d503201f 	nop
   81a4c:	d503201f 	nop
   81a50:	d503201f 	nop
   81a54:	d503201f 	nop
   81a58:	d503201f 	nop
   81a5c:	d503201f 	nop
   81a60:	d503201f 	nop
   81a64:	d503201f 	nop
   81a68:	d503201f 	nop
   81a6c:	d503201f 	nop
   81a70:	d503201f 	nop
   81a74:	d503201f 	nop
   81a78:	d503201f 	nop
   81a7c:	d503201f 	nop
   81a80:	17fffde3 	b	8120c <handle_irq>
   81a84:	d503201f 	nop
   81a88:	d503201f 	nop
   81a8c:	d503201f 	nop
   81a90:	d503201f 	nop
   81a94:	d503201f 	nop
   81a98:	d503201f 	nop
   81a9c:	d503201f 	nop
   81aa0:	d503201f 	nop
   81aa4:	d503201f 	nop
   81aa8:	d503201f 	nop
   81aac:	d503201f 	nop
   81ab0:	d503201f 	nop
   81ab4:	d503201f 	nop
   81ab8:	d503201f 	nop
   81abc:	d503201f 	nop
   81ac0:	d503201f 	nop
   81ac4:	d503201f 	nop
   81ac8:	d503201f 	nop
   81acc:	d503201f 	nop
   81ad0:	d503201f 	nop
   81ad4:	d503201f 	nop
   81ad8:	d503201f 	nop
   81adc:	d503201f 	nop
   81ae0:	d503201f 	nop
   81ae4:	d503201f 	nop
   81ae8:	d503201f 	nop
   81aec:	d503201f 	nop
   81af0:	d503201f 	nop
   81af4:	d503201f 	nop
   81af8:	d503201f 	nop
   81afc:	d503201f 	nop
   81b00:	17fffd98 	b	81160 <handle_exception>
   81b04:	d503201f 	nop
   81b08:	d503201f 	nop
   81b0c:	d503201f 	nop
   81b10:	d503201f 	nop
   81b14:	d503201f 	nop
   81b18:	d503201f 	nop
   81b1c:	d503201f 	nop
   81b20:	d503201f 	nop
   81b24:	d503201f 	nop
   81b28:	d503201f 	nop
   81b2c:	d503201f 	nop
   81b30:	d503201f 	nop
   81b34:	d503201f 	nop
   81b38:	d503201f 	nop
   81b3c:	d503201f 	nop
   81b40:	d503201f 	nop
   81b44:	d503201f 	nop
   81b48:	d503201f 	nop
   81b4c:	d503201f 	nop
   81b50:	d503201f 	nop
   81b54:	d503201f 	nop
   81b58:	d503201f 	nop
   81b5c:	d503201f 	nop
   81b60:	d503201f 	nop
   81b64:	d503201f 	nop
   81b68:	d503201f 	nop
   81b6c:	d503201f 	nop
   81b70:	d503201f 	nop
   81b74:	d503201f 	nop
   81b78:	d503201f 	nop
   81b7c:	d503201f 	nop
   81b80:	17fffd78 	b	81160 <handle_exception>
   81b84:	d503201f 	nop
   81b88:	d503201f 	nop
   81b8c:	d503201f 	nop
   81b90:	d503201f 	nop
   81b94:	d503201f 	nop
   81b98:	d503201f 	nop
   81b9c:	d503201f 	nop
   81ba0:	d503201f 	nop
   81ba4:	d503201f 	nop
   81ba8:	d503201f 	nop
   81bac:	d503201f 	nop
   81bb0:	d503201f 	nop
   81bb4:	d503201f 	nop
   81bb8:	d503201f 	nop
   81bbc:	d503201f 	nop
   81bc0:	d503201f 	nop
   81bc4:	d503201f 	nop
   81bc8:	d503201f 	nop
   81bcc:	d503201f 	nop
   81bd0:	d503201f 	nop
   81bd4:	d503201f 	nop
   81bd8:	d503201f 	nop
   81bdc:	d503201f 	nop
   81be0:	d503201f 	nop
   81be4:	d503201f 	nop
   81be8:	d503201f 	nop
   81bec:	d503201f 	nop
   81bf0:	d503201f 	nop
   81bf4:	d503201f 	nop
   81bf8:	d503201f 	nop
   81bfc:	d503201f 	nop
   81c00:	17fffd58 	b	81160 <handle_exception>
   81c04:	d503201f 	nop
   81c08:	d503201f 	nop
   81c0c:	d503201f 	nop
   81c10:	d503201f 	nop
   81c14:	d503201f 	nop
   81c18:	d503201f 	nop
   81c1c:	d503201f 	nop
   81c20:	d503201f 	nop
   81c24:	d503201f 	nop
   81c28:	d503201f 	nop
   81c2c:	d503201f 	nop
   81c30:	d503201f 	nop
   81c34:	d503201f 	nop
   81c38:	d503201f 	nop
   81c3c:	d503201f 	nop
   81c40:	d503201f 	nop
   81c44:	d503201f 	nop
   81c48:	d503201f 	nop
   81c4c:	d503201f 	nop
   81c50:	d503201f 	nop
   81c54:	d503201f 	nop
   81c58:	d503201f 	nop
   81c5c:	d503201f 	nop
   81c60:	d503201f 	nop
   81c64:	d503201f 	nop
   81c68:	d503201f 	nop
   81c6c:	d503201f 	nop
   81c70:	d503201f 	nop
   81c74:	d503201f 	nop
   81c78:	d503201f 	nop
   81c7c:	d503201f 	nop
   81c80:	17fffd63 	b	8120c <handle_irq>
   81c84:	d503201f 	nop
   81c88:	d503201f 	nop
   81c8c:	d503201f 	nop
   81c90:	d503201f 	nop
   81c94:	d503201f 	nop
   81c98:	d503201f 	nop
   81c9c:	d503201f 	nop
   81ca0:	d503201f 	nop
   81ca4:	d503201f 	nop
   81ca8:	d503201f 	nop
   81cac:	d503201f 	nop
   81cb0:	d503201f 	nop
   81cb4:	d503201f 	nop
   81cb8:	d503201f 	nop
   81cbc:	d503201f 	nop
   81cc0:	d503201f 	nop
   81cc4:	d503201f 	nop
   81cc8:	d503201f 	nop
   81ccc:	d503201f 	nop
   81cd0:	d503201f 	nop
   81cd4:	d503201f 	nop
   81cd8:	d503201f 	nop
   81cdc:	d503201f 	nop
   81ce0:	d503201f 	nop
   81ce4:	d503201f 	nop
   81ce8:	d503201f 	nop
   81cec:	d503201f 	nop
   81cf0:	d503201f 	nop
   81cf4:	d503201f 	nop
   81cf8:	d503201f 	nop
   81cfc:	d503201f 	nop
   81d00:	17fffd18 	b	81160 <handle_exception>
   81d04:	d503201f 	nop
   81d08:	d503201f 	nop
   81d0c:	d503201f 	nop
   81d10:	d503201f 	nop
   81d14:	d503201f 	nop
   81d18:	d503201f 	nop
   81d1c:	d503201f 	nop
   81d20:	d503201f 	nop
   81d24:	d503201f 	nop
   81d28:	d503201f 	nop
   81d2c:	d503201f 	nop
   81d30:	d503201f 	nop
   81d34:	d503201f 	nop
   81d38:	d503201f 	nop
   81d3c:	d503201f 	nop
   81d40:	d503201f 	nop
   81d44:	d503201f 	nop
   81d48:	d503201f 	nop
   81d4c:	d503201f 	nop
   81d50:	d503201f 	nop
   81d54:	d503201f 	nop
   81d58:	d503201f 	nop
   81d5c:	d503201f 	nop
   81d60:	d503201f 	nop
   81d64:	d503201f 	nop
   81d68:	d503201f 	nop
   81d6c:	d503201f 	nop
   81d70:	d503201f 	nop
   81d74:	d503201f 	nop
   81d78:	d503201f 	nop
   81d7c:	d503201f 	nop
   81d80:	17fffcf8 	b	81160 <handle_exception>
   81d84:	d503201f 	nop
   81d88:	d503201f 	nop
   81d8c:	d503201f 	nop
   81d90:	d503201f 	nop
   81d94:	d503201f 	nop
   81d98:	d503201f 	nop
   81d9c:	d503201f 	nop
   81da0:	d503201f 	nop
   81da4:	d503201f 	nop
   81da8:	d503201f 	nop
   81dac:	d503201f 	nop
   81db0:	d503201f 	nop
   81db4:	d503201f 	nop
   81db8:	d503201f 	nop
   81dbc:	d503201f 	nop
   81dc0:	d503201f 	nop
   81dc4:	d503201f 	nop
   81dc8:	d503201f 	nop
   81dcc:	d503201f 	nop
   81dd0:	d503201f 	nop
   81dd4:	d503201f 	nop
   81dd8:	d503201f 	nop
   81ddc:	d503201f 	nop
   81de0:	d503201f 	nop
   81de4:	d503201f 	nop
   81de8:	d503201f 	nop
   81dec:	d503201f 	nop
   81df0:	d503201f 	nop
   81df4:	d503201f 	nop
   81df8:	d503201f 	nop
   81dfc:	d503201f 	nop
   81e00:	17fffcd8 	b	81160 <handle_exception>
   81e04:	d503201f 	nop
   81e08:	d503201f 	nop
   81e0c:	d503201f 	nop
   81e10:	d503201f 	nop
   81e14:	d503201f 	nop
   81e18:	d503201f 	nop
   81e1c:	d503201f 	nop
   81e20:	d503201f 	nop
   81e24:	d503201f 	nop
   81e28:	d503201f 	nop
   81e2c:	d503201f 	nop
   81e30:	d503201f 	nop
   81e34:	d503201f 	nop
   81e38:	d503201f 	nop
   81e3c:	d503201f 	nop
   81e40:	d503201f 	nop
   81e44:	d503201f 	nop
   81e48:	d503201f 	nop
   81e4c:	d503201f 	nop
   81e50:	d503201f 	nop
   81e54:	d503201f 	nop
   81e58:	d503201f 	nop
   81e5c:	d503201f 	nop
   81e60:	d503201f 	nop
   81e64:	d503201f 	nop
   81e68:	d503201f 	nop
   81e6c:	d503201f 	nop
   81e70:	d503201f 	nop
   81e74:	d503201f 	nop
   81e78:	d503201f 	nop
   81e7c:	d503201f 	nop
   81e80:	17fffce3 	b	8120c <handle_irq>
   81e84:	d503201f 	nop
   81e88:	d503201f 	nop
   81e8c:	d503201f 	nop
   81e90:	d503201f 	nop
   81e94:	d503201f 	nop
   81e98:	d503201f 	nop
   81e9c:	d503201f 	nop
   81ea0:	d503201f 	nop
   81ea4:	d503201f 	nop
   81ea8:	d503201f 	nop
   81eac:	d503201f 	nop
   81eb0:	d503201f 	nop
   81eb4:	d503201f 	nop
   81eb8:	d503201f 	nop
   81ebc:	d503201f 	nop
   81ec0:	d503201f 	nop
   81ec4:	d503201f 	nop
   81ec8:	d503201f 	nop
   81ecc:	d503201f 	nop
   81ed0:	d503201f 	nop
   81ed4:	d503201f 	nop
   81ed8:	d503201f 	nop
   81edc:	d503201f 	nop
   81ee0:	d503201f 	nop
   81ee4:	d503201f 	nop
   81ee8:	d503201f 	nop
   81eec:	d503201f 	nop
   81ef0:	d503201f 	nop
   81ef4:	d503201f 	nop
   81ef8:	d503201f 	nop
   81efc:	d503201f 	nop
   81f00:	17fffc98 	b	81160 <handle_exception>
   81f04:	d503201f 	nop
   81f08:	d503201f 	nop
   81f0c:	d503201f 	nop
   81f10:	d503201f 	nop
   81f14:	d503201f 	nop
   81f18:	d503201f 	nop
   81f1c:	d503201f 	nop
   81f20:	d503201f 	nop
   81f24:	d503201f 	nop
   81f28:	d503201f 	nop
   81f2c:	d503201f 	nop
   81f30:	d503201f 	nop
   81f34:	d503201f 	nop
   81f38:	d503201f 	nop
   81f3c:	d503201f 	nop
   81f40:	d503201f 	nop
   81f44:	d503201f 	nop
   81f48:	d503201f 	nop
   81f4c:	d503201f 	nop
   81f50:	d503201f 	nop
   81f54:	d503201f 	nop
   81f58:	d503201f 	nop
   81f5c:	d503201f 	nop
   81f60:	d503201f 	nop
   81f64:	d503201f 	nop
   81f68:	d503201f 	nop
   81f6c:	d503201f 	nop
   81f70:	d503201f 	nop
   81f74:	d503201f 	nop
   81f78:	d503201f 	nop
   81f7c:	d503201f 	nop
   81f80:	17fffc78 	b	81160 <handle_exception>

0000000000081f84 <_ZN8valkyrie6kernel16ExceptionManager12get_instanceEv>:
   81f84:	a9bf7bfd 	stp	x29, x30, [sp, #-16]!
   81f88:	910003fd 	mov	x29, sp
   81f8c:	d0000080 	adrp	x0, 93000 <_ZTVN8valkyrie6kernel8FunctionIFbRNS0_9UniquePtrINS0_4TaskEEEEE12CallableImplIZNS0_13TaskScheduler11remove_taskERKS3_EUlRT_E_EE+0x18>
   81f90:	91048000 	add	x0, x0, #0x120
   81f94:	f9400000 	ldr	x0, [x0]
   81f98:	92400000 	and	x0, x0, #0x1
   81f9c:	f100001f 	cmp	x0, #0x0
   81fa0:	540001e1 	b.ne	81fdc <_ZN8valkyrie6kernel16ExceptionManager12get_instanceEv+0x58>  // b.any
   81fa4:	d0000080 	adrp	x0, 93000 <_ZTVN8valkyrie6kernel8FunctionIFbRNS0_9UniquePtrINS0_4TaskEEEEE12CallableImplIZNS0_13TaskScheduler11remove_taskERKS3_EUlRT_E_EE+0x18>
   81fa8:	91040000 	add	x0, x0, #0x100
   81fac:	94000010 	bl	81fec <_ZN8valkyrie6kernel16ExceptionManagerC1Ev>
   81fb0:	d0000080 	adrp	x0, 93000 <_ZTVN8valkyrie6kernel8FunctionIFbRNS0_9UniquePtrINS0_4TaskEEEEE12CallableImplIZNS0_13TaskScheduler11remove_taskERKS3_EUlRT_E_EE+0x18>
   81fb4:	91048000 	add	x0, x0, #0x120
   81fb8:	d2800021 	mov	x1, #0x1                   	// #1
   81fbc:	f9000001 	str	x1, [x0]
   81fc0:	f0ffffe0 	adrp	x0, 80000 <_start>
   81fc4:	91097002 	add	x2, x0, #0x25c
   81fc8:	d0000080 	adrp	x0, 93000 <_ZTVN8valkyrie6kernel8FunctionIFbRNS0_9UniquePtrINS0_4TaskEEEEE12CallableImplIZNS0_13TaskScheduler11remove_taskERKS3_EUlRT_E_EE+0x18>
   81fcc:	91040001 	add	x1, x0, #0x100
   81fd0:	b0000060 	adrp	x0, 8e000 <_Z6printfIJmEEvPKcDpOT_+0xc>
   81fd4:	91100000 	add	x0, x0, #0x400
   81fd8:	97fff89f 	bl	80254 <__cxa_atexit>
   81fdc:	d0000080 	adrp	x0, 93000 <_ZTVN8valkyrie6kernel8FunctionIFbRNS0_9UniquePtrINS0_4TaskEEEEE12CallableImplIZNS0_13TaskScheduler11remove_taskERKS3_EUlRT_E_EE+0x18>
   81fe0:	91040000 	add	x0, x0, #0x100
   81fe4:	a8c17bfd 	ldp	x29, x30, [sp], #16
   81fe8:	d65f03c0 	ret

0000000000081fec <_ZN8valkyrie6kernel16ExceptionManagerC1Ev>:
   81fec:	a9be7bfd 	stp	x29, x30, [sp, #-32]!
   81ff0:	910003fd 	mov	x29, sp
   81ff4:	f9000fe0 	str	x0, [sp, #24]
   81ff8:	f9400fe0 	ldr	x0, [sp, #24]
   81ffc:	940030e1 	bl	8e380 <_ZN8valkyrie6kernel16TaskletSchedulerC1Ev>
   82000:	90000080 	adrp	x0, 92000 <_Z6printkIJPKN8valkyrie6kernel8FunctionIFvvEEEEEvPKcDpOT_+0x18>
   82004:	f947a400 	ldr	x0, [x0, #3912]
   82008:	d518c000 	msr	vbar_el1, x0
   8200c:	d503201f 	nop
   82010:	a8c27bfd 	ldp	x29, x30, [sp], #32
   82014:	d65f03c0 	ret

0000000000082018 <_ZN8valkyrie6kernel16ExceptionManager6enableEv>:
   82018:	d10043ff 	sub	sp, sp, #0x10
   8201c:	f90007e0 	str	x0, [sp, #8]
   82020:	d5034fff 	msr	daifclr, #0xf
   82024:	d503201f 	nop
   82028:	910043ff 	add	sp, sp, #0x10
   8202c:	d65f03c0 	ret

0000000000082030 <_ZN8valkyrie6kernel16ExceptionManager7disableEv>:
   82030:	d10043ff 	sub	sp, sp, #0x10
   82034:	f90007e0 	str	x0, [sp, #8]
   82038:	d5034fdf 	msr	daifset, #0xf
   8203c:	d503201f 	nop
   82040:	910043ff 	add	sp, sp, #0x10
   82044:	d65f03c0 	ret

0000000000082048 <_ZN8valkyrie6kernel16ExceptionManager16handle_exceptionEPNS0_9TrapFrameE>:
   82048:	a9bb7bfd 	stp	x29, x30, [sp, #-80]!
   8204c:	910003fd 	mov	x29, sp
   82050:	f9000bf3 	str	x19, [sp, #16]
   82054:	f90017e0 	str	x0, [sp, #40]
   82058:	d5384000 	mrs	x0, spsr_el1
   8205c:	f90023e0 	str	x0, [sp, #64]
   82060:	97ffffc9 	bl	81f84 <_ZN8valkyrie6kernel16ExceptionManager12get_instanceEv>
   82064:	940000bc 	bl	82354 <_ZN8valkyrie6kernel16ExceptionManager21get_current_exceptionEv>
   82068:	a90307e0 	stp	x0, x1, [sp, #48]
   8206c:	3940c3e0 	ldrb	w0, [sp, #48]
   82070:	7100541f 	cmp	w0, #0x15
   82074:	1a9f17e0 	cset	w0, eq  // eq = none
   82078:	12001c00 	and	w0, w0, #0xff
   8207c:	92401c00 	and	x0, x0, #0xff
   82080:	f100001f 	cmp	x0, #0x0
   82084:	54000140 	b.eq	820ac <_ZN8valkyrie6kernel16ExceptionManager16handle_exceptionEPNS0_9TrapFrameE+0x64>  // b.none
   82088:	b94037e0 	ldr	w0, [sp, #52]
   8208c:	7100001f 	cmp	w0, #0x0
   82090:	1a9f17e0 	cset	w0, eq  // eq = none
   82094:	12001c00 	and	w0, w0, #0xff
   82098:	92401c00 	and	x0, x0, #0xff
   8209c:	f100001f 	cmp	x0, #0x0
   820a0:	54000060 	b.eq	820ac <_ZN8valkyrie6kernel16ExceptionManager16handle_exceptionEPNS0_9TrapFrameE+0x64>  // b.none
   820a4:	52800020 	mov	w0, #0x1                   	// #1
   820a8:	14000002 	b	820b0 <_ZN8valkyrie6kernel16ExceptionManager16handle_exceptionEPNS0_9TrapFrameE+0x68>
   820ac:	52800000 	mov	w0, #0x0                   	// #0
   820b0:	92401c00 	and	x0, x0, #0xff
   820b4:	f100001f 	cmp	x0, #0x0
   820b8:	54000340 	b.eq	82120 <_ZN8valkyrie6kernel16ExceptionManager16handle_exceptionEPNS0_9TrapFrameE+0xd8>  // b.none
   820bc:	9400124c 	bl	869ec <_ZN8valkyrie6kernel4Task11get_currentEv>
   820c0:	f94017e1 	ldr	x1, [sp, #40]
   820c4:	940030be 	bl	8e3bc <_ZN8valkyrie6kernel4Task14set_trap_frameEPNS0_9TrapFrameE>
   820c8:	f94017e0 	ldr	x0, [sp, #40]
   820cc:	f9402007 	ldr	x7, [x0, #64]
   820d0:	f94017e0 	ldr	x0, [sp, #40]
   820d4:	f9400001 	ldr	x1, [x0]
   820d8:	f94017e0 	ldr	x0, [sp, #40]
   820dc:	f9400402 	ldr	x2, [x0, #8]
   820e0:	f94017e0 	ldr	x0, [sp, #40]
   820e4:	f9400803 	ldr	x3, [x0, #16]
   820e8:	f94017e0 	ldr	x0, [sp, #40]
   820ec:	f9400c04 	ldr	x4, [x0, #24]
   820f0:	f94017e0 	ldr	x0, [sp, #40]
   820f4:	f9401005 	ldr	x5, [x0, #32]
   820f8:	f94017e0 	ldr	x0, [sp, #40]
   820fc:	f9401400 	ldr	x0, [x0, #40]
   82100:	aa0003e6 	mov	x6, x0
   82104:	aa0703e0 	mov	x0, x7
   82108:	94003110 	bl	8e548 <_ZN8valkyrie6kernel10do_syscallIJyyyyyyEEEmyDpT_>
   8210c:	aa0003f3 	mov	x19, x0
   82110:	94001237 	bl	869ec <_ZN8valkyrie6kernel4Task11get_currentEv>
   82114:	940030a4 	bl	8e3a4 <_ZNK8valkyrie6kernel4Task14get_trap_frameEv>
   82118:	f9000013 	str	x19, [x0]
   8211c:	1400003b 	b	82208 <_ZN8valkyrie6kernel16ExceptionManager16handle_exceptionEPNS0_9TrapFrameE+0x1c0>
   82120:	97ffff99 	bl	81f84 <_ZN8valkyrie6kernel16ExceptionManager12get_instanceEv>
   82124:	9400004b 	bl	82250 <_ZNK8valkyrie6kernel16ExceptionManager19get_exception_levelEv>
   82128:	12001c00 	and	w0, w0, #0xff
   8212c:	39013fe0 	strb	w0, [sp, #79]
   82130:	91013fe0 	add	x0, sp, #0x4f
   82134:	aa0003e1 	mov	x1, x0
   82138:	d0000020 	adrp	x0, 88000 <_ZN8valkyrie6kernel16TimerMultiplexer4tickEv+0x18>
   8213c:	9130a000 	add	x0, x0, #0xc28
   82140:	94003128 	bl	8e5e0 <_Z6printkIJhEEvPKcDpOT_>
   82144:	910103e0 	add	x0, sp, #0x40
   82148:	aa0003e1 	mov	x1, x0
   8214c:	d0000020 	adrp	x0, 88000 <_ZN8valkyrie6kernel16TimerMultiplexer4tickEv+0x18>
   82150:	91312000 	add	x0, x0, #0xc48
   82154:	94002fcb 	bl	8e080 <_Z6printkIJRyEEvPKcDpOT_>
   82158:	9100c3e0 	add	x0, sp, #0x30
   8215c:	91002000 	add	x0, x0, #0x8
   82160:	aa0003e1 	mov	x1, x0
   82164:	d0000020 	adrp	x0, 88000 <_ZN8valkyrie6kernel16TimerMultiplexer4tickEv+0x18>
   82168:	9131c000 	add	x0, x0, #0xc70
   8216c:	94003156 	bl	8e6c4 <_Z6printkIJRKmEEvPKcDpOT_>
   82170:	9100c3e0 	add	x0, sp, #0x30
   82174:	aa0003e1 	mov	x1, x0
   82178:	d0000020 	adrp	x0, 88000 <_ZN8valkyrie6kernel16TimerMultiplexer4tickEv+0x18>
   8217c:	91324000 	add	x0, x0, #0xc90
   82180:	9400318a 	bl	8e7a8 <_Z6printkIJRKhEEvPKcDpOT_>
   82184:	9100c3e0 	add	x0, sp, #0x30
   82188:	91001000 	add	x0, x0, #0x4
   8218c:	aa0003e1 	mov	x1, x0
   82190:	d0000020 	adrp	x0, 88000 <_ZN8valkyrie6kernel16TimerMultiplexer4tickEv+0x18>
   82194:	9132c000 	add	x0, x0, #0xcb0
   82198:	940031bd 	bl	8e88c <_Z6printkIJRKjEEvPKcDpOT_>
   8219c:	3940c3e0 	ldrb	w0, [sp, #48]
   821a0:	7100941f 	cmp	w0, #0x25
   821a4:	540001c0 	b.eq	821dc <_ZN8valkyrie6kernel16ExceptionManager16handle_exceptionEPNS0_9TrapFrameE+0x194>  // b.none
   821a8:	7100941f 	cmp	w0, #0x25
   821ac:	540001ec 	b.gt	821e8 <_ZN8valkyrie6kernel16ExceptionManager16handle_exceptionEPNS0_9TrapFrameE+0x1a0>
   821b0:	7100601f 	cmp	w0, #0x18
   821b4:	54000080 	b.eq	821c4 <_ZN8valkyrie6kernel16ExceptionManager16handle_exceptionEPNS0_9TrapFrameE+0x17c>  // b.none
   821b8:	7100641f 	cmp	w0, #0x19
   821bc:	540000a0 	b.eq	821d0 <_ZN8valkyrie6kernel16ExceptionManager16handle_exceptionEPNS0_9TrapFrameE+0x188>  // b.none
   821c0:	1400000a 	b	821e8 <_ZN8valkyrie6kernel16ExceptionManager16handle_exceptionEPNS0_9TrapFrameE+0x1a0>
   821c4:	d0000020 	adrp	x0, 88000 <_ZN8valkyrie6kernel16TimerMultiplexer4tickEv+0x18>
   821c8:	91338000 	add	x0, x0, #0xce0
   821cc:	94002ef4 	bl	8dd9c <_ZN8valkyrie6kernel6Kernel5panicIJEEEvPKcDpOT_>
   821d0:	d0000020 	adrp	x0, 88000 <_ZN8valkyrie6kernel16TimerMultiplexer4tickEv+0x18>
   821d4:	91346000 	add	x0, x0, #0xd18
   821d8:	94002ef1 	bl	8dd9c <_ZN8valkyrie6kernel6Kernel5panicIJEEEvPKcDpOT_>
   821dc:	d0000020 	adrp	x0, 88000 <_ZN8valkyrie6kernel16TimerMultiplexer4tickEv+0x18>
   821e0:	91350000 	add	x0, x0, #0xd40
   821e4:	94002eee 	bl	8dd9c <_ZN8valkyrie6kernel6Kernel5panicIJEEEvPKcDpOT_>
   821e8:	9100c3e0 	add	x0, sp, #0x30
   821ec:	91001001 	add	x1, x0, #0x4
   821f0:	9100c3e0 	add	x0, sp, #0x30
   821f4:	aa0103e2 	mov	x2, x1
   821f8:	aa0003e1 	mov	x1, x0
   821fc:	d0000020 	adrp	x0, 88000 <_ZN8valkyrie6kernel16TimerMultiplexer4tickEv+0x18>
   82200:	91364000 	add	x0, x0, #0xd90
   82204:	940031db 	bl	8e970 <_ZN8valkyrie6kernel6Kernel5panicIJRKhRKjEEEvPKcDpOT_>
   82208:	f9400bf3 	ldr	x19, [sp, #16]
   8220c:	a8c57bfd 	ldp	x29, x30, [sp], #80
   82210:	d65f03c0 	ret

0000000000082214 <_ZN8valkyrie6kernel16ExceptionManager10handle_irqEv>:
   82214:	a9bf7bfd 	stp	x29, x30, [sp, #-16]!
   82218:	910003fd 	mov	x29, sp
   8221c:	9400031b 	bl	82e88 <_ZN8valkyrie6kernel8MiniUART12get_instanceEv>
   82220:	9400048c 	bl	83450 <_ZNK8valkyrie6kernel8MiniUART15has_pending_irqEv>
   82224:	12001c00 	and	w0, w0, #0xff
   82228:	7100001f 	cmp	w0, #0x0
   8222c:	54000080 	b.eq	8223c <_ZN8valkyrie6kernel16ExceptionManager10handle_irqEv+0x28>  // b.none
   82230:	94000316 	bl	82e88 <_ZN8valkyrie6kernel8MiniUART12get_instanceEv>
   82234:	9400049b 	bl	834a0 <_ZN8valkyrie6kernel8MiniUART10handle_irqEv>
   82238:	14000003 	b	82244 <_ZN8valkyrie6kernel16ExceptionManager10handle_irqEv+0x30>
   8223c:	94001745 	bl	87f50 <_ZN8valkyrie6kernel16TimerMultiplexer12get_instanceEv>
   82240:	9400176a 	bl	87fe8 <_ZN8valkyrie6kernel16TimerMultiplexer4tickEv>
   82244:	d503201f 	nop
   82248:	a8c17bfd 	ldp	x29, x30, [sp], #16
   8224c:	d65f03c0 	ret

0000000000082250 <_ZNK8valkyrie6kernel16ExceptionManager19get_exception_levelEv>:
   82250:	d10083ff 	sub	sp, sp, #0x20
   82254:	f90007e0 	str	x0, [sp, #8]
   82258:	d5384240 	mrs	x0, currentel
   8225c:	39007fe0 	strb	w0, [sp, #31]
   82260:	39407fe0 	ldrb	w0, [sp, #31]
   82264:	53027c00 	lsr	w0, w0, #2
   82268:	12001c00 	and	w0, w0, #0xff
   8226c:	910083ff 	add	sp, sp, #0x20
   82270:	d65f03c0 	ret

0000000000082274 <_ZN8valkyrie6kernel16ExceptionManager25downgrade_exception_levelEhPvS2_S2_>:
   82274:	d10103ff 	sub	sp, sp, #0x40
   82278:	f90017e0 	str	x0, [sp, #40]
   8227c:	39009fe1 	strb	w1, [sp, #39]
   82280:	f9000fe2 	str	x2, [sp, #24]
   82284:	f9000be3 	str	x3, [sp, #16]
   82288:	f90007e4 	str	x4, [sp, #8]
   8228c:	f9400fe0 	ldr	x0, [sp, #24]
   82290:	f100001f 	cmp	x0, #0x0
   82294:	54000060 	b.eq	822a0 <_ZN8valkyrie6kernel16ExceptionManager25downgrade_exception_levelEhPvS2_S2_+0x2c>  // b.none
   82298:	f9400fe0 	ldr	x0, [sp, #24]
   8229c:	14000003 	b	822a8 <_ZN8valkyrie6kernel16ExceptionManager25downgrade_exception_levelEhPvS2_S2_+0x34>
   822a0:	90000000 	adrp	x0, 82000 <_ZN8valkyrie6kernel16ExceptionManagerC1Ev+0x14>
   822a4:	910d2000 	add	x0, x0, #0x348
   822a8:	f9001fe0 	str	x0, [sp, #56]
   822ac:	f94007e0 	ldr	x0, [sp, #8]
   822b0:	f100001f 	cmp	x0, #0x0
   822b4:	54000061 	b.ne	822c0 <_ZN8valkyrie6kernel16ExceptionManager25downgrade_exception_levelEhPvS2_S2_+0x4c>  // b.any
   822b8:	910003e0 	mov	x0, sp
   822bc:	f90007e0 	str	x0, [sp, #8]
   822c0:	39409fe0 	ldrb	w0, [sp, #39]
   822c4:	7100001f 	cmp	w0, #0x0
   822c8:	54000240 	b.eq	82310 <_ZN8valkyrie6kernel16ExceptionManager25downgrade_exception_levelEhPvS2_S2_+0x9c>  // b.none
   822cc:	7100041f 	cmp	w0, #0x1
   822d0:	540003c1 	b.ne	82348 <_ZN8valkyrie6kernel16ExceptionManager25downgrade_exception_levelEhPvS2_S2_+0xd4>  // b.any
   822d4:	f94007e0 	ldr	x0, [sp, #8]
   822d8:	d51c4100 	msr	sp_el1, x0
   822dc:	d2800020 	mov	x0, #0x1                   	// #1
   822e0:	f9001be0 	str	x0, [sp, #48]
   822e4:	f9401be0 	ldr	x0, [sp, #48]
   822e8:	b27e0000 	orr	x0, x0, #0x4
   822ec:	f9001be0 	str	x0, [sp, #48]
   822f0:	f9401be0 	ldr	x0, [sp, #48]
   822f4:	b27a0c00 	orr	x0, x0, #0x3c0
   822f8:	f9001be0 	str	x0, [sp, #48]
   822fc:	f9401be0 	ldr	x0, [sp, #48]
   82300:	d51c4000 	msr	spsr_el2, x0
   82304:	f9401fe0 	ldr	x0, [sp, #56]
   82308:	d51c4020 	msr	elr_el2, x0
   8230c:	14000008 	b	8232c <_ZN8valkyrie6kernel16ExceptionManager25downgrade_exception_levelEhPvS2_S2_+0xb8>
   82310:	f94007e0 	ldr	x0, [sp, #8]
   82314:	d5184100 	msr	sp_el0, x0
   82318:	52800000 	mov	w0, #0x0                   	// #0
   8231c:	d5184000 	msr	spsr_el1, x0
   82320:	f9401fe0 	ldr	x0, [sp, #56]
   82324:	d5184020 	msr	elr_el1, x0
   82328:	d503201f 	nop
   8232c:	f9400be0 	ldr	x0, [sp, #16]
   82330:	f100001f 	cmp	x0, #0x0
   82334:	54000060 	b.eq	82340 <_ZN8valkyrie6kernel16ExceptionManager25downgrade_exception_levelEhPvS2_S2_+0xcc>  // b.none
   82338:	f9400be0 	ldr	x0, [sp, #16]
   8233c:	9100001f 	mov	sp, x0
   82340:	d69f03e0 	eret
   82344:	14000002 	b	8234c <_ZN8valkyrie6kernel16ExceptionManager25downgrade_exception_levelEhPvS2_S2_+0xd8>
   82348:	d503201f 	nop
   8234c:	910103ff 	add	sp, sp, #0x40
   82350:	d65f03c0 	ret

0000000000082354 <_ZN8valkyrie6kernel16ExceptionManager21get_current_exceptionEv>:
   82354:	d100c3ff 	sub	sp, sp, #0x30
   82358:	f90007e0 	str	x0, [sp, #8]
   8235c:	d5384020 	mrs	x0, elr_el1
   82360:	f90013e0 	str	x0, [sp, #32]
   82364:	d5385200 	mrs	x0, esr_el1
   82368:	b9002fe0 	str	w0, [sp, #44]
   8236c:	b9402fe0 	ldr	w0, [sp, #44]
   82370:	531a7c00 	lsr	w0, w0, #26
   82374:	12001c00 	and	w0, w0, #0xff
   82378:	390063e0 	strb	w0, [sp, #24]
   8237c:	b9402fe0 	ldr	w0, [sp, #44]
   82380:	12006000 	and	w0, w0, #0x1ffffff
   82384:	b9001fe0 	str	w0, [sp, #28]
   82388:	a94187e0 	ldp	x0, x1, [sp, #24]
   8238c:	9100c3ff 	add	sp, sp, #0x30
   82390:	d65f03c0 	ret

0000000000082394 <_ZN8valkyrie6kernel4idleEv>:
   82394:	a9be7bfd 	stp	x29, x30, [sp, #-32]!
   82398:	910003fd 	mov	x29, sp
   8239c:	9400147d 	bl	87590 <_ZN8valkyrie6kernel13TaskScheduler12get_instanceEv>
   823a0:	f9000fe0 	str	x0, [sp, #24]
   823a4:	f9400fe0 	ldr	x0, [sp, #24]
   823a8:	9400158f 	bl	879e4 <_ZN8valkyrie6kernel13TaskScheduler12reap_zombiesEv>
   823ac:	f9400fe0 	ldr	x0, [sp, #24]
   823b0:	9400153d 	bl	878a4 <_ZN8valkyrie6kernel13TaskScheduler8scheduleEv>
   823b4:	17fffffc 	b	823a4 <_ZN8valkyrie6kernel4idleEv+0x10>

00000000000823b8 <_ZN8valkyrie6kernel9Initramfs12get_instanceEv>:
   823b8:	a9bf7bfd 	stp	x29, x30, [sp, #-16]!
   823bc:	910003fd 	mov	x29, sp
   823c0:	b0000080 	adrp	x0, 93000 <_ZTVN8valkyrie6kernel8FunctionIFbRNS0_9UniquePtrINS0_4TaskEEEEE12CallableImplIZNS0_13TaskScheduler11remove_taskERKS3_EUlRT_E_EE+0x18>
   823c4:	9104c000 	add	x0, x0, #0x130
   823c8:	f9400000 	ldr	x0, [x0]
   823cc:	92400000 	and	x0, x0, #0x1
   823d0:	f100001f 	cmp	x0, #0x0
   823d4:	54000101 	b.ne	823f4 <_ZN8valkyrie6kernel9Initramfs12get_instanceEv+0x3c>  // b.any
   823d8:	b0000080 	adrp	x0, 93000 <_ZTVN8valkyrie6kernel8FunctionIFbRNS0_9UniquePtrINS0_4TaskEEEEE12CallableImplIZNS0_13TaskScheduler11remove_taskERKS3_EUlRT_E_EE+0x18>
   823dc:	9104a000 	add	x0, x0, #0x128
   823e0:	94000009 	bl	82404 <_ZN8valkyrie6kernel9InitramfsC1Ev>
   823e4:	b0000080 	adrp	x0, 93000 <_ZTVN8valkyrie6kernel8FunctionIFbRNS0_9UniquePtrINS0_4TaskEEEEE12CallableImplIZNS0_13TaskScheduler11remove_taskERKS3_EUlRT_E_EE+0x18>
   823e8:	9104c000 	add	x0, x0, #0x130
   823ec:	d2800021 	mov	x1, #0x1                   	// #1
   823f0:	f9000001 	str	x1, [x0]
   823f4:	b0000080 	adrp	x0, 93000 <_ZTVN8valkyrie6kernel8FunctionIFbRNS0_9UniquePtrINS0_4TaskEEEEE12CallableImplIZNS0_13TaskScheduler11remove_taskERKS3_EUlRT_E_EE+0x18>
   823f8:	9104a000 	add	x0, x0, #0x128
   823fc:	a8c17bfd 	ldp	x29, x30, [sp], #16
   82400:	d65f03c0 	ret

0000000000082404 <_ZN8valkyrie6kernel9InitramfsC1Ev>:
   82404:	a9be7bfd 	stp	x29, x30, [sp, #-32]!
   82408:	910003fd 	mov	x29, sp
   8240c:	f9000fe0 	str	x0, [sp, #24]
   82410:	f9400fe0 	ldr	x0, [sp, #24]
   82414:	d2a10001 	mov	x1, #0x8000000             	// #134217728
   82418:	97fff7f0 	bl	803d8 <_ZN8valkyrie6kernel11CPIOArchiveC1Em>
   8241c:	d503201f 	nop
   82420:	a8c27bfd 	ldp	x29, x30, [sp], #32
   82424:	d65f03c0 	ret

0000000000082428 <_ZNK8valkyrie6kernel9Initramfs4readEPKc>:
   82428:	a9be7bfd 	stp	x29, x30, [sp, #-32]!
   8242c:	910003fd 	mov	x29, sp
   82430:	f9000fe0 	str	x0, [sp, #24]
   82434:	f9000be1 	str	x1, [sp, #16]
   82438:	f9400fe0 	ldr	x0, [sp, #24]
   8243c:	f9400be1 	ldr	x1, [sp, #16]
   82440:	97fff7ef 	bl	803fc <_ZNK8valkyrie6kernel11CPIOArchive26get_entry_content_and_sizeEPKc>
   82444:	a8c27bfd 	ldp	x29, x30, [sp], #32
   82448:	d65f03c0 	ret

000000000008244c <_ZN8valkyrie6kernel6Kernel12get_instanceEv>:
   8244c:	a9bf7bfd 	stp	x29, x30, [sp, #-16]!
   82450:	910003fd 	mov	x29, sp
   82454:	b0000080 	adrp	x0, 93000 <_ZTVN8valkyrie6kernel8FunctionIFbRNS0_9UniquePtrINS0_4TaskEEEEE12CallableImplIZNS0_13TaskScheduler11remove_taskERKS3_EUlRT_E_EE+0x18>
   82458:	9105c000 	add	x0, x0, #0x170
   8245c:	f9400000 	ldr	x0, [x0]
   82460:	92400000 	and	x0, x0, #0x1
   82464:	f100001f 	cmp	x0, #0x0
   82468:	54000101 	b.ne	82488 <_ZN8valkyrie6kernel6Kernel12get_instanceEv+0x3c>  // b.any
   8246c:	b0000080 	adrp	x0, 93000 <_ZTVN8valkyrie6kernel8FunctionIFbRNS0_9UniquePtrINS0_4TaskEEEEE12CallableImplIZNS0_13TaskScheduler11remove_taskERKS3_EUlRT_E_EE+0x18>
   82470:	9104e000 	add	x0, x0, #0x138
   82474:	94000009 	bl	82498 <_ZN8valkyrie6kernel6KernelC1Ev>
   82478:	b0000080 	adrp	x0, 93000 <_ZTVN8valkyrie6kernel8FunctionIFbRNS0_9UniquePtrINS0_4TaskEEEEE12CallableImplIZNS0_13TaskScheduler11remove_taskERKS3_EUlRT_E_EE+0x18>
   8247c:	9105c000 	add	x0, x0, #0x170
   82480:	d2800021 	mov	x1, #0x1                   	// #1
   82484:	f9000001 	str	x1, [x0]
   82488:	b0000080 	adrp	x0, 93000 <_ZTVN8valkyrie6kernel8FunctionIFbRNS0_9UniquePtrINS0_4TaskEEEEE12CallableImplIZNS0_13TaskScheduler11remove_taskERKS3_EUlRT_E_EE+0x18>
   8248c:	9104e000 	add	x0, x0, #0x138
   82490:	a8c17bfd 	ldp	x29, x30, [sp], #16
   82494:	d65f03c0 	ret

0000000000082498 <_ZN8valkyrie6kernel6KernelC1Ev>:
   82498:	a9be7bfd 	stp	x29, x30, [sp, #-32]!
   8249c:	910003fd 	mov	x29, sp
   824a0:	f9000fe0 	str	x0, [sp, #24]
   824a4:	94000089 	bl	826c8 <_ZN8valkyrie6kernel7Mailbox12get_instanceEv>
   824a8:	aa0003e1 	mov	x1, x0
   824ac:	f9400fe0 	ldr	x0, [sp, #24]
   824b0:	f9000001 	str	x1, [x0]
   824b4:	94000275 	bl	82e88 <_ZN8valkyrie6kernel8MiniUART12get_instanceEv>
   824b8:	aa0003e1 	mov	x1, x0
   824bc:	f9400fe0 	ldr	x0, [sp, #24]
   824c0:	f9000401 	str	x1, [x0, #8]
   824c4:	940001c9 	bl	82be8 <_ZN8valkyrie6kernel13MemoryManager12get_instanceEv>
   824c8:	aa0003e1 	mov	x1, x0
   824cc:	f9400fe0 	ldr	x0, [sp, #24]
   824d0:	f9000801 	str	x1, [x0, #16]
   824d4:	97fffeac 	bl	81f84 <_ZN8valkyrie6kernel16ExceptionManager12get_instanceEv>
   824d8:	aa0003e1 	mov	x1, x0
   824dc:	f9400fe0 	ldr	x0, [sp, #24]
   824e0:	f9000c01 	str	x1, [x0, #24]
   824e4:	9400169b 	bl	87f50 <_ZN8valkyrie6kernel16TimerMultiplexer12get_instanceEv>
   824e8:	aa0003e1 	mov	x1, x0
   824ec:	f9400fe0 	ldr	x0, [sp, #24]
   824f0:	f9001001 	str	x1, [x0, #32]
   824f4:	94001427 	bl	87590 <_ZN8valkyrie6kernel13TaskScheduler12get_instanceEv>
   824f8:	aa0003e1 	mov	x1, x0
   824fc:	f9400fe0 	ldr	x0, [sp, #24]
   82500:	f9001401 	str	x1, [x0, #40]
   82504:	97ffffad 	bl	823b8 <_ZN8valkyrie6kernel9Initramfs12get_instanceEv>
   82508:	aa0003e1 	mov	x1, x0
   8250c:	f9400fe0 	ldr	x0, [sp, #24]
   82510:	f9001801 	str	x1, [x0, #48]
   82514:	d503201f 	nop
   82518:	a8c27bfd 	ldp	x29, x30, [sp], #32
   8251c:	d65f03c0 	ret

0000000000082520 <_ZN8valkyrie6kernel6Kernel3runEv>:
   82520:	a9be7bfd 	stp	x29, x30, [sp, #-32]!
   82524:	910003fd 	mov	x29, sp
   82528:	f9000fe0 	str	x0, [sp, #24]
   8252c:	f9400fe0 	ldr	x0, [sp, #24]
   82530:	94000016 	bl	82588 <_ZN8valkyrie6kernel6Kernel12print_bannerEv>
   82534:	f9400fe0 	ldr	x0, [sp, #24]
   82538:	94000029 	bl	825dc <_ZN8valkyrie6kernel6Kernel19print_hardware_infoEv>
   8253c:	d0000020 	adrp	x0, 88000 <_ZN8valkyrie6kernel16TimerMultiplexer4tickEv+0x18>
   82540:	9138a000 	add	x0, x0, #0xe28
   82544:	94002e75 	bl	8df18 <_Z6printkIJEEvPKcDpOT_>
   82548:	f9400fe0 	ldr	x0, [sp, #24]
   8254c:	f9400c00 	ldr	x0, [x0, #24]
   82550:	d2800004 	mov	x4, #0x0                   	// #0
   82554:	d2800003 	mov	x3, #0x0                   	// #0
   82558:	d2800002 	mov	x2, #0x0                   	// #0
   8255c:	52800021 	mov	w1, #0x1                   	// #1
   82560:	97ffff45 	bl	82274 <_ZN8valkyrie6kernel16ExceptionManager25downgrade_exception_levelEhPvS2_S2_>
   82564:	d0000020 	adrp	x0, 88000 <_ZN8valkyrie6kernel16TimerMultiplexer4tickEv+0x18>
   82568:	91396000 	add	x0, x0, #0xe58
   8256c:	94002e6b 	bl	8df18 <_Z6printkIJEEvPKcDpOT_>
   82570:	f9400fe0 	ldr	x0, [sp, #24]
   82574:	f9401400 	ldr	x0, [x0, #40]
   82578:	9400142b 	bl	87624 <_ZN8valkyrie6kernel13TaskScheduler3runEv>
   8257c:	d0000020 	adrp	x0, 88000 <_ZN8valkyrie6kernel16TimerMultiplexer4tickEv+0x18>
   82580:	9139e000 	add	x0, x0, #0xe78
   82584:	94002e06 	bl	8dd9c <_ZN8valkyrie6kernel6Kernel5panicIJEEEvPKcDpOT_>

0000000000082588 <_ZN8valkyrie6kernel6Kernel12print_bannerEv>:
   82588:	a9be7bfd 	stp	x29, x30, [sp, #-32]!
   8258c:	910003fd 	mov	x29, sp
   82590:	f9000fe0 	str	x0, [sp, #24]
   82594:	52800021 	mov	w1, #0x1                   	// #1
   82598:	52800040 	mov	w0, #0x2                   	// #2
   8259c:	97fff74c 	bl	802cc <_ZN8valkyrie6kernel7console9set_colorENS1_5ColorEb>
   825a0:	52800021 	mov	w1, #0x1                   	// #1
   825a4:	d0000020 	adrp	x0, 88000 <_ZN8valkyrie6kernel16TimerMultiplexer4tickEv+0x18>
   825a8:	913a8000 	add	x0, x0, #0xea0
   825ac:	97fff77e 	bl	803a4 <puts>
   825b0:	52800021 	mov	w1, #0x1                   	// #1
   825b4:	52800060 	mov	w0, #0x3                   	// #3
   825b8:	97fff745 	bl	802cc <_ZN8valkyrie6kernel7console9set_colorENS1_5ColorEb>
   825bc:	52800021 	mov	w1, #0x1                   	// #1
   825c0:	d0000020 	adrp	x0, 88000 <_ZN8valkyrie6kernel16TimerMultiplexer4tickEv+0x18>
   825c4:	913ae000 	add	x0, x0, #0xeb8
   825c8:	97fff777 	bl	803a4 <puts>
   825cc:	97fff74e 	bl	80304 <_ZN8valkyrie6kernel7console11clear_colorEv>
   825d0:	d503201f 	nop
   825d4:	a8c27bfd 	ldp	x29, x30, [sp], #32
   825d8:	d65f03c0 	ret

00000000000825dc <_ZN8valkyrie6kernel6Kernel19print_hardware_infoEv>:
   825dc:	a9bc7bfd 	stp	x29, x30, [sp, #-64]!
   825e0:	910003fd 	mov	x29, sp
   825e4:	f9000fe0 	str	x0, [sp, #24]
   825e8:	f9400fe0 	ldr	x0, [sp, #24]
   825ec:	f9400000 	ldr	x0, [x0]
   825f0:	9400007c 	bl	827e0 <_ZN8valkyrie6kernel7Mailbox18get_board_revisionEv>
   825f4:	b9003fe0 	str	w0, [sp, #60]
   825f8:	f9400fe0 	ldr	x0, [sp, #24]
   825fc:	f9400000 	ldr	x0, [x0]
   82600:	94000093 	bl	8284c <_ZN8valkyrie6kernel7Mailbox14get_arm_memoryEv>
   82604:	f9001be0 	str	x0, [sp, #48]
   82608:	f9400fe0 	ldr	x0, [sp, #24]
   8260c:	f9400000 	ldr	x0, [x0]
   82610:	940000b3 	bl	828dc <_ZN8valkyrie6kernel7Mailbox13get_vc_memoryEv>
   82614:	f90017e0 	str	x0, [sp, #40]
   82618:	9100f3e0 	add	x0, sp, #0x3c
   8261c:	aa0003e1 	mov	x1, x0
   82620:	d0000020 	adrp	x0, 88000 <_ZN8valkyrie6kernel16TimerMultiplexer4tickEv+0x18>
   82624:	913bc000 	add	x0, x0, #0xef0
   82628:	94003099 	bl	8e88c <_Z6printkIJRKjEEvPKcDpOT_>
   8262c:	9100c3e0 	add	x0, sp, #0x30
   82630:	91001000 	add	x0, x0, #0x4
   82634:	aa0003e1 	mov	x1, x0
   82638:	d0000020 	adrp	x0, 88000 <_ZN8valkyrie6kernel16TimerMultiplexer4tickEv+0x18>
   8263c:	913c8000 	add	x0, x0, #0xf20
   82640:	94003093 	bl	8e88c <_Z6printkIJRKjEEvPKcDpOT_>
   82644:	9100a3e0 	add	x0, sp, #0x28
   82648:	aa0003e1 	mov	x1, x0
   8264c:	d0000020 	adrp	x0, 88000 <_ZN8valkyrie6kernel16TimerMultiplexer4tickEv+0x18>
   82650:	913ce000 	add	x0, x0, #0xf38
   82654:	9400308e 	bl	8e88c <_Z6printkIJRKjEEvPKcDpOT_>
   82658:	9100a3e0 	add	x0, sp, #0x28
   8265c:	91001000 	add	x0, x0, #0x4
   82660:	aa0003e1 	mov	x1, x0
   82664:	d0000020 	adrp	x0, 88000 <_ZN8valkyrie6kernel16TimerMultiplexer4tickEv+0x18>
   82668:	913d6000 	add	x0, x0, #0xf58
   8266c:	94003088 	bl	8e88c <_Z6printkIJRKjEEvPKcDpOT_>
   82670:	d503201f 	nop
   82674:	a8c47bfd 	ldp	x29, x30, [sp], #64
   82678:	d65f03c0 	ret

000000000008267c <kmain>:
   8267c:	a9be7bfd 	stp	x29, x30, [sp, #-32]!
   82680:	910003fd 	mov	x29, sp
   82684:	90000080 	adrp	x0, 92000 <_Z6printkIJPKN8valkyrie6kernel8FunctionIFvvEEEEEvPKcDpOT_+0x18>
   82688:	f947a000 	ldr	x0, [x0, #3904]
   8268c:	f9000fe0 	str	x0, [sp, #24]
   82690:	f9400fe1 	ldr	x1, [sp, #24]
   82694:	90000080 	adrp	x0, 92000 <_Z6printkIJPKN8valkyrie6kernel8FunctionIFvvEEEEEvPKcDpOT_+0x18>
   82698:	f947ac00 	ldr	x0, [x0, #3928]
   8269c:	eb00003f 	cmp	x1, x0
   826a0:	54000100 	b.eq	826c0 <kmain+0x44>  // b.none
   826a4:	f9400fe0 	ldr	x0, [sp, #24]
   826a8:	f9400000 	ldr	x0, [x0]
   826ac:	d63f0000 	blr	x0
   826b0:	f9400fe0 	ldr	x0, [sp, #24]
   826b4:	91002000 	add	x0, x0, #0x8
   826b8:	f9000fe0 	str	x0, [sp, #24]
   826bc:	17fffff5 	b	82690 <kmain+0x14>
   826c0:	97ffff63 	bl	8244c <_ZN8valkyrie6kernel6Kernel12get_instanceEv>
   826c4:	97ffff97 	bl	82520 <_ZN8valkyrie6kernel6Kernel3runEv>

00000000000826c8 <_ZN8valkyrie6kernel7Mailbox12get_instanceEv>:
   826c8:	a9bf7bfd 	stp	x29, x30, [sp, #-16]!
   826cc:	910003fd 	mov	x29, sp
   826d0:	b0000080 	adrp	x0, 93000 <_ZTVN8valkyrie6kernel8FunctionIFbRNS0_9UniquePtrINS0_4TaskEEEEE12CallableImplIZNS0_13TaskScheduler11remove_taskERKS3_EUlRT_E_EE+0x18>
   826d4:	91068000 	add	x0, x0, #0x1a0
   826d8:	f9400000 	ldr	x0, [x0]
   826dc:	92400000 	and	x0, x0, #0x1
   826e0:	f100001f 	cmp	x0, #0x0
   826e4:	54000101 	b.ne	82704 <_ZN8valkyrie6kernel7Mailbox12get_instanceEv+0x3c>  // b.any
   826e8:	b0000080 	adrp	x0, 93000 <_ZTVN8valkyrie6kernel8FunctionIFbRNS0_9UniquePtrINS0_4TaskEEEEE12CallableImplIZNS0_13TaskScheduler11remove_taskERKS3_EUlRT_E_EE+0x18>
   826ec:	91060000 	add	x0, x0, #0x180
   826f0:	94000009 	bl	82714 <_ZN8valkyrie6kernel7MailboxC1Ev>
   826f4:	b0000080 	adrp	x0, 93000 <_ZTVN8valkyrie6kernel8FunctionIFbRNS0_9UniquePtrINS0_4TaskEEEEE12CallableImplIZNS0_13TaskScheduler11remove_taskERKS3_EUlRT_E_EE+0x18>
   826f8:	91068000 	add	x0, x0, #0x1a0
   826fc:	d2800021 	mov	x1, #0x1                   	// #1
   82700:	f9000001 	str	x1, [x0]
   82704:	b0000080 	adrp	x0, 93000 <_ZTVN8valkyrie6kernel8FunctionIFbRNS0_9UniquePtrINS0_4TaskEEEEE12CallableImplIZNS0_13TaskScheduler11remove_taskERKS3_EUlRT_E_EE+0x18>
   82708:	91060000 	add	x0, x0, #0x180
   8270c:	a8c17bfd 	ldp	x29, x30, [sp], #16
   82710:	d65f03c0 	ret

0000000000082714 <_ZN8valkyrie6kernel7MailboxC1Ev>:
   82714:	d10043ff 	sub	sp, sp, #0x10
   82718:	f90007e0 	str	x0, [sp, #8]
   8271c:	f94007e0 	ldr	x0, [sp, #8]
   82720:	b900001f 	str	wzr, [x0]
   82724:	f94007e0 	ldr	x0, [sp, #8]
   82728:	b900041f 	str	wzr, [x0, #4]
   8272c:	f94007e0 	ldr	x0, [sp, #8]
   82730:	b900081f 	str	wzr, [x0, #8]
   82734:	f94007e0 	ldr	x0, [sp, #8]
   82738:	b9000c1f 	str	wzr, [x0, #12]
   8273c:	f94007e0 	ldr	x0, [sp, #8]
   82740:	b900101f 	str	wzr, [x0, #16]
   82744:	d2800000 	mov	x0, #0x0                   	// #0
   82748:	f94007e2 	ldr	x2, [sp, #8]
   8274c:	91001001 	add	x1, x0, #0x4
   82750:	d37ef421 	lsl	x1, x1, #2
   82754:	8b010041 	add	x1, x2, x1
   82758:	b900043f 	str	wzr, [x1, #4]
   8275c:	f100081f 	cmp	x0, #0x2
   82760:	54000060 	b.eq	8276c <_ZN8valkyrie6kernel7MailboxC1Ev+0x58>  // b.none
   82764:	91000400 	add	x0, x0, #0x1
   82768:	17fffff8 	b	82748 <_ZN8valkyrie6kernel7MailboxC1Ev+0x34>
   8276c:	d503201f 	nop
   82770:	910043ff 	add	sp, sp, #0x10
   82774:	d65f03c0 	ret

0000000000082778 <_ZN8valkyrie6kernel7Mailbox15get_board_modelEv>:
   82778:	a9be7bfd 	stp	x29, x30, [sp, #-32]!
   8277c:	910003fd 	mov	x29, sp
   82780:	f9000fe0 	str	x0, [sp, #24]
   82784:	f9400fe0 	ldr	x0, [sp, #24]
   82788:	52800381 	mov	w1, #0x1c                  	// #28
   8278c:	b9000001 	str	w1, [x0]
   82790:	f9400fe0 	ldr	x0, [sp, #24]
   82794:	b900041f 	str	wzr, [x0, #4]
   82798:	f9400fe0 	ldr	x0, [sp, #24]
   8279c:	320083e1 	mov	w1, #0x10001               	// #65537
   827a0:	b9000801 	str	w1, [x0, #8]
   827a4:	f9400fe0 	ldr	x0, [sp, #24]
   827a8:	52800081 	mov	w1, #0x4                   	// #4
   827ac:	b9000c01 	str	w1, [x0, #12]
   827b0:	f9400fe0 	ldr	x0, [sp, #24]
   827b4:	b900101f 	str	wzr, [x0, #16]
   827b8:	f9400fe0 	ldr	x0, [sp, #24]
   827bc:	b900141f 	str	wzr, [x0, #20]
   827c0:	f9400fe0 	ldr	x0, [sp, #24]
   827c4:	b900181f 	str	wzr, [x0, #24]
   827c8:	f9400fe0 	ldr	x0, [sp, #24]
   827cc:	94000068 	bl	8296c <_ZN8valkyrie6kernel7Mailbox4callEv>
   827d0:	f9400fe0 	ldr	x0, [sp, #24]
   827d4:	b9401400 	ldr	w0, [x0, #20]
   827d8:	a8c27bfd 	ldp	x29, x30, [sp], #32
   827dc:	d65f03c0 	ret

00000000000827e0 <_ZN8valkyrie6kernel7Mailbox18get_board_revisionEv>:
   827e0:	a9be7bfd 	stp	x29, x30, [sp, #-32]!
   827e4:	910003fd 	mov	x29, sp
   827e8:	f9000fe0 	str	x0, [sp, #24]
   827ec:	f9400fe0 	ldr	x0, [sp, #24]
   827f0:	52800381 	mov	w1, #0x1c                  	// #28
   827f4:	b9000001 	str	w1, [x0]
   827f8:	f9400fe0 	ldr	x0, [sp, #24]
   827fc:	b900041f 	str	wzr, [x0, #4]
   82800:	f9400fe0 	ldr	x0, [sp, #24]
   82804:	52800041 	mov	w1, #0x2                   	// #2
   82808:	72a00021 	movk	w1, #0x1, lsl #16
   8280c:	b9000801 	str	w1, [x0, #8]
   82810:	f9400fe0 	ldr	x0, [sp, #24]
   82814:	52800081 	mov	w1, #0x4                   	// #4
   82818:	b9000c01 	str	w1, [x0, #12]
   8281c:	f9400fe0 	ldr	x0, [sp, #24]
   82820:	b900101f 	str	wzr, [x0, #16]
   82824:	f9400fe0 	ldr	x0, [sp, #24]
   82828:	b900141f 	str	wzr, [x0, #20]
   8282c:	f9400fe0 	ldr	x0, [sp, #24]
   82830:	b900181f 	str	wzr, [x0, #24]
   82834:	f9400fe0 	ldr	x0, [sp, #24]
   82838:	9400004d 	bl	8296c <_ZN8valkyrie6kernel7Mailbox4callEv>
   8283c:	f9400fe0 	ldr	x0, [sp, #24]
   82840:	b9401400 	ldr	w0, [x0, #20]
   82844:	a8c27bfd 	ldp	x29, x30, [sp], #32
   82848:	d65f03c0 	ret

000000000008284c <_ZN8valkyrie6kernel7Mailbox14get_arm_memoryEv>:
   8284c:	a9bd7bfd 	stp	x29, x30, [sp, #-48]!
   82850:	910003fd 	mov	x29, sp
   82854:	f9000bf3 	str	x19, [sp, #16]
   82858:	f90017e0 	str	x0, [sp, #40]
   8285c:	f94017e0 	ldr	x0, [sp, #40]
   82860:	52800401 	mov	w1, #0x20                  	// #32
   82864:	b9000001 	str	w1, [x0]
   82868:	f94017e0 	ldr	x0, [sp, #40]
   8286c:	b900041f 	str	wzr, [x0, #4]
   82870:	f94017e0 	ldr	x0, [sp, #40]
   82874:	528000a1 	mov	w1, #0x5                   	// #5
   82878:	72a00021 	movk	w1, #0x1, lsl #16
   8287c:	b9000801 	str	w1, [x0, #8]
   82880:	f94017e0 	ldr	x0, [sp, #40]
   82884:	52800101 	mov	w1, #0x8                   	// #8
   82888:	b9000c01 	str	w1, [x0, #12]
   8288c:	f94017e0 	ldr	x0, [sp, #40]
   82890:	b900101f 	str	wzr, [x0, #16]
   82894:	f94017e0 	ldr	x0, [sp, #40]
   82898:	b900141f 	str	wzr, [x0, #20]
   8289c:	f94017e0 	ldr	x0, [sp, #40]
   828a0:	b900181f 	str	wzr, [x0, #24]
   828a4:	f94017e0 	ldr	x0, [sp, #40]
   828a8:	b9001c1f 	str	wzr, [x0, #28]
   828ac:	f94017e0 	ldr	x0, [sp, #40]
   828b0:	9400002f 	bl	8296c <_ZN8valkyrie6kernel7Mailbox4callEv>
   828b4:	f94017e0 	ldr	x0, [sp, #40]
   828b8:	b9401400 	ldr	w0, [x0, #20]
   828bc:	b3407c13 	bfxil	x19, x0, #0, #32
   828c0:	f94017e0 	ldr	x0, [sp, #40]
   828c4:	b9401800 	ldr	w0, [x0, #24]
   828c8:	b3607c13 	bfi	x19, x0, #32, #32
   828cc:	aa1303e0 	mov	x0, x19
   828d0:	f9400bf3 	ldr	x19, [sp, #16]
   828d4:	a8c37bfd 	ldp	x29, x30, [sp], #48
   828d8:	d65f03c0 	ret

00000000000828dc <_ZN8valkyrie6kernel7Mailbox13get_vc_memoryEv>:
   828dc:	a9bd7bfd 	stp	x29, x30, [sp, #-48]!
   828e0:	910003fd 	mov	x29, sp
   828e4:	f9000bf3 	str	x19, [sp, #16]
   828e8:	f90017e0 	str	x0, [sp, #40]
   828ec:	f94017e0 	ldr	x0, [sp, #40]
   828f0:	52800401 	mov	w1, #0x20                  	// #32
   828f4:	b9000001 	str	w1, [x0]
   828f8:	f94017e0 	ldr	x0, [sp, #40]
   828fc:	b900041f 	str	wzr, [x0, #4]
   82900:	f94017e0 	ldr	x0, [sp, #40]
   82904:	528000c1 	mov	w1, #0x6                   	// #6
   82908:	72a00021 	movk	w1, #0x1, lsl #16
   8290c:	b9000801 	str	w1, [x0, #8]
   82910:	f94017e0 	ldr	x0, [sp, #40]
   82914:	52800101 	mov	w1, #0x8                   	// #8
   82918:	b9000c01 	str	w1, [x0, #12]
   8291c:	f94017e0 	ldr	x0, [sp, #40]
   82920:	b900101f 	str	wzr, [x0, #16]
   82924:	f94017e0 	ldr	x0, [sp, #40]
   82928:	b900141f 	str	wzr, [x0, #20]
   8292c:	f94017e0 	ldr	x0, [sp, #40]
   82930:	b900181f 	str	wzr, [x0, #24]
   82934:	f94017e0 	ldr	x0, [sp, #40]
   82938:	b9001c1f 	str	wzr, [x0, #28]
   8293c:	f94017e0 	ldr	x0, [sp, #40]
   82940:	9400000b 	bl	8296c <_ZN8valkyrie6kernel7Mailbox4callEv>
   82944:	f94017e0 	ldr	x0, [sp, #40]
   82948:	b9401400 	ldr	w0, [x0, #20]
   8294c:	b3407c13 	bfxil	x19, x0, #0, #32
   82950:	f94017e0 	ldr	x0, [sp, #40]
   82954:	b9401800 	ldr	w0, [x0, #24]
   82958:	b3607c13 	bfi	x19, x0, #32, #32
   8295c:	aa1303e0 	mov	x0, x19
   82960:	f9400bf3 	ldr	x19, [sp, #16]
   82964:	a8c37bfd 	ldp	x29, x30, [sp], #48
   82968:	d65f03c0 	ret

000000000008296c <_ZN8valkyrie6kernel7Mailbox4callEv>:
   8296c:	a9bd7bfd 	stp	x29, x30, [sp, #-48]!
   82970:	910003fd 	mov	x29, sp
   82974:	f9000fe0 	str	x0, [sp, #24]
   82978:	f9400fe0 	ldr	x0, [sp, #24]
   8297c:	121c6c00 	and	w0, w0, #0xfffffff0
   82980:	321d0000 	orr	w0, w0, #0x8
   82984:	b9002fe0 	str	w0, [sp, #44]
   82988:	d2971300 	mov	x0, #0xb898                	// #47256
   8298c:	f2a7e000 	movk	x0, #0x3f00, lsl #16
   82990:	94003199 	bl	8eff4 <_ZN8valkyrie6kernel2io3getIjEET_m>
   82994:	531f7c00 	lsr	w0, w0, #31
   82998:	12001c00 	and	w0, w0, #0xff
   8299c:	7100001f 	cmp	w0, #0x0
   829a0:	54000040 	b.eq	829a8 <_ZN8valkyrie6kernel7Mailbox4callEv+0x3c>  // b.none
   829a4:	17fffff9 	b	82988 <_ZN8valkyrie6kernel7Mailbox4callEv+0x1c>
   829a8:	b9402fe1 	ldr	w1, [sp, #44]
   829ac:	d2971400 	mov	x0, #0xb8a0                	// #47264
   829b0:	f2a7e000 	movk	x0, #0x3f00, lsl #16
   829b4:	94003196 	bl	8f00c <_ZN8valkyrie6kernel2io3putIjEEvmT_>
   829b8:	d2971300 	mov	x0, #0xb898                	// #47256
   829bc:	f2a7e000 	movk	x0, #0x3f00, lsl #16
   829c0:	9400318d 	bl	8eff4 <_ZN8valkyrie6kernel2io3getIjEET_m>
   829c4:	12020000 	and	w0, w0, #0x40000000
   829c8:	7100001f 	cmp	w0, #0x0
   829cc:	1a9f07e0 	cset	w0, ne  // ne = any
   829d0:	12001c00 	and	w0, w0, #0xff
   829d4:	7100001f 	cmp	w0, #0x0
   829d8:	54000040 	b.eq	829e0 <_ZN8valkyrie6kernel7Mailbox4callEv+0x74>  // b.none
   829dc:	17fffff7 	b	829b8 <_ZN8valkyrie6kernel7Mailbox4callEv+0x4c>
   829e0:	d2971000 	mov	x0, #0xb880                	// #47232
   829e4:	f2a7e000 	movk	x0, #0x3f00, lsl #16
   829e8:	94003183 	bl	8eff4 <_ZN8valkyrie6kernel2io3getIjEET_m>
   829ec:	2a0003e1 	mov	w1, w0
   829f0:	b9402fe0 	ldr	w0, [sp, #44]
   829f4:	6b01001f 	cmp	w0, w1
   829f8:	1a9f07e0 	cset	w0, ne  // ne = any
   829fc:	12001c00 	and	w0, w0, #0xff
   82a00:	7100001f 	cmp	w0, #0x0
   82a04:	54000040 	b.eq	82a0c <_ZN8valkyrie6kernel7Mailbox4callEv+0xa0>  // b.none
   82a08:	17fffff6 	b	829e0 <_ZN8valkyrie6kernel7Mailbox4callEv+0x74>
   82a0c:	d503201f 	nop
   82a10:	a8c37bfd 	ldp	x29, x30, [sp], #48
   82a14:	d65f03c0 	ret

0000000000082a18 <_ZN8valkyrie6kernel3powEii>:
   82a18:	d10083ff 	sub	sp, sp, #0x20
   82a1c:	b9000fe0 	str	w0, [sp, #12]
   82a20:	b9000be1 	str	w1, [sp, #8]
   82a24:	52800020 	mov	w0, #0x1                   	// #1
   82a28:	b9001fe0 	str	w0, [sp, #28]
   82a2c:	b9400be0 	ldr	w0, [sp, #8]
   82a30:	51000401 	sub	w1, w0, #0x1
   82a34:	b9000be1 	str	w1, [sp, #8]
   82a38:	7100001f 	cmp	w0, #0x0
   82a3c:	1a9fd7e0 	cset	w0, gt
   82a40:	12001c00 	and	w0, w0, #0xff
   82a44:	7100001f 	cmp	w0, #0x0
   82a48:	540000c0 	b.eq	82a60 <_ZN8valkyrie6kernel3powEii+0x48>  // b.none
   82a4c:	b9401fe1 	ldr	w1, [sp, #28]
   82a50:	b9400fe0 	ldr	w0, [sp, #12]
   82a54:	1b007c20 	mul	w0, w1, w0
   82a58:	b9001fe0 	str	w0, [sp, #28]
   82a5c:	17fffff4 	b	82a2c <_ZN8valkyrie6kernel3powEii+0x14>
   82a60:	b9401fe0 	ldr	w0, [sp, #28]
   82a64:	910083ff 	add	sp, sp, #0x20
   82a68:	d65f03c0 	ret

0000000000082a6c <_ZN8valkyrie6kernel4sqrtEi>:
   82a6c:	d10083ff 	sub	sp, sp, #0x20
   82a70:	b9000fe0 	str	w0, [sp, #12]
   82a74:	52800020 	mov	w0, #0x1                   	// #1
   82a78:	b9001fe0 	str	w0, [sp, #28]
   82a7c:	b9400fe0 	ldr	w0, [sp, #12]
   82a80:	b9001be0 	str	w0, [sp, #24]
   82a84:	b9401fe1 	ldr	w1, [sp, #28]
   82a88:	b9401be0 	ldr	w0, [sp, #24]
   82a8c:	6b00003f 	cmp	w1, w0
   82a90:	5400042c 	b.gt	82b14 <_ZN8valkyrie6kernel4sqrtEi+0xa8>
   82a94:	b9401be1 	ldr	w1, [sp, #24]
   82a98:	b9401fe0 	ldr	w0, [sp, #28]
   82a9c:	4b000020 	sub	w0, w1, w0
   82aa0:	531f7c01 	lsr	w1, w0, #31
   82aa4:	0b000020 	add	w0, w1, w0
   82aa8:	13017c00 	asr	w0, w0, #1
   82aac:	2a0003e1 	mov	w1, w0
   82ab0:	b9401fe0 	ldr	w0, [sp, #28]
   82ab4:	0b010000 	add	w0, w0, w1
   82ab8:	b90017e0 	str	w0, [sp, #20]
   82abc:	b9400fe1 	ldr	w1, [sp, #12]
   82ac0:	b94017e0 	ldr	w0, [sp, #20]
   82ac4:	1ac00c20 	sdiv	w0, w1, w0
   82ac8:	b94017e1 	ldr	w1, [sp, #20]
   82acc:	6b00003f 	cmp	w1, w0
   82ad0:	54000061 	b.ne	82adc <_ZN8valkyrie6kernel4sqrtEi+0x70>  // b.any
   82ad4:	b94017e0 	ldr	w0, [sp, #20]
   82ad8:	14000011 	b	82b1c <_ZN8valkyrie6kernel4sqrtEi+0xb0>
   82adc:	b9400fe1 	ldr	w1, [sp, #12]
   82ae0:	b94017e0 	ldr	w0, [sp, #20]
   82ae4:	1ac00c20 	sdiv	w0, w1, w0
   82ae8:	b94017e1 	ldr	w1, [sp, #20]
   82aec:	6b00003f 	cmp	w1, w0
   82af0:	540000aa 	b.ge	82b04 <_ZN8valkyrie6kernel4sqrtEi+0x98>  // b.tcont
   82af4:	b94017e0 	ldr	w0, [sp, #20]
   82af8:	11000400 	add	w0, w0, #0x1
   82afc:	b9001fe0 	str	w0, [sp, #28]
   82b00:	17ffffe1 	b	82a84 <_ZN8valkyrie6kernel4sqrtEi+0x18>
   82b04:	b94017e0 	ldr	w0, [sp, #20]
   82b08:	51000400 	sub	w0, w0, #0x1
   82b0c:	b9001be0 	str	w0, [sp, #24]
   82b10:	17ffffdd 	b	82a84 <_ZN8valkyrie6kernel4sqrtEi+0x18>
   82b14:	b9401fe0 	ldr	w0, [sp, #28]
   82b18:	51000400 	sub	w0, w0, #0x1
   82b1c:	910083ff 	add	sp, sp, #0x20
   82b20:	d65f03c0 	ret

0000000000082b24 <_ZN8valkyrie6kernel4log2Ei>:
   82b24:	d10083ff 	sub	sp, sp, #0x20
   82b28:	b9000fe0 	str	w0, [sp, #12]
   82b2c:	b9001fff 	str	wzr, [sp, #28]
   82b30:	b9400fe0 	ldr	w0, [sp, #12]
   82b34:	13017c00 	asr	w0, w0, #1
   82b38:	b9000fe0 	str	w0, [sp, #12]
   82b3c:	b9400fe0 	ldr	w0, [sp, #12]
   82b40:	7100001f 	cmp	w0, #0x0
   82b44:	1a9f07e0 	cset	w0, ne  // ne = any
   82b48:	12001c00 	and	w0, w0, #0xff
   82b4c:	7100001f 	cmp	w0, #0x0
   82b50:	540000a0 	b.eq	82b64 <_ZN8valkyrie6kernel4log2Ei+0x40>  // b.none
   82b54:	b9401fe0 	ldr	w0, [sp, #28]
   82b58:	11000400 	add	w0, w0, #0x1
   82b5c:	b9001fe0 	str	w0, [sp, #28]
   82b60:	17fffff4 	b	82b30 <_ZN8valkyrie6kernel4log2Ei+0xc>
   82b64:	b9401fe0 	ldr	w0, [sp, #28]
   82b68:	910083ff 	add	sp, sp, #0x20
   82b6c:	d65f03c0 	ret

0000000000082b70 <_ZN8valkyrie6kernel20round_up_to_pow_of_2Em>:
   82b70:	d10083ff 	sub	sp, sp, #0x20
   82b74:	f90007e0 	str	x0, [sp, #8]
   82b78:	d2800020 	mov	x0, #0x1                   	// #1
   82b7c:	f9000fe0 	str	x0, [sp, #24]
   82b80:	f9400fe1 	ldr	x1, [sp, #24]
   82b84:	f94007e0 	ldr	x0, [sp, #8]
   82b88:	eb00003f 	cmp	x1, x0
   82b8c:	540000a2 	b.cs	82ba0 <_ZN8valkyrie6kernel20round_up_to_pow_of_2Em+0x30>  // b.hs, b.nlast
   82b90:	f9400fe0 	ldr	x0, [sp, #24]
   82b94:	d37ff800 	lsl	x0, x0, #1
   82b98:	f9000fe0 	str	x0, [sp, #24]
   82b9c:	17fffff9 	b	82b80 <_ZN8valkyrie6kernel20round_up_to_pow_of_2Em+0x10>
   82ba0:	f9400fe0 	ldr	x0, [sp, #24]
   82ba4:	910083ff 	add	sp, sp, #0x20
   82ba8:	d65f03c0 	ret

0000000000082bac <_ZN8valkyrie6kernel26round_up_to_multiple_of_16Em>:
   82bac:	d10083ff 	sub	sp, sp, #0x20
   82bb0:	f90007e0 	str	x0, [sp, #8]
   82bb4:	d2800200 	mov	x0, #0x10                  	// #16
   82bb8:	f9000fe0 	str	x0, [sp, #24]
   82bbc:	f9400fe1 	ldr	x1, [sp, #24]
   82bc0:	f94007e0 	ldr	x0, [sp, #8]
   82bc4:	eb00003f 	cmp	x1, x0
   82bc8:	540000a2 	b.cs	82bdc <_ZN8valkyrie6kernel26round_up_to_multiple_of_16Em+0x30>  // b.hs, b.nlast
   82bcc:	f9400fe0 	ldr	x0, [sp, #24]
   82bd0:	91004000 	add	x0, x0, #0x10
   82bd4:	f9000fe0 	str	x0, [sp, #24]
   82bd8:	17fffff9 	b	82bbc <_ZN8valkyrie6kernel26round_up_to_multiple_of_16Em+0x10>
   82bdc:	f9400fe0 	ldr	x0, [sp, #24]
   82be0:	910083ff 	add	sp, sp, #0x20
   82be4:	d65f03c0 	ret

0000000000082be8 <_ZN8valkyrie6kernel13MemoryManager12get_instanceEv>:
   82be8:	a9bf7bfd 	stp	x29, x30, [sp, #-16]!
   82bec:	910003fd 	mov	x29, sp
   82bf0:	f0000080 	adrp	x0, 95000 <_ZZN8valkyrie6kernel13MemoryManager12get_instanceEvE8instance+0x1e58>
   82bf4:	910ec000 	add	x0, x0, #0x3b0
   82bf8:	f9400000 	ldr	x0, [x0]
   82bfc:	92400000 	and	x0, x0, #0x1
   82c00:	f100001f 	cmp	x0, #0x0
   82c04:	54000101 	b.ne	82c24 <_ZN8valkyrie6kernel13MemoryManager12get_instanceEv+0x3c>  // b.any
   82c08:	b0000080 	adrp	x0, 93000 <_ZTVN8valkyrie6kernel8FunctionIFbRNS0_9UniquePtrINS0_4TaskEEEEE12CallableImplIZNS0_13TaskScheduler11remove_taskERKS3_EUlRT_E_EE+0x18>
   82c0c:	9106a000 	add	x0, x0, #0x1a8
   82c10:	94000009 	bl	82c34 <_ZN8valkyrie6kernel13MemoryManagerC1Ev>
   82c14:	f0000080 	adrp	x0, 95000 <_ZZN8valkyrie6kernel13MemoryManager12get_instanceEvE8instance+0x1e58>
   82c18:	910ec000 	add	x0, x0, #0x3b0
   82c1c:	d2800021 	mov	x1, #0x1                   	// #1
   82c20:	f9000001 	str	x1, [x0]
   82c24:	b0000080 	adrp	x0, 93000 <_ZTVN8valkyrie6kernel8FunctionIFbRNS0_9UniquePtrINS0_4TaskEEEEE12CallableImplIZNS0_13TaskScheduler11remove_taskERKS3_EUlRT_E_EE+0x18>
   82c28:	9106a000 	add	x0, x0, #0x1a8
   82c2c:	a8c17bfd 	ldp	x29, x30, [sp], #16
   82c30:	d65f03c0 	ret

0000000000082c34 <_ZN8valkyrie6kernel13MemoryManagerC1Ev>:
   82c34:	a9be7bfd 	stp	x29, x30, [sp, #-32]!
   82c38:	910003fd 	mov	x29, sp
   82c3c:	f9000fe0 	str	x0, [sp, #24]
   82c40:	f9400fe0 	ldr	x0, [sp, #24]
   82c44:	94000330 	bl	83904 <_ZN8valkyrie6kernel18PageFrameAllocatorC1Ev>
   82c48:	f9400fe0 	ldr	x0, [sp, #24]
   82c4c:	91096000 	add	x0, x0, #0x258
   82c50:	f9400fe1 	ldr	x1, [sp, #24]
   82c54:	94000b48 	bl	85974 <_ZN8valkyrie6kernel13SlobAllocatorC1EPNS0_18PageFrameAllocatorE>
   82c58:	f9400fe0 	ldr	x0, [sp, #24]
   82c5c:	910b2000 	add	x0, x0, #0x2c8
   82c60:	97fff502 	bl	80068 <_ZN8valkyrie6kernel16AddressSanitizerC1Ev>
   82c64:	d503201f 	nop
   82c68:	a8c27bfd 	ldp	x29, x30, [sp], #32
   82c6c:	d65f03c0 	ret

0000000000082c70 <_ZN8valkyrie6kernel13MemoryManager13get_free_pageEv>:
   82c70:	a9be7bfd 	stp	x29, x30, [sp, #-32]!
   82c74:	910003fd 	mov	x29, sp
   82c78:	f9000fe0 	str	x0, [sp, #24]
   82c7c:	f9400fe0 	ldr	x0, [sp, #24]
   82c80:	94000481 	bl	83e84 <_ZN8valkyrie6kernel18PageFrameAllocator23allocate_one_page_frameEv>
   82c84:	a8c27bfd 	ldp	x29, x30, [sp], #32
   82c88:	d65f03c0 	ret

0000000000082c8c <_ZN8valkyrie6kernel13MemoryManager7kmallocEm>:
   82c8c:	a9bc7bfd 	stp	x29, x30, [sp, #-64]!
   82c90:	910003fd 	mov	x29, sp
   82c94:	f9000bf3 	str	x19, [sp, #16]
   82c98:	f90017e0 	str	x0, [sp, #40]
   82c9c:	f90013e1 	str	x1, [sp, #32]
   82ca0:	94000481 	bl	83ea4 <_ZN8valkyrie6kernel18PageFrameAllocator21get_block_header_sizeEv>
   82ca4:	aa0003e1 	mov	x1, x0
   82ca8:	f94013e0 	ldr	x0, [sp, #32]
   82cac:	8b000033 	add	x19, x1, x0
   82cb0:	94000cda 	bl	86018 <_ZN8valkyrie6kernel13SlobAllocator21get_chunk_header_sizeEv>
   82cb4:	8b000260 	add	x0, x19, x0
   82cb8:	f13ffc1f 	cmp	x0, #0xfff
   82cbc:	1a9f97e0 	cset	w0, hi  // hi = pmore
   82cc0:	12001c00 	and	w0, w0, #0xff
   82cc4:	7100001f 	cmp	w0, #0x0
   82cc8:	540000a0 	b.eq	82cdc <_ZN8valkyrie6kernel13MemoryManager7kmallocEm+0x50>  // b.none
   82ccc:	f94017e0 	ldr	x0, [sp, #40]
   82cd0:	f94013e1 	ldr	x1, [sp, #32]
   82cd4:	94000356 	bl	83a2c <_ZN8valkyrie6kernel18PageFrameAllocator8allocateEm>
   82cd8:	1400000b 	b	82d04 <_ZN8valkyrie6kernel13MemoryManager7kmallocEm+0x78>
   82cdc:	f94017e0 	ldr	x0, [sp, #40]
   82ce0:	91096000 	add	x0, x0, #0x258
   82ce4:	f94013e1 	ldr	x1, [sp, #32]
   82ce8:	94000b3f 	bl	859e4 <_ZN8valkyrie6kernel13SlobAllocator8allocateEm>
   82cec:	f9001fe0 	str	x0, [sp, #56]
   82cf0:	f94017e0 	ldr	x0, [sp, #40]
   82cf4:	910b2000 	add	x0, x0, #0x2c8
   82cf8:	f9401fe1 	ldr	x1, [sp, #56]
   82cfc:	97fff504 	bl	8010c <_ZN8valkyrie6kernel16AddressSanitizer14mark_allocatedEPv>
   82d00:	f9401fe0 	ldr	x0, [sp, #56]
   82d04:	f9400bf3 	ldr	x19, [sp, #16]
   82d08:	a8c47bfd 	ldp	x29, x30, [sp], #64
   82d0c:	d65f03c0 	ret

0000000000082d10 <_ZN8valkyrie6kernel13MemoryManager5kfreeEPv>:
   82d10:	a9bc7bfd 	stp	x29, x30, [sp, #-64]!
   82d14:	910003fd 	mov	x29, sp
   82d18:	f9000bf3 	str	x19, [sp, #16]
   82d1c:	f90017e0 	str	x0, [sp, #40]
   82d20:	f90013e1 	str	x1, [sp, #32]
   82d24:	f94013f3 	ldr	x19, [sp, #32]
   82d28:	9400045f 	bl	83ea4 <_ZN8valkyrie6kernel18PageFrameAllocator21get_block_header_sizeEv>
   82d2c:	cb000260 	sub	x0, x19, x0
   82d30:	f9001fe0 	str	x0, [sp, #56]
   82d34:	f9401fe0 	ldr	x0, [sp, #56]
   82d38:	92402c00 	and	x0, x0, #0xfff
   82d3c:	f100001f 	cmp	x0, #0x0
   82d40:	540000a1 	b.ne	82d54 <_ZN8valkyrie6kernel13MemoryManager5kfreeEPv+0x44>  // b.any
   82d44:	f94017e0 	ldr	x0, [sp, #40]
   82d48:	f94013e1 	ldr	x1, [sp, #32]
   82d4c:	940003ac 	bl	83bfc <_ZN8valkyrie6kernel18PageFrameAllocator10deallocateEPv>
   82d50:	14000009 	b	82d74 <_ZN8valkyrie6kernel13MemoryManager5kfreeEPv+0x64>
   82d54:	f94017e0 	ldr	x0, [sp, #40]
   82d58:	910b2000 	add	x0, x0, #0x2c8
   82d5c:	f94013e1 	ldr	x1, [sp, #32]
   82d60:	97fff4cf 	bl	8009c <_ZN8valkyrie6kernel16AddressSanitizer13mark_free_chkEPv>
   82d64:	f94017e0 	ldr	x0, [sp, #40]
   82d68:	91096000 	add	x0, x0, #0x258
   82d6c:	f94013e1 	ldr	x1, [sp, #32]
   82d70:	94000ba4 	bl	85c00 <_ZN8valkyrie6kernel13SlobAllocator10deallocateEPv>
   82d74:	d503201f 	nop
   82d78:	f9400bf3 	ldr	x19, [sp, #16]
   82d7c:	a8c47bfd 	ldp	x29, x30, [sp], #64
   82d80:	d65f03c0 	ret

0000000000082d84 <_ZNK8valkyrie6kernel13MemoryManager30dump_page_frame_allocator_infoEv>:
   82d84:	a9be7bfd 	stp	x29, x30, [sp, #-32]!
   82d88:	910003fd 	mov	x29, sp
   82d8c:	f9000fe0 	str	x0, [sp, #24]
   82d90:	f9400fe0 	ldr	x0, [sp, #24]
   82d94:	940003e4 	bl	83d24 <_ZNK8valkyrie6kernel18PageFrameAllocator15dump_memory_mapEv>
   82d98:	d503201f 	nop
   82d9c:	a8c27bfd 	ldp	x29, x30, [sp], #32
   82da0:	d65f03c0 	ret

0000000000082da4 <_ZNK8valkyrie6kernel13MemoryManager24dump_slob_allocator_infoEv>:
   82da4:	a9be7bfd 	stp	x29, x30, [sp, #-32]!
   82da8:	910003fd 	mov	x29, sp
   82dac:	f9000fe0 	str	x0, [sp, #24]
   82db0:	f9400fe0 	ldr	x0, [sp, #24]
   82db4:	91096000 	add	x0, x0, #0x258
   82db8:	94000c20 	bl	85e38 <_ZNK8valkyrie6kernel13SlobAllocator14dump_slob_infoEv>
   82dbc:	d503201f 	nop
   82dc0:	a8c27bfd 	ldp	x29, x30, [sp], #32
   82dc4:	d65f03c0 	ret

0000000000082dc8 <_Znwm>:
   82dc8:	a9be7bfd 	stp	x29, x30, [sp, #-32]!
   82dcc:	910003fd 	mov	x29, sp
   82dd0:	f9000fe0 	str	x0, [sp, #24]
   82dd4:	f9400fe0 	ldr	x0, [sp, #24]
   82dd8:	94003096 	bl	8f030 <kmalloc>
   82ddc:	a8c27bfd 	ldp	x29, x30, [sp], #32
   82de0:	d65f03c0 	ret

0000000000082de4 <_Znam>:
   82de4:	a9be7bfd 	stp	x29, x30, [sp, #-32]!
   82de8:	910003fd 	mov	x29, sp
   82dec:	f9000fe0 	str	x0, [sp, #24]
   82df0:	f9400fe0 	ldr	x0, [sp, #24]
   82df4:	9400308f 	bl	8f030 <kmalloc>
   82df8:	a8c27bfd 	ldp	x29, x30, [sp], #32
   82dfc:	d65f03c0 	ret

0000000000082e00 <_ZdlPv>:
   82e00:	a9be7bfd 	stp	x29, x30, [sp, #-32]!
   82e04:	910003fd 	mov	x29, sp
   82e08:	f9000fe0 	str	x0, [sp, #24]
   82e0c:	f9400fe0 	ldr	x0, [sp, #24]
   82e10:	94003090 	bl	8f050 <kfree>
   82e14:	d503201f 	nop
   82e18:	a8c27bfd 	ldp	x29, x30, [sp], #32
   82e1c:	d65f03c0 	ret

0000000000082e20 <_ZdaPv>:
   82e20:	a9be7bfd 	stp	x29, x30, [sp, #-32]!
   82e24:	910003fd 	mov	x29, sp
   82e28:	f9000fe0 	str	x0, [sp, #24]
   82e2c:	f9400fe0 	ldr	x0, [sp, #24]
   82e30:	94003088 	bl	8f050 <kfree>
   82e34:	d503201f 	nop
   82e38:	a8c27bfd 	ldp	x29, x30, [sp], #32
   82e3c:	d65f03c0 	ret

0000000000082e40 <_ZdlPvm>:
   82e40:	a9be7bfd 	stp	x29, x30, [sp, #-32]!
   82e44:	910003fd 	mov	x29, sp
   82e48:	f9000fe0 	str	x0, [sp, #24]
   82e4c:	f9000be1 	str	x1, [sp, #16]
   82e50:	f9400fe0 	ldr	x0, [sp, #24]
   82e54:	9400307f 	bl	8f050 <kfree>
   82e58:	d503201f 	nop
   82e5c:	a8c27bfd 	ldp	x29, x30, [sp], #32
   82e60:	d65f03c0 	ret

0000000000082e64 <_ZdaPvm>:
   82e64:	a9be7bfd 	stp	x29, x30, [sp, #-32]!
   82e68:	910003fd 	mov	x29, sp
   82e6c:	f9000fe0 	str	x0, [sp, #24]
   82e70:	f9000be1 	str	x1, [sp, #16]
   82e74:	f9400fe0 	ldr	x0, [sp, #24]
   82e78:	94003076 	bl	8f050 <kfree>
   82e7c:	d503201f 	nop
   82e80:	a8c27bfd 	ldp	x29, x30, [sp], #32
   82e84:	d65f03c0 	ret

0000000000082e88 <_ZN8valkyrie6kernel8MiniUART12get_instanceEv>:
   82e88:	a9bf7bfd 	stp	x29, x30, [sp, #-16]!
   82e8c:	910003fd 	mov	x29, sp
   82e90:	f0000080 	adrp	x0, 95000 <_ZZN8valkyrie6kernel13MemoryManager12get_instanceEvE8instance+0x1e58>
   82e94:	911f2000 	add	x0, x0, #0x7c8
   82e98:	f9400000 	ldr	x0, [x0]
   82e9c:	92400000 	and	x0, x0, #0x1
   82ea0:	f100001f 	cmp	x0, #0x0
   82ea4:	54000101 	b.ne	82ec4 <_ZN8valkyrie6kernel8MiniUART12get_instanceEv+0x3c>  // b.any
   82ea8:	f0000080 	adrp	x0, 95000 <_ZZN8valkyrie6kernel13MemoryManager12get_instanceEvE8instance+0x1e58>
   82eac:	910ee000 	add	x0, x0, #0x3b8
   82eb0:	94000009 	bl	82ed4 <_ZN8valkyrie6kernel8MiniUARTC1Ev>
   82eb4:	f0000080 	adrp	x0, 95000 <_ZZN8valkyrie6kernel13MemoryManager12get_instanceEvE8instance+0x1e58>
   82eb8:	911f2000 	add	x0, x0, #0x7c8
   82ebc:	d2800021 	mov	x1, #0x1                   	// #1
   82ec0:	f9000001 	str	x1, [x0]
   82ec4:	f0000080 	adrp	x0, 95000 <_ZZN8valkyrie6kernel13MemoryManager12get_instanceEvE8instance+0x1e58>
   82ec8:	910ee000 	add	x0, x0, #0x3b8
   82ecc:	a8c17bfd 	ldp	x29, x30, [sp], #16
   82ed0:	d65f03c0 	ret

0000000000082ed4 <_ZN8valkyrie6kernel8MiniUARTC1Ev>:
   82ed4:	a9bd7bfd 	stp	x29, x30, [sp, #-48]!
   82ed8:	910003fd 	mov	x29, sp
   82edc:	f9000fe0 	str	x0, [sp, #24]
   82ee0:	f9400fe0 	ldr	x0, [sp, #24]
   82ee4:	3900001f 	strb	wzr, [x0]
   82ee8:	f9400fe0 	ldr	x0, [sp, #24]
   82eec:	3900041f 	strb	wzr, [x0, #1]
   82ef0:	f9400fe0 	ldr	x0, [sp, #24]
   82ef4:	3900081f 	strb	wzr, [x0, #2]
   82ef8:	f9400fe0 	ldr	x0, [sp, #24]
   82efc:	b900041f 	str	wzr, [x0, #4]
   82f00:	f9400fe0 	ldr	x0, [sp, #24]
   82f04:	b900081f 	str	wzr, [x0, #8]
   82f08:	f9400fe0 	ldr	x0, [sp, #24]
   82f0c:	91003001 	add	x1, x0, #0xc
   82f10:	d2803fe0 	mov	x0, #0x1ff                 	// #511
   82f14:	f100001f 	cmp	x0, #0x0
   82f18:	540000ab 	b.lt	82f2c <_ZN8valkyrie6kernel8MiniUARTC1Ev+0x58>  // b.tstop
   82f1c:	3900003f 	strb	wzr, [x1]
   82f20:	91000421 	add	x1, x1, #0x1
   82f24:	d1000400 	sub	x0, x0, #0x1
   82f28:	17fffffb 	b	82f14 <_ZN8valkyrie6kernel8MiniUARTC1Ev+0x40>
   82f2c:	f9400fe0 	ldr	x0, [sp, #24]
   82f30:	91083001 	add	x1, x0, #0x20c
   82f34:	d2803fe0 	mov	x0, #0x1ff                 	// #511
   82f38:	f100001f 	cmp	x0, #0x0
   82f3c:	540000ab 	b.lt	82f50 <_ZN8valkyrie6kernel8MiniUARTC1Ev+0x7c>  // b.tstop
   82f40:	3900003f 	strb	wzr, [x1]
   82f44:	91000421 	add	x1, x1, #0x1
   82f48:	d1000400 	sub	x0, x0, #0x1
   82f4c:	17fffffb 	b	82f38 <_ZN8valkyrie6kernel8MiniUARTC1Ev+0x64>
   82f50:	d2800080 	mov	x0, #0x4                   	// #4
   82f54:	f2a7e400 	movk	x0, #0x3f20, lsl #16
   82f58:	94003027 	bl	8eff4 <_ZN8valkyrie6kernel2io3getIjEET_m>
   82f5c:	b9002fe0 	str	w0, [sp, #44]
   82f60:	b9402fe0 	ldr	w0, [sp, #44]
   82f64:	12117000 	and	w0, w0, #0xffff8fff
   82f68:	b9002fe0 	str	w0, [sp, #44]
   82f6c:	b9402fe0 	ldr	w0, [sp, #44]
   82f70:	32130000 	orr	w0, w0, #0x2000
   82f74:	b9002fe0 	str	w0, [sp, #44]
   82f78:	b9402fe0 	ldr	w0, [sp, #44]
   82f7c:	120e7000 	and	w0, w0, #0xfffc7fff
   82f80:	b9002fe0 	str	w0, [sp, #44]
   82f84:	b9402fe0 	ldr	w0, [sp, #44]
   82f88:	32100000 	orr	w0, w0, #0x10000
   82f8c:	b9002fe0 	str	w0, [sp, #44]
   82f90:	b9402fe1 	ldr	w1, [sp, #44]
   82f94:	d2800080 	mov	x0, #0x4                   	// #4
   82f98:	f2a7e400 	movk	x0, #0x3f20, lsl #16
   82f9c:	9400301c 	bl	8f00c <_ZN8valkyrie6kernel2io3putIjEEvmT_>
   82fa0:	52800001 	mov	w1, #0x0                   	// #0
   82fa4:	d2801280 	mov	x0, #0x94                  	// #148
   82fa8:	f2a7e400 	movk	x0, #0x3f20, lsl #16
   82fac:	94003018 	bl	8f00c <_ZN8valkyrie6kernel2io3putIjEEvmT_>
   82fb0:	d28012c0 	mov	x0, #0x96                  	// #150
   82fb4:	94003030 	bl	8f074 <_ZN8valkyrie6kernel2io5delayEm>
   82fb8:	52980001 	mov	w1, #0xc000                	// #49152
   82fbc:	d2801300 	mov	x0, #0x98                  	// #152
   82fc0:	f2a7e400 	movk	x0, #0x3f20, lsl #16
   82fc4:	94003012 	bl	8f00c <_ZN8valkyrie6kernel2io3putIjEEvmT_>
   82fc8:	d28012c0 	mov	x0, #0x96                  	// #150
   82fcc:	9400302a 	bl	8f074 <_ZN8valkyrie6kernel2io5delayEm>
   82fd0:	52800001 	mov	w1, #0x0                   	// #0
   82fd4:	d2801280 	mov	x0, #0x94                  	// #148
   82fd8:	f2a7e400 	movk	x0, #0x3f20, lsl #16
   82fdc:	9400300c 	bl	8f00c <_ZN8valkyrie6kernel2io3putIjEEvmT_>
   82fe0:	52800001 	mov	w1, #0x0                   	// #0
   82fe4:	d2801300 	mov	x0, #0x98                  	// #152
   82fe8:	f2a7e400 	movk	x0, #0x3f20, lsl #16
   82fec:	94003008 	bl	8f00c <_ZN8valkyrie6kernel2io3putIjEEvmT_>
   82ff0:	52800021 	mov	w1, #0x1                   	// #1
   82ff4:	d28a0080 	mov	x0, #0x5004                	// #20484
   82ff8:	f2a7e420 	movk	x0, #0x3f21, lsl #16
   82ffc:	94003004 	bl	8f00c <_ZN8valkyrie6kernel2io3putIjEEvmT_>
   83000:	52800001 	mov	w1, #0x0                   	// #0
   83004:	d28a0c00 	mov	x0, #0x5060                	// #20576
   83008:	f2a7e420 	movk	x0, #0x3f21, lsl #16
   8300c:	94003000 	bl	8f00c <_ZN8valkyrie6kernel2io3putIjEEvmT_>
   83010:	52800061 	mov	w1, #0x3                   	// #3
   83014:	d28a0880 	mov	x0, #0x5044                	// #20548
   83018:	f2a7e420 	movk	x0, #0x3f21, lsl #16
   8301c:	94002ffc 	bl	8f00c <_ZN8valkyrie6kernel2io3putIjEEvmT_>
   83020:	52800061 	mov	w1, #0x3                   	// #3
   83024:	d28a0980 	mov	x0, #0x504c                	// #20556
   83028:	f2a7e420 	movk	x0, #0x3f21, lsl #16
   8302c:	94002ff8 	bl	8f00c <_ZN8valkyrie6kernel2io3putIjEEvmT_>
   83030:	52800001 	mov	w1, #0x0                   	// #0
   83034:	d28a0a00 	mov	x0, #0x5050                	// #20560
   83038:	f2a7e420 	movk	x0, #0x3f21, lsl #16
   8303c:	94002ff4 	bl	8f00c <_ZN8valkyrie6kernel2io3putIjEEvmT_>
   83040:	528021c1 	mov	w1, #0x10e                 	// #270
   83044:	d28a0d00 	mov	x0, #0x5068                	// #20584
   83048:	f2a7e420 	movk	x0, #0x3f21, lsl #16
   8304c:	94002ff0 	bl	8f00c <_ZN8valkyrie6kernel2io3putIjEEvmT_>
   83050:	52800021 	mov	w1, #0x1                   	// #1
   83054:	d28a0900 	mov	x0, #0x5048                	// #20552
   83058:	f2a7e420 	movk	x0, #0x3f21, lsl #16
   8305c:	94002fec 	bl	8f00c <_ZN8valkyrie6kernel2io3putIjEEvmT_>
   83060:	52800061 	mov	w1, #0x3                   	// #3
   83064:	d28a0c00 	mov	x0, #0x5060                	// #20576
   83068:	f2a7e420 	movk	x0, #0x3f21, lsl #16
   8306c:	94002fe8 	bl	8f00c <_ZN8valkyrie6kernel2io3putIjEEvmT_>
   83070:	f9400fe0 	ldr	x0, [sp, #24]
   83074:	97fff488 	bl	80294 <_ZN8valkyrie6kernel7console10initializeEPNS0_8MiniUARTE>
   83078:	d503201f 	nop
   8307c:	a8c37bfd 	ldp	x29, x30, [sp], #48
   83080:	d65f03c0 	ret

0000000000083084 <_ZN8valkyrie6kernel8MiniUART7getcharEv>:
   83084:	a9be7bfd 	stp	x29, x30, [sp, #-32]!
   83088:	910003fd 	mov	x29, sp
   8308c:	f9000fe0 	str	x0, [sp, #24]
   83090:	f9400fe0 	ldr	x0, [sp, #24]
   83094:	94000065 	bl	83228 <_ZN8valkyrie6kernel8MiniUART12getchar_syncEv>
   83098:	12001c00 	and	w0, w0, #0xff
   8309c:	a8c27bfd 	ldp	x29, x30, [sp], #32
   830a0:	d65f03c0 	ret

00000000000830a4 <_ZN8valkyrie6kernel8MiniUART4getsEPc>:
   830a4:	a9be7bfd 	stp	x29, x30, [sp, #-32]!
   830a8:	910003fd 	mov	x29, sp
   830ac:	f9000fe0 	str	x0, [sp, #24]
   830b0:	f9000be1 	str	x1, [sp, #16]
   830b4:	f9400fe0 	ldr	x0, [sp, #24]
   830b8:	39400400 	ldrb	w0, [x0, #1]
   830bc:	7100001f 	cmp	w0, #0x0
   830c0:	540000a0 	b.eq	830d4 <_ZN8valkyrie6kernel8MiniUART4getsEPc+0x30>  // b.none
   830c4:	f9400be1 	ldr	x1, [sp, #16]
   830c8:	f9400fe0 	ldr	x0, [sp, #24]
   830cc:	94000186 	bl	836e4 <_ZN8valkyrie6kernel8MiniUART10gets_asyncEPc>
   830d0:	14000004 	b	830e0 <_ZN8valkyrie6kernel8MiniUART4getsEPc+0x3c>
   830d4:	f9400be1 	ldr	x1, [sp, #16]
   830d8:	f9400fe0 	ldr	x0, [sp, #24]
   830dc:	94000066 	bl	83274 <_ZN8valkyrie6kernel8MiniUART9gets_syncEPc>
   830e0:	d503201f 	nop
   830e4:	a8c27bfd 	ldp	x29, x30, [sp], #32
   830e8:	d65f03c0 	ret

00000000000830ec <_ZN8valkyrie6kernel8MiniUART7putcharEc>:
   830ec:	a9be7bfd 	stp	x29, x30, [sp, #-32]!
   830f0:	910003fd 	mov	x29, sp
   830f4:	f9000fe0 	str	x0, [sp, #24]
   830f8:	39005fe1 	strb	w1, [sp, #23]
   830fc:	f9400fe0 	ldr	x0, [sp, #24]
   83100:	39400800 	ldrb	w0, [x0, #2]
   83104:	7100001f 	cmp	w0, #0x0
   83108:	540000a0 	b.eq	8311c <_ZN8valkyrie6kernel8MiniUART7putcharEc+0x30>  // b.none
   8310c:	39405fe1 	ldrb	w1, [sp, #23]
   83110:	f9400fe0 	ldr	x0, [sp, #24]
   83114:	9400019e 	bl	8378c <_ZN8valkyrie6kernel8MiniUART13putchar_asyncEc>
   83118:	14000004 	b	83128 <_ZN8valkyrie6kernel8MiniUART7putcharEc+0x3c>
   8311c:	39405fe1 	ldrb	w1, [sp, #23]
   83120:	f9400fe0 	ldr	x0, [sp, #24]
   83124:	94000080 	bl	83324 <_ZN8valkyrie6kernel8MiniUART12putchar_syncEc>
   83128:	d503201f 	nop
   8312c:	a8c27bfd 	ldp	x29, x30, [sp], #32
   83130:	d65f03c0 	ret

0000000000083134 <_ZN8valkyrie6kernel8MiniUART4putsEPKcb>:
   83134:	a9bd7bfd 	stp	x29, x30, [sp, #-48]!
   83138:	910003fd 	mov	x29, sp
   8313c:	f90017e0 	str	x0, [sp, #40]
   83140:	f90013e1 	str	x1, [sp, #32]
   83144:	39007fe2 	strb	w2, [sp, #31]
   83148:	f94017e0 	ldr	x0, [sp, #40]
   8314c:	39400800 	ldrb	w0, [x0, #2]
   83150:	7100001f 	cmp	w0, #0x0
   83154:	540000c0 	b.eq	8316c <_ZN8valkyrie6kernel8MiniUART4putsEPKcb+0x38>  // b.none
   83158:	39407fe2 	ldrb	w2, [sp, #31]
   8315c:	f94013e1 	ldr	x1, [sp, #32]
   83160:	f94017e0 	ldr	x0, [sp, #40]
   83164:	940001a4 	bl	837f4 <_ZN8valkyrie6kernel8MiniUART10puts_asyncEPKcb>
   83168:	14000005 	b	8317c <_ZN8valkyrie6kernel8MiniUART4putsEPKcb+0x48>
   8316c:	39407fe2 	ldrb	w2, [sp, #31]
   83170:	f94013e1 	ldr	x1, [sp, #32]
   83174:	f94017e0 	ldr	x0, [sp, #40]
   83178:	9400007f 	bl	83374 <_ZN8valkyrie6kernel8MiniUART9puts_syncEPKcb>
   8317c:	d503201f 	nop
   83180:	a8c37bfd 	ldp	x29, x30, [sp], #48
   83184:	d65f03c0 	ret

0000000000083188 <_ZN8valkyrie6kernel8MiniUART4recvEv>:
   83188:	a9be7bfd 	stp	x29, x30, [sp, #-32]!
   8318c:	910003fd 	mov	x29, sp
   83190:	f9000fe0 	str	x0, [sp, #24]
   83194:	d28a0a80 	mov	x0, #0x5054                	// #20564
   83198:	f2a7e420 	movk	x0, #0x3f21, lsl #16
   8319c:	94002f96 	bl	8eff4 <_ZN8valkyrie6kernel2io3getIjEET_m>
   831a0:	12000000 	and	w0, w0, #0x1
   831a4:	7100001f 	cmp	w0, #0x0
   831a8:	1a9f17e0 	cset	w0, eq  // eq = none
   831ac:	12001c00 	and	w0, w0, #0xff
   831b0:	7100001f 	cmp	w0, #0x0
   831b4:	54000040 	b.eq	831bc <_ZN8valkyrie6kernel8MiniUART4recvEv+0x34>  // b.none
   831b8:	17fffff7 	b	83194 <_ZN8valkyrie6kernel8MiniUART4recvEv+0xc>
   831bc:	d28a0800 	mov	x0, #0x5040                	// #20544
   831c0:	f2a7e420 	movk	x0, #0x3f21, lsl #16
   831c4:	94002fbb 	bl	8f0b0 <_ZN8valkyrie6kernel2io3getIhEET_m>
   831c8:	12001c00 	and	w0, w0, #0xff
   831cc:	a8c27bfd 	ldp	x29, x30, [sp], #32
   831d0:	d65f03c0 	ret

00000000000831d4 <_ZN8valkyrie6kernel8MiniUART4sendEh>:
   831d4:	a9be7bfd 	stp	x29, x30, [sp, #-32]!
   831d8:	910003fd 	mov	x29, sp
   831dc:	f9000fe0 	str	x0, [sp, #24]
   831e0:	39005fe1 	strb	w1, [sp, #23]
   831e4:	d28a0a80 	mov	x0, #0x5054                	// #20564
   831e8:	f2a7e420 	movk	x0, #0x3f21, lsl #16
   831ec:	94002f82 	bl	8eff4 <_ZN8valkyrie6kernel2io3getIjEET_m>
   831f0:	121b0000 	and	w0, w0, #0x20
   831f4:	7100001f 	cmp	w0, #0x0
   831f8:	1a9f17e0 	cset	w0, eq  // eq = none
   831fc:	12001c00 	and	w0, w0, #0xff
   83200:	7100001f 	cmp	w0, #0x0
   83204:	54000040 	b.eq	8320c <_ZN8valkyrie6kernel8MiniUART4sendEh+0x38>  // b.none
   83208:	17fffff7 	b	831e4 <_ZN8valkyrie6kernel8MiniUART4sendEh+0x10>
   8320c:	39405fe1 	ldrb	w1, [sp, #23]
   83210:	d28a0800 	mov	x0, #0x5040                	// #20544
   83214:	f2a7e420 	movk	x0, #0x3f21, lsl #16
   83218:	94002fac 	bl	8f0c8 <_ZN8valkyrie6kernel2io3putIhEEvmT_>
   8321c:	d503201f 	nop
   83220:	a8c27bfd 	ldp	x29, x30, [sp], #32
   83224:	d65f03c0 	ret

0000000000083228 <_ZN8valkyrie6kernel8MiniUART12getchar_syncEv>:
   83228:	a9bd7bfd 	stp	x29, x30, [sp, #-48]!
   8322c:	910003fd 	mov	x29, sp
   83230:	f9000fe0 	str	x0, [sp, #24]
   83234:	f9400fe0 	ldr	x0, [sp, #24]
   83238:	97ffffd4 	bl	83188 <_ZN8valkyrie6kernel8MiniUART4recvEv>
   8323c:	3900bfe0 	strb	w0, [sp, #47]
   83240:	3940bfe0 	ldrb	w0, [sp, #47]
   83244:	7100341f 	cmp	w0, #0xd
   83248:	54000060 	b.eq	83254 <_ZN8valkyrie6kernel8MiniUART12getchar_syncEv+0x2c>  // b.none
   8324c:	3940bfe0 	ldrb	w0, [sp, #47]
   83250:	14000002 	b	83258 <_ZN8valkyrie6kernel8MiniUART12getchar_syncEv+0x30>
   83254:	52800140 	mov	w0, #0xa                   	// #10
   83258:	3900bfe0 	strb	w0, [sp, #47]
   8325c:	3940bfe1 	ldrb	w1, [sp, #47]
   83260:	f9400fe0 	ldr	x0, [sp, #24]
   83264:	94000030 	bl	83324 <_ZN8valkyrie6kernel8MiniUART12putchar_syncEc>
   83268:	3940bfe0 	ldrb	w0, [sp, #47]
   8326c:	a8c37bfd 	ldp	x29, x30, [sp], #48
   83270:	d65f03c0 	ret

0000000000083274 <_ZN8valkyrie6kernel8MiniUART9gets_syncEPc>:
   83274:	a9bd7bfd 	stp	x29, x30, [sp, #-48]!
   83278:	910003fd 	mov	x29, sp
   8327c:	f9000fe0 	str	x0, [sp, #24]
   83280:	f9000be1 	str	x1, [sp, #16]
   83284:	f9400be0 	ldr	x0, [sp, #16]
   83288:	f90017e0 	str	x0, [sp, #40]
   8328c:	f9400fe0 	ldr	x0, [sp, #24]
   83290:	97ffffe6 	bl	83228 <_ZN8valkyrie6kernel8MiniUART12getchar_syncEv>
   83294:	39009fe0 	strb	w0, [sp, #39]
   83298:	39409fe0 	ldrb	w0, [sp, #39]
   8329c:	7100281f 	cmp	w0, #0xa
   832a0:	1a9f07e0 	cset	w0, ne  // ne = any
   832a4:	12001c00 	and	w0, w0, #0xff
   832a8:	7100001f 	cmp	w0, #0x0
   832ac:	54000320 	b.eq	83310 <_ZN8valkyrie6kernel8MiniUART9gets_syncEPc+0x9c>  // b.none
   832b0:	39409fe0 	ldrb	w0, [sp, #39]
   832b4:	7101fc1f 	cmp	w0, #0x7f
   832b8:	540001e1 	b.ne	832f4 <_ZN8valkyrie6kernel8MiniUART9gets_syncEPc+0x80>  // b.any
   832bc:	f9400be1 	ldr	x1, [sp, #16]
   832c0:	f94017e0 	ldr	x0, [sp, #40]
   832c4:	eb00003f 	cmp	x1, x0
   832c8:	54fffe29 	b.ls	8328c <_ZN8valkyrie6kernel8MiniUART9gets_syncEPc+0x18>  // b.plast
   832cc:	f9400be0 	ldr	x0, [sp, #16]
   832d0:	d1000401 	sub	x1, x0, #0x1
   832d4:	f9000be1 	str	x1, [sp, #16]
   832d8:	3900001f 	strb	wzr, [x0]
   832dc:	52800002 	mov	w2, #0x0                   	// #0
   832e0:	b0000020 	adrp	x0, 88000 <_ZN8valkyrie6kernel16TimerMultiplexer4tickEv+0x18>
   832e4:	913f0001 	add	x1, x0, #0xfc0
   832e8:	f9400fe0 	ldr	x0, [sp, #24]
   832ec:	94000022 	bl	83374 <_ZN8valkyrie6kernel8MiniUART9puts_syncEPKcb>
   832f0:	17ffffe7 	b	8328c <_ZN8valkyrie6kernel8MiniUART9gets_syncEPc+0x18>
   832f4:	39409fe2 	ldrb	w2, [sp, #39]
   832f8:	f9400be0 	ldr	x0, [sp, #16]
   832fc:	91000401 	add	x1, x0, #0x1
   83300:	f9000be1 	str	x1, [sp, #16]
   83304:	2a0203e1 	mov	w1, w2
   83308:	39000001 	strb	w1, [x0]
   8330c:	17ffffe0 	b	8328c <_ZN8valkyrie6kernel8MiniUART9gets_syncEPc+0x18>
   83310:	f9400be0 	ldr	x0, [sp, #16]
   83314:	3900001f 	strb	wzr, [x0]
   83318:	d503201f 	nop
   8331c:	a8c37bfd 	ldp	x29, x30, [sp], #48
   83320:	d65f03c0 	ret

0000000000083324 <_ZN8valkyrie6kernel8MiniUART12putchar_syncEc>:
   83324:	a9be7bfd 	stp	x29, x30, [sp, #-32]!
   83328:	910003fd 	mov	x29, sp
   8332c:	f9000fe0 	str	x0, [sp, #24]
   83330:	39005fe1 	strb	w1, [sp, #23]
   83334:	39405fe0 	ldrb	w0, [sp, #23]
   83338:	7100281f 	cmp	w0, #0xa
   8333c:	54000101 	b.ne	8335c <_ZN8valkyrie6kernel8MiniUART12putchar_syncEc+0x38>  // b.any
   83340:	528001a1 	mov	w1, #0xd                   	// #13
   83344:	f9400fe0 	ldr	x0, [sp, #24]
   83348:	97ffffa3 	bl	831d4 <_ZN8valkyrie6kernel8MiniUART4sendEh>
   8334c:	52800141 	mov	w1, #0xa                   	// #10
   83350:	f9400fe0 	ldr	x0, [sp, #24]
   83354:	97ffffa0 	bl	831d4 <_ZN8valkyrie6kernel8MiniUART4sendEh>
   83358:	14000004 	b	83368 <_ZN8valkyrie6kernel8MiniUART12putchar_syncEc+0x44>
   8335c:	39405fe1 	ldrb	w1, [sp, #23]
   83360:	f9400fe0 	ldr	x0, [sp, #24]
   83364:	97ffff9c 	bl	831d4 <_ZN8valkyrie6kernel8MiniUART4sendEh>
   83368:	d503201f 	nop
   8336c:	a8c27bfd 	ldp	x29, x30, [sp], #32
   83370:	d65f03c0 	ret

0000000000083374 <_ZN8valkyrie6kernel8MiniUART9puts_syncEPKcb>:
   83374:	a9bc7bfd 	stp	x29, x30, [sp, #-64]!
   83378:	910003fd 	mov	x29, sp
   8337c:	f90017e0 	str	x0, [sp, #40]
   83380:	f90013e1 	str	x1, [sp, #32]
   83384:	39007fe2 	strb	w2, [sp, #31]
   83388:	f9001fff 	str	xzr, [sp, #56]
   8338c:	f94013e0 	ldr	x0, [sp, #32]
   83390:	97fff518 	bl	807f0 <strlen>
   83394:	aa0003e1 	mov	x1, x0
   83398:	f9401fe0 	ldr	x0, [sp, #56]
   8339c:	eb01001f 	cmp	x0, x1
   833a0:	1a9f27e0 	cset	w0, cc  // cc = lo, ul, last
   833a4:	12001c00 	and	w0, w0, #0xff
   833a8:	7100001f 	cmp	w0, #0x0
   833ac:	54000180 	b.eq	833dc <_ZN8valkyrie6kernel8MiniUART9puts_syncEPKcb+0x68>  // b.none
   833b0:	f94013e1 	ldr	x1, [sp, #32]
   833b4:	f9401fe0 	ldr	x0, [sp, #56]
   833b8:	8b000020 	add	x0, x1, x0
   833bc:	39400000 	ldrb	w0, [x0]
   833c0:	2a0003e1 	mov	w1, w0
   833c4:	f94017e0 	ldr	x0, [sp, #40]
   833c8:	97ffffd7 	bl	83324 <_ZN8valkyrie6kernel8MiniUART12putchar_syncEc>
   833cc:	f9401fe0 	ldr	x0, [sp, #56]
   833d0:	91000400 	add	x0, x0, #0x1
   833d4:	f9001fe0 	str	x0, [sp, #56]
   833d8:	17ffffed 	b	8338c <_ZN8valkyrie6kernel8MiniUART9puts_syncEPKcb+0x18>
   833dc:	39407fe0 	ldrb	w0, [sp, #31]
   833e0:	7100001f 	cmp	w0, #0x0
   833e4:	54000080 	b.eq	833f4 <_ZN8valkyrie6kernel8MiniUART9puts_syncEPKcb+0x80>  // b.none
   833e8:	52800141 	mov	w1, #0xa                   	// #10
   833ec:	f94017e0 	ldr	x0, [sp, #40]
   833f0:	97ffffcd 	bl	83324 <_ZN8valkyrie6kernel8MiniUART12putchar_syncEc>
   833f4:	d503201f 	nop
   833f8:	a8c47bfd 	ldp	x29, x30, [sp], #64
   833fc:	d65f03c0 	ret

0000000000083400 <_ZNK8valkyrie6kernel8MiniUART17enable_interruptsEv>:
   83400:	a9be7bfd 	stp	x29, x30, [sp, #-32]!
   83404:	910003fd 	mov	x29, sp
   83408:	f9000fe0 	str	x0, [sp, #24]
   8340c:	52a40001 	mov	w1, #0x20000000            	// #536870912
   83410:	d2964200 	mov	x0, #0xb210                	// #45584
   83414:	f2a7e000 	movk	x0, #0x3f00, lsl #16
   83418:	94002efd 	bl	8f00c <_ZN8valkyrie6kernel2io3putIjEEvmT_>
   8341c:	d503201f 	nop
   83420:	a8c27bfd 	ldp	x29, x30, [sp], #32
   83424:	d65f03c0 	ret

0000000000083428 <_ZNK8valkyrie6kernel8MiniUART18disable_interruptsEv>:
   83428:	a9be7bfd 	stp	x29, x30, [sp, #-32]!
   8342c:	910003fd 	mov	x29, sp
   83430:	f9000fe0 	str	x0, [sp, #24]
   83434:	52a40001 	mov	w1, #0x20000000            	// #536870912
   83438:	d2964380 	mov	x0, #0xb21c                	// #45596
   8343c:	f2a7e000 	movk	x0, #0x3f00, lsl #16
   83440:	94002ef3 	bl	8f00c <_ZN8valkyrie6kernel2io3putIjEEvmT_>
   83444:	d503201f 	nop
   83448:	a8c27bfd 	ldp	x29, x30, [sp], #32
   8344c:	d65f03c0 	ret

0000000000083450 <_ZNK8valkyrie6kernel8MiniUART15has_pending_irqEv>:
   83450:	a9be7bfd 	stp	x29, x30, [sp, #-32]!
   83454:	910003fd 	mov	x29, sp
   83458:	f9000fe0 	str	x0, [sp, #24]
   8345c:	d2964000 	mov	x0, #0xb200                	// #45568
   83460:	f2a7e000 	movk	x0, #0x3f00, lsl #16
   83464:	94002ee4 	bl	8eff4 <_ZN8valkyrie6kernel2io3getIjEET_m>
   83468:	12180000 	and	w0, w0, #0x100
   8346c:	7100001f 	cmp	w0, #0x0
   83470:	54000120 	b.eq	83494 <_ZNK8valkyrie6kernel8MiniUART15has_pending_irqEv+0x44>  // b.none
   83474:	d2964080 	mov	x0, #0xb204                	// #45572
   83478:	f2a7e000 	movk	x0, #0x3f00, lsl #16
   8347c:	94002ede 	bl	8eff4 <_ZN8valkyrie6kernel2io3getIjEET_m>
   83480:	12030000 	and	w0, w0, #0x20000000
   83484:	7100001f 	cmp	w0, #0x0
   83488:	54000060 	b.eq	83494 <_ZNK8valkyrie6kernel8MiniUART15has_pending_irqEv+0x44>  // b.none
   8348c:	52800020 	mov	w0, #0x1                   	// #1
   83490:	14000002 	b	83498 <_ZNK8valkyrie6kernel8MiniUART15has_pending_irqEv+0x48>
   83494:	52800000 	mov	w0, #0x0                   	// #0
   83498:	a8c27bfd 	ldp	x29, x30, [sp], #32
   8349c:	d65f03c0 	ret

00000000000834a0 <_ZN8valkyrie6kernel8MiniUART10handle_irqEv>:
   834a0:	a9bd7bfd 	stp	x29, x30, [sp, #-48]!
   834a4:	910003fd 	mov	x29, sp
   834a8:	f9000fe0 	str	x0, [sp, #24]
   834ac:	d28a0900 	mov	x0, #0x5048                	// #20552
   834b0:	f2a7e420 	movk	x0, #0x3f21, lsl #16
   834b4:	94002ed0 	bl	8eff4 <_ZN8valkyrie6kernel2io3getIjEET_m>
   834b8:	121f0000 	and	w0, w0, #0x2
   834bc:	7100001f 	cmp	w0, #0x0
   834c0:	1a9f07e0 	cset	w0, ne  // ne = any
   834c4:	3900bfe0 	strb	w0, [sp, #47]
   834c8:	d28a0900 	mov	x0, #0x5048                	// #20552
   834cc:	f2a7e420 	movk	x0, #0x3f21, lsl #16
   834d0:	94002ec9 	bl	8eff4 <_ZN8valkyrie6kernel2io3getIjEET_m>
   834d4:	121e0000 	and	w0, w0, #0x4
   834d8:	7100001f 	cmp	w0, #0x0
   834dc:	1a9f07e0 	cset	w0, ne  // ne = any
   834e0:	3900bbe0 	strb	w0, [sp, #46]
   834e4:	3940bfe0 	ldrb	w0, [sp, #47]
   834e8:	7100001f 	cmp	w0, #0x0
   834ec:	54000060 	b.eq	834f8 <_ZN8valkyrie6kernel8MiniUART10handle_irqEv+0x58>  // b.none
   834f0:	f9400fe0 	ldr	x0, [sp, #24]
   834f4:	9400000b 	bl	83520 <_ZN8valkyrie6kernel8MiniUART13handle_tx_irqEv>
   834f8:	3940bbe0 	ldrb	w0, [sp, #46]
   834fc:	7100001f 	cmp	w0, #0x0
   83500:	54000060 	b.eq	8350c <_ZN8valkyrie6kernel8MiniUART10handle_irqEv+0x6c>  // b.none
   83504:	f9400fe0 	ldr	x0, [sp, #24]
   83508:	9400000e 	bl	83540 <_ZN8valkyrie6kernel8MiniUART13handle_rx_irqEv>
   8350c:	f9400fe0 	ldr	x0, [sp, #24]
   83510:	97ffffc6 	bl	83428 <_ZNK8valkyrie6kernel8MiniUART18disable_interruptsEv>
   83514:	d503201f 	nop
   83518:	a8c37bfd 	ldp	x29, x30, [sp], #48
   8351c:	d65f03c0 	ret

0000000000083520 <_ZN8valkyrie6kernel8MiniUART13handle_tx_irqEv>:
   83520:	a9be7bfd 	stp	x29, x30, [sp, #-32]!
   83524:	910003fd 	mov	x29, sp
   83528:	f9000fe0 	str	x0, [sp, #24]
   8352c:	f9400fe0 	ldr	x0, [sp, #24]
   83530:	94000054 	bl	83680 <_ZN8valkyrie6kernel8MiniUART18flush_write_bufferEv>
   83534:	d503201f 	nop
   83538:	a8c27bfd 	ldp	x29, x30, [sp], #32
   8353c:	d65f03c0 	ret

0000000000083540 <_ZN8valkyrie6kernel8MiniUART13handle_rx_irqEv>:
   83540:	a9bd7bfd 	stp	x29, x30, [sp, #-48]!
   83544:	910003fd 	mov	x29, sp
   83548:	f9000fe0 	str	x0, [sp, #24]
   8354c:	d28a0800 	mov	x0, #0x5040                	// #20544
   83550:	f2a7e420 	movk	x0, #0x3f21, lsl #16
   83554:	94002ed7 	bl	8f0b0 <_ZN8valkyrie6kernel2io3getIhEET_m>
   83558:	3900afe0 	strb	w0, [sp, #43]
   8355c:	3940afe0 	ldrb	w0, [sp, #43]
   83560:	7101fc1f 	cmp	w0, #0x7f
   83564:	54000201 	b.ne	835a4 <_ZN8valkyrie6kernel8MiniUART13handle_rx_irqEv+0x64>  // b.any
   83568:	f9400fe0 	ldr	x0, [sp, #24]
   8356c:	b9400400 	ldr	w0, [x0, #4]
   83570:	7100001f 	cmp	w0, #0x0
   83574:	5400042d 	b.le	835f8 <_ZN8valkyrie6kernel8MiniUART13handle_rx_irqEv+0xb8>
   83578:	f9400fe0 	ldr	x0, [sp, #24]
   8357c:	b9400400 	ldr	w0, [x0, #4]
   83580:	51000401 	sub	w1, w0, #0x1
   83584:	f9400fe0 	ldr	x0, [sp, #24]
   83588:	b9000401 	str	w1, [x0, #4]
   8358c:	52800002 	mov	w2, #0x0                   	// #0
   83590:	b0000020 	adrp	x0, 88000 <_ZN8valkyrie6kernel16TimerMultiplexer4tickEv+0x18>
   83594:	913f0001 	add	x1, x0, #0xfc0
   83598:	f9400fe0 	ldr	x0, [sp, #24]
   8359c:	94000096 	bl	837f4 <_ZN8valkyrie6kernel8MiniUART10puts_asyncEPKcb>
   835a0:	14000016 	b	835f8 <_ZN8valkyrie6kernel8MiniUART13handle_rx_irqEv+0xb8>
   835a4:	3940afe0 	ldrb	w0, [sp, #43]
   835a8:	7100341f 	cmp	w0, #0xd
   835ac:	54000060 	b.eq	835b8 <_ZN8valkyrie6kernel8MiniUART13handle_rx_irqEv+0x78>  // b.none
   835b0:	3940afe0 	ldrb	w0, [sp, #43]
   835b4:	14000002 	b	835bc <_ZN8valkyrie6kernel8MiniUART13handle_rx_irqEv+0x7c>
   835b8:	52800140 	mov	w0, #0xa                   	// #10
   835bc:	3900afe0 	strb	w0, [sp, #43]
   835c0:	3940afe3 	ldrb	w3, [sp, #43]
   835c4:	f9400fe0 	ldr	x0, [sp, #24]
   835c8:	b9400400 	ldr	w0, [x0, #4]
   835cc:	11000402 	add	w2, w0, #0x1
   835d0:	f9400fe1 	ldr	x1, [sp, #24]
   835d4:	b9000422 	str	w2, [x1, #4]
   835d8:	f9400fe1 	ldr	x1, [sp, #24]
   835dc:	93407c00 	sxtw	x0, w0
   835e0:	8b000020 	add	x0, x1, x0
   835e4:	2a0303e1 	mov	w1, w3
   835e8:	39003001 	strb	w1, [x0, #12]
   835ec:	3940afe1 	ldrb	w1, [sp, #43]
   835f0:	f9400fe0 	ldr	x0, [sp, #24]
   835f4:	94000066 	bl	8378c <_ZN8valkyrie6kernel8MiniUART13putchar_asyncEc>
   835f8:	f9400fe0 	ldr	x0, [sp, #24]
   835fc:	39400000 	ldrb	w0, [x0]
   83600:	7100001f 	cmp	w0, #0x0
   83604:	54000380 	b.eq	83674 <_ZN8valkyrie6kernel8MiniUART13handle_rx_irqEv+0x134>  // b.none
   83608:	b0000020 	adrp	x0, 88000 <_ZN8valkyrie6kernel16TimerMultiplexer4tickEv+0x18>
   8360c:	913f2000 	add	x0, x0, #0xfc8
   83610:	94002a85 	bl	8e024 <_Z6printfIJEEvPKcDpOT_>
   83614:	b9002fff 	str	wzr, [sp, #44]
   83618:	f9400fe0 	ldr	x0, [sp, #24]
   8361c:	b9400400 	ldr	w0, [x0, #4]
   83620:	b9402fe1 	ldr	w1, [sp, #44]
   83624:	6b00003f 	cmp	w1, w0
   83628:	540001aa 	b.ge	8365c <_ZN8valkyrie6kernel8MiniUART13handle_rx_irqEv+0x11c>  // b.tcont
   8362c:	b9802fe0 	ldrsw	x0, [sp, #44]
   83630:	f9400fe1 	ldr	x1, [sp, #24]
   83634:	8b000020 	add	x0, x1, x0
   83638:	91003000 	add	x0, x0, #0xc
   8363c:	aa0003e1 	mov	x1, x0
   83640:	b0000020 	adrp	x0, 88000 <_ZN8valkyrie6kernel16TimerMultiplexer4tickEv+0x18>
   83644:	913f4000 	add	x0, x0, #0xfd0
   83648:	94002dcc 	bl	8ed78 <_Z6printfIJRhEEvPKcDpOT_>
   8364c:	b9402fe0 	ldr	w0, [sp, #44]
   83650:	11000400 	add	w0, w0, #0x1
   83654:	b9002fe0 	str	w0, [sp, #44]
   83658:	17fffff0 	b	83618 <_ZN8valkyrie6kernel8MiniUART13handle_rx_irqEv+0xd8>
   8365c:	f9400fe0 	ldr	x0, [sp, #24]
   83660:	91001000 	add	x0, x0, #0x4
   83664:	aa0003e1 	mov	x1, x0
   83668:	b0000020 	adrp	x0, 88000 <_ZN8valkyrie6kernel16TimerMultiplexer4tickEv+0x18>
   8366c:	913f6000 	add	x0, x0, #0xfd8
   83670:	94002e9f 	bl	8f0ec <_Z6printfIJRiEEvPKcDpOT_>
   83674:	d503201f 	nop
   83678:	a8c37bfd 	ldp	x29, x30, [sp], #48
   8367c:	d65f03c0 	ret

0000000000083680 <_ZN8valkyrie6kernel8MiniUART18flush_write_bufferEv>:
   83680:	a9bd7bfd 	stp	x29, x30, [sp, #-48]!
   83684:	910003fd 	mov	x29, sp
   83688:	f9000fe0 	str	x0, [sp, #24]
   8368c:	b9002fff 	str	wzr, [sp, #44]
   83690:	f9400fe0 	ldr	x0, [sp, #24]
   83694:	b9400800 	ldr	w0, [x0, #8]
   83698:	b9402fe1 	ldr	w1, [sp, #44]
   8369c:	6b00003f 	cmp	w1, w0
   836a0:	5400018a 	b.ge	836d0 <_ZN8valkyrie6kernel8MiniUART18flush_write_bufferEv+0x50>  // b.tcont
   836a4:	f9400fe1 	ldr	x1, [sp, #24]
   836a8:	b9802fe0 	ldrsw	x0, [sp, #44]
   836ac:	8b000020 	add	x0, x1, x0
   836b0:	39483000 	ldrb	w0, [x0, #524]
   836b4:	2a0003e1 	mov	w1, w0
   836b8:	f9400fe0 	ldr	x0, [sp, #24]
   836bc:	97ffff1a 	bl	83324 <_ZN8valkyrie6kernel8MiniUART12putchar_syncEc>
   836c0:	b9402fe0 	ldr	w0, [sp, #44]
   836c4:	11000400 	add	w0, w0, #0x1
   836c8:	b9002fe0 	str	w0, [sp, #44]
   836cc:	17fffff1 	b	83690 <_ZN8valkyrie6kernel8MiniUART18flush_write_bufferEv+0x10>
   836d0:	f9400fe0 	ldr	x0, [sp, #24]
   836d4:	b900081f 	str	wzr, [x0, #8]
   836d8:	d503201f 	nop
   836dc:	a8c37bfd 	ldp	x29, x30, [sp], #48
   836e0:	d65f03c0 	ret

00000000000836e4 <_ZN8valkyrie6kernel8MiniUART10gets_asyncEPc>:
   836e4:	a9be7bfd 	stp	x29, x30, [sp, #-32]!
   836e8:	910003fd 	mov	x29, sp
   836ec:	f9000fe0 	str	x0, [sp, #24]
   836f0:	f9000be1 	str	x1, [sp, #16]
   836f4:	f9400fe0 	ldr	x0, [sp, #24]
   836f8:	97ffff42 	bl	83400 <_ZNK8valkyrie6kernel8MiniUART17enable_interruptsEv>
   836fc:	f9400fe0 	ldr	x0, [sp, #24]
   83700:	b9400400 	ldr	w0, [x0, #4]
   83704:	7100001f 	cmp	w0, #0x0
   83708:	54000081 	b.ne	83718 <_ZN8valkyrie6kernel8MiniUART10gets_asyncEPc+0x34>  // b.any
   8370c:	f9400fe0 	ldr	x0, [sp, #24]
   83710:	97ffff3c 	bl	83400 <_ZNK8valkyrie6kernel8MiniUART17enable_interruptsEv>
   83714:	17fffffa 	b	836fc <_ZN8valkyrie6kernel8MiniUART10gets_asyncEPc+0x18>
   83718:	f9400fe0 	ldr	x0, [sp, #24]
   8371c:	b9400400 	ldr	w0, [x0, #4]
   83720:	51000400 	sub	w0, w0, #0x1
   83724:	f9400fe1 	ldr	x1, [sp, #24]
   83728:	93407c00 	sxtw	x0, w0
   8372c:	8b000020 	add	x0, x1, x0
   83730:	39403000 	ldrb	w0, [x0, #12]
   83734:	7100281f 	cmp	w0, #0xa
   83738:	54000080 	b.eq	83748 <_ZN8valkyrie6kernel8MiniUART10gets_asyncEPc+0x64>  // b.none
   8373c:	f9400fe0 	ldr	x0, [sp, #24]
   83740:	97ffff30 	bl	83400 <_ZNK8valkyrie6kernel8MiniUART17enable_interruptsEv>
   83744:	17fffff5 	b	83718 <_ZN8valkyrie6kernel8MiniUART10gets_asyncEPc+0x34>
   83748:	f9400fe0 	ldr	x0, [sp, #24]
   8374c:	b9400400 	ldr	w0, [x0, #4]
   83750:	51000400 	sub	w0, w0, #0x1
   83754:	f9400fe1 	ldr	x1, [sp, #24]
   83758:	93407c00 	sxtw	x0, w0
   8375c:	8b000020 	add	x0, x1, x0
   83760:	3900301f 	strb	wzr, [x0, #12]
   83764:	f9400fe0 	ldr	x0, [sp, #24]
   83768:	91003000 	add	x0, x0, #0xc
   8376c:	aa0003e1 	mov	x1, x0
   83770:	f9400be0 	ldr	x0, [sp, #16]
   83774:	97fff47f 	bl	80970 <strcpy>
   83778:	f9400fe0 	ldr	x0, [sp, #24]
   8377c:	b900041f 	str	wzr, [x0, #4]
   83780:	d503201f 	nop
   83784:	a8c27bfd 	ldp	x29, x30, [sp], #32
   83788:	d65f03c0 	ret

000000000008378c <_ZN8valkyrie6kernel8MiniUART13putchar_asyncEc>:
   8378c:	a9be7bfd 	stp	x29, x30, [sp, #-32]!
   83790:	910003fd 	mov	x29, sp
   83794:	f9000fe0 	str	x0, [sp, #24]
   83798:	39005fe1 	strb	w1, [sp, #23]
   8379c:	f9400fe0 	ldr	x0, [sp, #24]
   837a0:	b9400800 	ldr	w0, [x0, #8]
   837a4:	7107fc1f 	cmp	w0, #0x1ff
   837a8:	5400006d 	b.le	837b4 <_ZN8valkyrie6kernel8MiniUART13putchar_asyncEc+0x28>
   837ac:	f9400fe0 	ldr	x0, [sp, #24]
   837b0:	97ffffb4 	bl	83680 <_ZN8valkyrie6kernel8MiniUART18flush_write_bufferEv>
   837b4:	39405fe3 	ldrb	w3, [sp, #23]
   837b8:	f9400fe0 	ldr	x0, [sp, #24]
   837bc:	b9400800 	ldr	w0, [x0, #8]
   837c0:	11000402 	add	w2, w0, #0x1
   837c4:	f9400fe1 	ldr	x1, [sp, #24]
   837c8:	b9000822 	str	w2, [x1, #8]
   837cc:	f9400fe1 	ldr	x1, [sp, #24]
   837d0:	93407c00 	sxtw	x0, w0
   837d4:	8b000020 	add	x0, x1, x0
   837d8:	2a0303e1 	mov	w1, w3
   837dc:	39083001 	strb	w1, [x0, #524]
   837e0:	f9400fe0 	ldr	x0, [sp, #24]
   837e4:	97ffff07 	bl	83400 <_ZNK8valkyrie6kernel8MiniUART17enable_interruptsEv>
   837e8:	d503201f 	nop
   837ec:	a8c27bfd 	ldp	x29, x30, [sp], #32
   837f0:	d65f03c0 	ret

00000000000837f4 <_ZN8valkyrie6kernel8MiniUART10puts_asyncEPKcb>:
   837f4:	a9bc7bfd 	stp	x29, x30, [sp, #-64]!
   837f8:	910003fd 	mov	x29, sp
   837fc:	f90017e0 	str	x0, [sp, #40]
   83800:	f90013e1 	str	x1, [sp, #32]
   83804:	39007fe2 	strb	w2, [sp, #31]
   83808:	f9001fff 	str	xzr, [sp, #56]
   8380c:	f94013e0 	ldr	x0, [sp, #32]
   83810:	97fff3f8 	bl	807f0 <strlen>
   83814:	aa0003e1 	mov	x1, x0
   83818:	f9401fe0 	ldr	x0, [sp, #56]
   8381c:	eb01001f 	cmp	x0, x1
   83820:	1a9f27e0 	cset	w0, cc  // cc = lo, ul, last
   83824:	12001c00 	and	w0, w0, #0xff
   83828:	7100001f 	cmp	w0, #0x0
   8382c:	54000180 	b.eq	8385c <_ZN8valkyrie6kernel8MiniUART10puts_asyncEPKcb+0x68>  // b.none
   83830:	f94013e1 	ldr	x1, [sp, #32]
   83834:	f9401fe0 	ldr	x0, [sp, #56]
   83838:	8b000020 	add	x0, x1, x0
   8383c:	39400000 	ldrb	w0, [x0]
   83840:	2a0003e1 	mov	w1, w0
   83844:	f94017e0 	ldr	x0, [sp, #40]
   83848:	97ffffd1 	bl	8378c <_ZN8valkyrie6kernel8MiniUART13putchar_asyncEc>
   8384c:	f9401fe0 	ldr	x0, [sp, #56]
   83850:	91000400 	add	x0, x0, #0x1
   83854:	f9001fe0 	str	x0, [sp, #56]
   83858:	17ffffed 	b	8380c <_ZN8valkyrie6kernel8MiniUART10puts_asyncEPKcb+0x18>
   8385c:	39407fe0 	ldrb	w0, [sp, #31]
   83860:	7100001f 	cmp	w0, #0x0
   83864:	54000080 	b.eq	83874 <_ZN8valkyrie6kernel8MiniUART10puts_asyncEPKcb+0x80>  // b.none
   83868:	52800141 	mov	w1, #0xa                   	// #10
   8386c:	f94017e0 	ldr	x0, [sp, #40]
   83870:	97ffffc7 	bl	8378c <_ZN8valkyrie6kernel8MiniUART13putchar_asyncEc>
   83874:	d503201f 	nop
   83878:	a8c47bfd 	ldp	x29, x30, [sp], #64
   8387c:	d65f03c0 	ret

0000000000083880 <_ZNK8valkyrie6kernel8MiniUART12is_debuggingEv>:
   83880:	d10043ff 	sub	sp, sp, #0x10
   83884:	f90007e0 	str	x0, [sp, #8]
   83888:	f94007e0 	ldr	x0, [sp, #8]
   8388c:	39400000 	ldrb	w0, [x0]
   83890:	910043ff 	add	sp, sp, #0x10
   83894:	d65f03c0 	ret

0000000000083898 <_ZN8valkyrie6kernel8MiniUART13set_debuggingEb>:
   83898:	d10043ff 	sub	sp, sp, #0x10
   8389c:	f90007e0 	str	x0, [sp, #8]
   838a0:	39001fe1 	strb	w1, [sp, #7]
   838a4:	f94007e0 	ldr	x0, [sp, #8]
   838a8:	39401fe1 	ldrb	w1, [sp, #7]
   838ac:	39000001 	strb	w1, [x0]
   838b0:	d503201f 	nop
   838b4:	910043ff 	add	sp, sp, #0x10
   838b8:	d65f03c0 	ret

00000000000838bc <_ZN8valkyrie6kernel8MiniUART23set_read_buffer_enabledEb>:
   838bc:	d10043ff 	sub	sp, sp, #0x10
   838c0:	f90007e0 	str	x0, [sp, #8]
   838c4:	39001fe1 	strb	w1, [sp, #7]
   838c8:	f94007e0 	ldr	x0, [sp, #8]
   838cc:	39401fe1 	ldrb	w1, [sp, #7]
   838d0:	39000401 	strb	w1, [x0, #1]
   838d4:	d503201f 	nop
   838d8:	910043ff 	add	sp, sp, #0x10
   838dc:	d65f03c0 	ret

00000000000838e0 <_ZN8valkyrie6kernel8MiniUART24set_write_buffer_enabledEb>:
   838e0:	d10043ff 	sub	sp, sp, #0x10
   838e4:	f90007e0 	str	x0, [sp, #8]
   838e8:	39001fe1 	strb	w1, [sp, #7]
   838ec:	f94007e0 	ldr	x0, [sp, #8]
   838f0:	39401fe1 	ldrb	w1, [sp, #7]
   838f4:	39000801 	strb	w1, [x0, #2]
   838f8:	d503201f 	nop
   838fc:	910043ff 	add	sp, sp, #0x10
   83900:	d65f03c0 	ret

0000000000083904 <_ZN8valkyrie6kernel18PageFrameAllocatorC1Ev>:
   83904:	a9bd7bfd 	stp	x29, x30, [sp, #-48]!
   83908:	910003fd 	mov	x29, sp
   8390c:	f9000fe0 	str	x0, [sp, #24]
   83910:	f9400fe1 	ldr	x1, [sp, #24]
   83914:	d2803fe0 	mov	x0, #0x1ff                 	// #511
   83918:	f100001f 	cmp	x0, #0x0
   8391c:	540000ab 	b.lt	83930 <_ZN8valkyrie6kernel18PageFrameAllocatorC1Ev+0x2c>  // b.tstop
   83920:	3900003f 	strb	wzr, [x1]
   83924:	91000421 	add	x1, x1, #0x1
   83928:	d1000400 	sub	x0, x0, #0x1
   8392c:	17fffffb 	b	83918 <_ZN8valkyrie6kernel18PageFrameAllocatorC1Ev+0x14>
   83930:	f9400fe0 	ldr	x0, [sp, #24]
   83934:	d2804001 	mov	x1, #0x200                 	// #512
   83938:	f9010001 	str	x1, [x0, #512]
   8393c:	f9400fe0 	ldr	x0, [sp, #24]
   83940:	91082001 	add	x1, x0, #0x208
   83944:	d2800120 	mov	x0, #0x9                   	// #9
   83948:	f100001f 	cmp	x0, #0x0
   8394c:	540000ab 	b.lt	83960 <_ZN8valkyrie6kernel18PageFrameAllocatorC1Ev+0x5c>  // b.tstop
   83950:	f900003f 	str	xzr, [x1]
   83954:	91002021 	add	x1, x1, #0x8
   83958:	d1000400 	sub	x0, x0, #0x1
   8395c:	17fffffb 	b	83948 <_ZN8valkyrie6kernel18PageFrameAllocatorC1Ev+0x44>
   83960:	d2a00401 	mov	x1, #0x200000              	// #2097152
   83964:	f9400fe0 	ldr	x0, [sp, #24]
   83968:	940002c7 	bl	84484 <_ZN8valkyrie6kernel18PageFrameAllocator13size_to_orderEm>
   8396c:	b90027e0 	str	w0, [sp, #36]
   83970:	d2800020 	mov	x0, #0x1                   	// #1
   83974:	f90017e0 	str	x0, [sp, #40]
   83978:	f9400fe0 	ldr	x0, [sp, #24]
   8397c:	f9410000 	ldr	x0, [x0, #512]
   83980:	f94017e1 	ldr	x1, [sp, #40]
   83984:	eb00003f 	cmp	x1, x0
   83988:	54000142 	b.cs	839b0 <_ZN8valkyrie6kernel18PageFrameAllocatorC1Ev+0xac>  // b.hs, b.nlast
   8398c:	f9400fe1 	ldr	x1, [sp, #24]
   83990:	f94017e0 	ldr	x0, [sp, #40]
   83994:	8b000020 	add	x0, x1, x0
   83998:	12800021 	mov	w1, #0xfffffffe            	// #-2
   8399c:	39000001 	strb	w1, [x0]
   839a0:	f94017e0 	ldr	x0, [sp, #40]
   839a4:	91000400 	add	x0, x0, #0x1
   839a8:	f90017e0 	str	x0, [sp, #40]
   839ac:	17fffff3 	b	83978 <_ZN8valkyrie6kernel18PageFrameAllocatorC1Ev+0x74>
   839b0:	b94027e0 	ldr	w0, [sp, #36]
   839b4:	12001c01 	and	w1, w0, #0xff
   839b8:	f9400fe0 	ldr	x0, [sp, #24]
   839bc:	39000001 	strb	w1, [x0]
   839c0:	f9400fe1 	ldr	x1, [sp, #24]
   839c4:	b98027e0 	ldrsw	x0, [sp, #36]
   839c8:	91010000 	add	x0, x0, #0x40
   839cc:	d37df000 	lsl	x0, x0, #3
   839d0:	8b000020 	add	x0, x1, x0
   839d4:	d2a20001 	mov	x1, #0x10000000            	// #268435456
   839d8:	f9000401 	str	x1, [x0, #8]
   839dc:	f9400fe0 	ldr	x0, [sp, #24]
   839e0:	39400002 	ldrb	w2, [x0]
   839e4:	f9400fe1 	ldr	x1, [sp, #24]
   839e8:	b98027e0 	ldrsw	x0, [sp, #36]
   839ec:	91010000 	add	x0, x0, #0x40
   839f0:	d37df000 	lsl	x0, x0, #3
   839f4:	8b000020 	add	x0, x1, x0
   839f8:	f9400400 	ldr	x0, [x0, #8]
   839fc:	92401c41 	and	x1, x2, #0xff
   83a00:	f9000401 	str	x1, [x0, #8]
   83a04:	f9400fe1 	ldr	x1, [sp, #24]
   83a08:	b98027e0 	ldrsw	x0, [sp, #36]
   83a0c:	91010000 	add	x0, x0, #0x40
   83a10:	d37df000 	lsl	x0, x0, #3
   83a14:	8b000020 	add	x0, x1, x0
   83a18:	f9400400 	ldr	x0, [x0, #8]
   83a1c:	f900001f 	str	xzr, [x0]
   83a20:	d503201f 	nop
   83a24:	a8c37bfd 	ldp	x29, x30, [sp], #48
   83a28:	d65f03c0 	ret

0000000000083a2c <_ZN8valkyrie6kernel18PageFrameAllocator8allocateEm>:
   83a2c:	a9bd7bfd 	stp	x29, x30, [sp, #-48]!
   83a30:	910003fd 	mov	x29, sp
   83a34:	f9000fe0 	str	x0, [sp, #24]
   83a38:	f9000be1 	str	x1, [sp, #16]
   83a3c:	f9400be0 	ldr	x0, [sp, #16]
   83a40:	f100001f 	cmp	x0, #0x0
   83a44:	1a9f17e0 	cset	w0, eq  // eq = none
   83a48:	12001c00 	and	w0, w0, #0xff
   83a4c:	92401c00 	and	x0, x0, #0xff
   83a50:	f100001f 	cmp	x0, #0x0
   83a54:	54000060 	b.eq	83a60 <_ZN8valkyrie6kernel18PageFrameAllocator8allocateEm+0x34>  // b.none
   83a58:	d2800000 	mov	x0, #0x0                   	// #0
   83a5c:	14000066 	b	83bf4 <_ZN8valkyrie6kernel18PageFrameAllocator8allocateEm+0x1c8>
   83a60:	f9400be0 	ldr	x0, [sp, #16]
   83a64:	91004000 	add	x0, x0, #0x10
   83a68:	aa0003e1 	mov	x1, x0
   83a6c:	f9400fe0 	ldr	x0, [sp, #24]
   83a70:	9400027d 	bl	84464 <_ZN8valkyrie6kernel18PageFrameAllocator14normalize_sizeEm>
   83a74:	f9000be0 	str	x0, [sp, #16]
   83a78:	f9400be0 	ldr	x0, [sp, #16]
   83a7c:	aa0003e1 	mov	x1, x0
   83a80:	f9400fe0 	ldr	x0, [sp, #24]
   83a84:	94000280 	bl	84484 <_ZN8valkyrie6kernel18PageFrameAllocator13size_to_orderEm>
   83a88:	b9002fe0 	str	w0, [sp, #44]
   83a8c:	b9402fe0 	ldr	w0, [sp, #44]
   83a90:	7100241f 	cmp	w0, #0x9
   83a94:	1a9fd7e0 	cset	w0, gt
   83a98:	12001c00 	and	w0, w0, #0xff
   83a9c:	92401c00 	and	x0, x0, #0xff
   83aa0:	f100001f 	cmp	x0, #0x0
   83aa4:	54000100 	b.eq	83ac4 <_ZN8valkyrie6kernel18PageFrameAllocator8allocateEm+0x98>  // b.none
   83aa8:	910043e0 	add	x0, sp, #0x10
   83aac:	aa0003e1 	mov	x1, x0
   83ab0:	b0000020 	adrp	x0, 88000 <_ZN8valkyrie6kernel16TimerMultiplexer4tickEv+0x18>
   83ab4:	913f8000 	add	x0, x0, #0xfe0
   83ab8:	94002d99 	bl	8f11c <_Z6printkIJRmEEvPKcDpOT_>
   83abc:	d2800000 	mov	x0, #0x0                   	// #0
   83ac0:	1400004d 	b	83bf4 <_ZN8valkyrie6kernel18PageFrameAllocator8allocateEm+0x1c8>
   83ac4:	f90013ff 	str	xzr, [sp, #32]
   83ac8:	f9400fe1 	ldr	x1, [sp, #24]
   83acc:	b9802fe0 	ldrsw	x0, [sp, #44]
   83ad0:	91010000 	add	x0, x0, #0x40
   83ad4:	d37df000 	lsl	x0, x0, #3
   83ad8:	8b000020 	add	x0, x1, x0
   83adc:	f9400400 	ldr	x0, [x0, #8]
   83ae0:	f90013e0 	str	x0, [sp, #32]
   83ae4:	f94013e0 	ldr	x0, [sp, #32]
   83ae8:	f100001f 	cmp	x0, #0x0
   83aec:	1a9f07e0 	cset	w0, ne  // ne = any
   83af0:	12001c00 	and	w0, w0, #0xff
   83af4:	92401c00 	and	x0, x0, #0xff
   83af8:	f100001f 	cmp	x0, #0x0
   83afc:	1a9f07e0 	cset	w0, ne  // ne = any
   83b00:	12001c00 	and	w0, w0, #0xff
   83b04:	7100001f 	cmp	w0, #0x0
   83b08:	54000100 	b.eq	83b28 <_ZN8valkyrie6kernel18PageFrameAllocator8allocateEm+0xfc>  // b.none
   83b0c:	f94013e1 	ldr	x1, [sp, #32]
   83b10:	f9400fe0 	ldr	x0, [sp, #24]
   83b14:	940000ef 	bl	83ed0 <_ZN8valkyrie6kernel18PageFrameAllocator23mark_block_as_allocatedEPKNS1_5BlockE>
   83b18:	f94013e1 	ldr	x1, [sp, #32]
   83b1c:	f9400fe0 	ldr	x0, [sp, #24]
   83b20:	94000135 	bl	83ff4 <_ZN8valkyrie6kernel18PageFrameAllocator18free_list_del_headEPNS1_5BlockE>
   83b24:	14000032 	b	83bec <_ZN8valkyrie6kernel18PageFrameAllocator8allocateEm+0x1c0>
   83b28:	b9402fe0 	ldr	w0, [sp, #44]
   83b2c:	7100241f 	cmp	w0, #0x9
   83b30:	540002ac 	b.gt	83b84 <_ZN8valkyrie6kernel18PageFrameAllocator8allocateEm+0x158>
   83b34:	f9400fe1 	ldr	x1, [sp, #24]
   83b38:	b9802fe0 	ldrsw	x0, [sp, #44]
   83b3c:	91010000 	add	x0, x0, #0x40
   83b40:	d37df000 	lsl	x0, x0, #3
   83b44:	8b000020 	add	x0, x1, x0
   83b48:	f9400400 	ldr	x0, [x0, #8]
   83b4c:	f100001f 	cmp	x0, #0x0
   83b50:	54000120 	b.eq	83b74 <_ZN8valkyrie6kernel18PageFrameAllocator8allocateEm+0x148>  // b.none
   83b54:	f9400fe1 	ldr	x1, [sp, #24]
   83b58:	b9802fe0 	ldrsw	x0, [sp, #44]
   83b5c:	91010000 	add	x0, x0, #0x40
   83b60:	d37df000 	lsl	x0, x0, #3
   83b64:	8b000020 	add	x0, x1, x0
   83b68:	f9400400 	ldr	x0, [x0, #8]
   83b6c:	f90013e0 	str	x0, [sp, #32]
   83b70:	14000005 	b	83b84 <_ZN8valkyrie6kernel18PageFrameAllocator8allocateEm+0x158>
   83b74:	b9402fe0 	ldr	w0, [sp, #44]
   83b78:	11000400 	add	w0, w0, #0x1
   83b7c:	b9002fe0 	str	w0, [sp, #44]
   83b80:	17ffffea 	b	83b28 <_ZN8valkyrie6kernel18PageFrameAllocator8allocateEm+0xfc>
   83b84:	b9402fe0 	ldr	w0, [sp, #44]
   83b88:	7100241f 	cmp	w0, #0x9
   83b8c:	1a9fd7e0 	cset	w0, gt
   83b90:	12001c00 	and	w0, w0, #0xff
   83b94:	92401c00 	and	x0, x0, #0xff
   83b98:	f100001f 	cmp	x0, #0x0
   83b9c:	54000100 	b.eq	83bbc <_ZN8valkyrie6kernel18PageFrameAllocator8allocateEm+0x190>  // b.none
   83ba0:	910043e0 	add	x0, sp, #0x10
   83ba4:	aa0003e1 	mov	x1, x0
   83ba8:	b0000020 	adrp	x0, 88000 <_ZN8valkyrie6kernel16TimerMultiplexer4tickEv+0x18>
   83bac:	913f8000 	add	x0, x0, #0xfe0
   83bb0:	94002d5b 	bl	8f11c <_Z6printkIJRmEEvPKcDpOT_>
   83bb4:	d2800000 	mov	x0, #0x0                   	// #0
   83bb8:	1400000f 	b	83bf4 <_ZN8valkyrie6kernel18PageFrameAllocator8allocateEm+0x1c8>
   83bbc:	f9400be0 	ldr	x0, [sp, #16]
   83bc0:	aa0003e1 	mov	x1, x0
   83bc4:	f9400fe0 	ldr	x0, [sp, #24]
   83bc8:	9400022f 	bl	84484 <_ZN8valkyrie6kernel18PageFrameAllocator13size_to_orderEm>
   83bcc:	2a0003e2 	mov	w2, w0
   83bd0:	f94013e1 	ldr	x1, [sp, #32]
   83bd4:	f9400fe0 	ldr	x0, [sp, #24]
   83bd8:	940001b7 	bl	842b4 <_ZN8valkyrie6kernel18PageFrameAllocator11split_blockEPNS1_5BlockEi>
   83bdc:	f90013e0 	str	x0, [sp, #32]
   83be0:	f94013e1 	ldr	x1, [sp, #32]
   83be4:	f9400fe0 	ldr	x0, [sp, #24]
   83be8:	940000ba 	bl	83ed0 <_ZN8valkyrie6kernel18PageFrameAllocator23mark_block_as_allocatedEPKNS1_5BlockE>
   83bec:	f94013e0 	ldr	x0, [sp, #32]
   83bf0:	91004000 	add	x0, x0, #0x10
   83bf4:	a8c37bfd 	ldp	x29, x30, [sp], #48
   83bf8:	d65f03c0 	ret

0000000000083bfc <_ZN8valkyrie6kernel18PageFrameAllocator10deallocateEPv>:
   83bfc:	a9bd7bfd 	stp	x29, x30, [sp, #-48]!
   83c00:	910003fd 	mov	x29, sp
   83c04:	f9000fe0 	str	x0, [sp, #24]
   83c08:	f9000be1 	str	x1, [sp, #16]
   83c0c:	f9400be0 	ldr	x0, [sp, #16]
   83c10:	f100001f 	cmp	x0, #0x0
   83c14:	1a9f17e0 	cset	w0, eq  // eq = none
   83c18:	12001c00 	and	w0, w0, #0xff
   83c1c:	92401c00 	and	x0, x0, #0xff
   83c20:	f100001f 	cmp	x0, #0x0
   83c24:	540007a1 	b.ne	83d18 <_ZN8valkyrie6kernel18PageFrameAllocator10deallocateEPv+0x11c>  // b.any
   83c28:	f9400be0 	ldr	x0, [sp, #16]
   83c2c:	d1004000 	sub	x0, x0, #0x10
   83c30:	f90017e0 	str	x0, [sp, #40]
   83c34:	f94017e0 	ldr	x0, [sp, #40]
   83c38:	aa0003e1 	mov	x1, x0
   83c3c:	f9400fe0 	ldr	x0, [sp, #24]
   83c40:	940001f8 	bl	84420 <_ZN8valkyrie6kernel18PageFrameAllocator9get_buddyEPNS1_5BlockE>
   83c44:	f90013e0 	str	x0, [sp, #32]
   83c48:	f94013e0 	ldr	x0, [sp, #32]
   83c4c:	aa0003e1 	mov	x1, x0
   83c50:	f9400fe0 	ldr	x0, [sp, #24]
   83c54:	94000215 	bl	844a8 <_ZN8valkyrie6kernel18PageFrameAllocator18is_block_allocatedEPKNS1_5BlockE>
   83c58:	12001c00 	and	w0, w0, #0xff
   83c5c:	52000000 	eor	w0, w0, #0x1
   83c60:	12001c00 	and	w0, w0, #0xff
   83c64:	7100001f 	cmp	w0, #0x0
   83c68:	540000e0 	b.eq	83c84 <_ZN8valkyrie6kernel18PageFrameAllocator10deallocateEPv+0x88>  // b.none
   83c6c:	f94017e0 	ldr	x0, [sp, #40]
   83c70:	f9400400 	ldr	x0, [x0, #8]
   83c74:	f100201f 	cmp	x0, #0x8
   83c78:	5400006c 	b.gt	83c84 <_ZN8valkyrie6kernel18PageFrameAllocator10deallocateEPv+0x88>
   83c7c:	52800020 	mov	w0, #0x1                   	// #1
   83c80:	14000002 	b	83c88 <_ZN8valkyrie6kernel18PageFrameAllocator10deallocateEPv+0x8c>
   83c84:	52800000 	mov	w0, #0x0                   	// #0
   83c88:	7100001f 	cmp	w0, #0x0
   83c8c:	54000340 	b.eq	83cf4 <_ZN8valkyrie6kernel18PageFrameAllocator10deallocateEPv+0xf8>  // b.none
   83c90:	f94013e0 	ldr	x0, [sp, #32]
   83c94:	aa0003e1 	mov	x1, x0
   83c98:	f9400fe0 	ldr	x0, [sp, #24]
   83c9c:	9400014b 	bl	841c8 <_ZN8valkyrie6kernel18PageFrameAllocator19free_list_del_entryEPNS1_5BlockE>
   83ca0:	f94017e0 	ldr	x0, [sp, #40]
   83ca4:	aa0003e1 	mov	x1, x0
   83ca8:	f9400fe0 	ldr	x0, [sp, #24]
   83cac:	940000aa 	bl	83f54 <_ZN8valkyrie6kernel18PageFrameAllocator25mark_block_as_allocatableEPKNS1_5BlockE>
   83cb0:	f94017e1 	ldr	x1, [sp, #40]
   83cb4:	f94013e0 	ldr	x0, [sp, #32]
   83cb8:	eb00003f 	cmp	x1, x0
   83cbc:	54000089 	b.ls	83ccc <_ZN8valkyrie6kernel18PageFrameAllocator10deallocateEPv+0xd0>  // b.plast
   83cc0:	910083e1 	add	x1, sp, #0x20
   83cc4:	9100a3e0 	add	x0, sp, #0x28
   83cc8:	94002d4e 	bl	8f200 <_ZN8valkyrie6kernel4swapIPNS0_18PageFrameAllocator5BlockEEEvRT_S6_>
   83ccc:	f94017e0 	ldr	x0, [sp, #40]
   83cd0:	f9400401 	ldr	x1, [x0, #8]
   83cd4:	91000421 	add	x1, x1, #0x1
   83cd8:	f9000401 	str	x1, [x0, #8]
   83cdc:	f94017e0 	ldr	x0, [sp, #40]
   83ce0:	aa0003e1 	mov	x1, x0
   83ce4:	f9400fe0 	ldr	x0, [sp, #24]
   83ce8:	940001ce 	bl	84420 <_ZN8valkyrie6kernel18PageFrameAllocator9get_buddyEPNS1_5BlockE>
   83cec:	f90013e0 	str	x0, [sp, #32]
   83cf0:	17ffffd6 	b	83c48 <_ZN8valkyrie6kernel18PageFrameAllocator10deallocateEPv+0x4c>
   83cf4:	f94017e0 	ldr	x0, [sp, #40]
   83cf8:	aa0003e1 	mov	x1, x0
   83cfc:	f9400fe0 	ldr	x0, [sp, #24]
   83d00:	940000ed 	bl	840b4 <_ZN8valkyrie6kernel18PageFrameAllocator18free_list_add_headEPNS1_5BlockE>
   83d04:	f94017e0 	ldr	x0, [sp, #40]
   83d08:	aa0003e1 	mov	x1, x0
   83d0c:	f9400fe0 	ldr	x0, [sp, #24]
   83d10:	94000091 	bl	83f54 <_ZN8valkyrie6kernel18PageFrameAllocator25mark_block_as_allocatableEPKNS1_5BlockE>
   83d14:	14000002 	b	83d1c <_ZN8valkyrie6kernel18PageFrameAllocator10deallocateEPv+0x120>
   83d18:	d503201f 	nop
   83d1c:	a8c37bfd 	ldp	x29, x30, [sp], #48
   83d20:	d65f03c0 	ret

0000000000083d24 <_ZNK8valkyrie6kernel18PageFrameAllocator15dump_memory_mapEv>:
   83d24:	a9bc7bfd 	stp	x29, x30, [sp, #-64]!
   83d28:	910003fd 	mov	x29, sp
   83d2c:	f9000fe0 	str	x0, [sp, #24]
   83d30:	52800021 	mov	w1, #0x1                   	// #1
   83d34:	d0000020 	adrp	x0, 89000 <_ZN8valkyrie6kernel8FunctionIFvvEE12CallableImplIZNS0_16__run_unit_testsEvEUlvE_E4callEv+0x5e8>
   83d38:	91004000 	add	x0, x0, #0x10
   83d3c:	97fff19a 	bl	803a4 <puts>
   83d40:	f9001fff 	str	xzr, [sp, #56]
   83d44:	f9400fe0 	ldr	x0, [sp, #24]
   83d48:	f9410001 	ldr	x1, [x0, #512]
   83d4c:	f9401fe0 	ldr	x0, [sp, #56]
   83d50:	eb00003f 	cmp	x1, x0
   83d54:	54000349 	b.ls	83dbc <_ZNK8valkyrie6kernel18PageFrameAllocator15dump_memory_mapEv+0x98>  // b.plast
   83d58:	f9401fe0 	ldr	x0, [sp, #56]
   83d5c:	f9400fe1 	ldr	x1, [sp, #24]
   83d60:	38606820 	ldrb	w0, [x1, x0]
   83d64:	7103f81f 	cmp	w0, #0xfe
   83d68:	54000220 	b.eq	83dac <_ZNK8valkyrie6kernel18PageFrameAllocator15dump_memory_mapEv+0x88>  // b.none
   83d6c:	f9401fe0 	ldr	x0, [sp, #56]
   83d70:	f9400fe1 	ldr	x1, [sp, #24]
   83d74:	38606820 	ldrb	w0, [x1, x0]
   83d78:	7103fc1f 	cmp	w0, #0xff
   83d7c:	540000e1 	b.ne	83d98 <_ZNK8valkyrie6kernel18PageFrameAllocator15dump_memory_mapEv+0x74>  // b.any
   83d80:	9100e3e0 	add	x0, sp, #0x38
   83d84:	aa0003e1 	mov	x1, x0
   83d88:	d0000020 	adrp	x0, 89000 <_ZN8valkyrie6kernel8FunctionIFvvEE12CallableImplIZNS0_16__run_unit_testsEvEUlvE_E4callEv+0x5e8>
   83d8c:	9100a000 	add	x0, x0, #0x28
   83d90:	94002d31 	bl	8f254 <_Z6printfIJRmEEvPKcDpOT_>
   83d94:	14000006 	b	83dac <_ZNK8valkyrie6kernel18PageFrameAllocator15dump_memory_mapEv+0x88>
   83d98:	9100e3e0 	add	x0, sp, #0x38
   83d9c:	aa0003e1 	mov	x1, x0
   83da0:	d0000020 	adrp	x0, 89000 <_ZN8valkyrie6kernel8FunctionIFvvEE12CallableImplIZNS0_16__run_unit_testsEvEUlvE_E4callEv+0x5e8>
   83da4:	91014000 	add	x0, x0, #0x50
   83da8:	94002d2b 	bl	8f254 <_Z6printfIJRmEEvPKcDpOT_>
   83dac:	f9401fe0 	ldr	x0, [sp, #56]
   83db0:	91000400 	add	x0, x0, #0x1
   83db4:	f9001fe0 	str	x0, [sp, #56]
   83db8:	17ffffe3 	b	83d44 <_ZNK8valkyrie6kernel18PageFrameAllocator15dump_memory_mapEv+0x20>
   83dbc:	52800021 	mov	w1, #0x1                   	// #1
   83dc0:	d0000020 	adrp	x0, 89000 <_ZN8valkyrie6kernel8FunctionIFvvEE12CallableImplIZNS0_16__run_unit_testsEvEUlvE_E4callEv+0x5e8>
   83dc4:	9101e000 	add	x0, x0, #0x78
   83dc8:	97fff177 	bl	803a4 <puts>
   83dcc:	b90037ff 	str	wzr, [sp, #52]
   83dd0:	b94037e0 	ldr	w0, [sp, #52]
   83dd4:	7100241f 	cmp	w0, #0x9
   83dd8:	5400048c 	b.gt	83e68 <_ZNK8valkyrie6kernel18PageFrameAllocator15dump_memory_mapEv+0x144>
   83ddc:	9100d3e0 	add	x0, sp, #0x34
   83de0:	aa0003e1 	mov	x1, x0
   83de4:	d0000020 	adrp	x0, 89000 <_ZN8valkyrie6kernel8FunctionIFvvEE12CallableImplIZNS0_16__run_unit_testsEvEUlvE_E4callEv+0x5e8>
   83de8:	91020000 	add	x0, x0, #0x80
   83dec:	94002cc0 	bl	8f0ec <_Z6printfIJRiEEvPKcDpOT_>
   83df0:	b94037e0 	ldr	w0, [sp, #52]
   83df4:	f9400fe1 	ldr	x1, [sp, #24]
   83df8:	93407c00 	sxtw	x0, w0
   83dfc:	91010000 	add	x0, x0, #0x40
   83e00:	d37df000 	lsl	x0, x0, #3
   83e04:	8b000020 	add	x0, x1, x0
   83e08:	f9400400 	ldr	x0, [x0, #8]
   83e0c:	f90017e0 	str	x0, [sp, #40]
   83e10:	f94017e0 	ldr	x0, [sp, #40]
   83e14:	f100001f 	cmp	x0, #0x0
   83e18:	540001a0 	b.eq	83e4c <_ZNK8valkyrie6kernel18PageFrameAllocator15dump_memory_mapEv+0x128>  // b.none
   83e1c:	f94017e0 	ldr	x0, [sp, #40]
   83e20:	91002000 	add	x0, x0, #0x8
   83e24:	9100a3e1 	add	x1, sp, #0x28
   83e28:	aa0103e2 	mov	x2, x1
   83e2c:	aa0003e1 	mov	x1, x0
   83e30:	d0000020 	adrp	x0, 89000 <_ZN8valkyrie6kernel8FunctionIFvvEE12CallableImplIZNS0_16__run_unit_testsEvEUlvE_E4callEv+0x5e8>
   83e34:	91026000 	add	x0, x0, #0x98
   83e38:	94002d13 	bl	8f284 <_Z6printfIJRxRPN8valkyrie6kernel18PageFrameAllocator5BlockEEEvPKcDpOT_>
   83e3c:	f94017e0 	ldr	x0, [sp, #40]
   83e40:	f9400000 	ldr	x0, [x0]
   83e44:	f90017e0 	str	x0, [sp, #40]
   83e48:	17fffff2 	b	83e10 <_ZNK8valkyrie6kernel18PageFrameAllocator15dump_memory_mapEv+0xec>
   83e4c:	d0000020 	adrp	x0, 89000 <_ZN8valkyrie6kernel8FunctionIFvvEE12CallableImplIZNS0_16__run_unit_testsEvEUlvE_E4callEv+0x5e8>
   83e50:	9102a000 	add	x0, x0, #0xa8
   83e54:	94002874 	bl	8e024 <_Z6printfIJEEvPKcDpOT_>
   83e58:	b94037e0 	ldr	w0, [sp, #52]
   83e5c:	11000400 	add	w0, w0, #0x1
   83e60:	b90037e0 	str	w0, [sp, #52]
   83e64:	17ffffdb 	b	83dd0 <_ZNK8valkyrie6kernel18PageFrameAllocator15dump_memory_mapEv+0xac>
   83e68:	52800021 	mov	w1, #0x1                   	// #1
   83e6c:	d0000020 	adrp	x0, 89000 <_ZN8valkyrie6kernel8FunctionIFvvEE12CallableImplIZNS0_16__run_unit_testsEvEUlvE_E4callEv+0x5e8>
   83e70:	9102c000 	add	x0, x0, #0xb0
   83e74:	97fff14c 	bl	803a4 <puts>
   83e78:	d503201f 	nop
   83e7c:	a8c47bfd 	ldp	x29, x30, [sp], #64
   83e80:	d65f03c0 	ret

0000000000083e84 <_ZN8valkyrie6kernel18PageFrameAllocator23allocate_one_page_frameEv>:
   83e84:	a9be7bfd 	stp	x29, x30, [sp, #-32]!
   83e88:	910003fd 	mov	x29, sp
   83e8c:	f9000fe0 	str	x0, [sp, #24]
   83e90:	d281fe01 	mov	x1, #0xff0                 	// #4080
   83e94:	f9400fe0 	ldr	x0, [sp, #24]
   83e98:	97fffee5 	bl	83a2c <_ZN8valkyrie6kernel18PageFrameAllocator8allocateEm>
   83e9c:	a8c27bfd 	ldp	x29, x30, [sp], #32
   83ea0:	d65f03c0 	ret

0000000000083ea4 <_ZN8valkyrie6kernel18PageFrameAllocator21get_block_header_sizeEv>:
   83ea4:	d2800200 	mov	x0, #0x10                  	// #16
   83ea8:	d65f03c0 	ret

0000000000083eac <_ZNK8valkyrie6kernel18PageFrameAllocator20get_page_frame_indexEPKNS1_5BlockE>:
   83eac:	d10043ff 	sub	sp, sp, #0x10
   83eb0:	f90007e0 	str	x0, [sp, #8]
   83eb4:	f90003e1 	str	x1, [sp]
   83eb8:	f94003e1 	ldr	x1, [sp]
   83ebc:	b2648fe0 	mov	x0, #0xfffffffff0000000    	// #-268435456
   83ec0:	8b000020 	add	x0, x1, x0
   83ec4:	d34cfc00 	lsr	x0, x0, #12
   83ec8:	910043ff 	add	sp, sp, #0x10
   83ecc:	d65f03c0 	ret

0000000000083ed0 <_ZN8valkyrie6kernel18PageFrameAllocator23mark_block_as_allocatedEPKNS1_5BlockE>:
   83ed0:	a9bd7bfd 	stp	x29, x30, [sp, #-48]!
   83ed4:	910003fd 	mov	x29, sp
   83ed8:	f9000fe0 	str	x0, [sp, #24]
   83edc:	f9000be1 	str	x1, [sp, #16]
   83ee0:	f9400be1 	ldr	x1, [sp, #16]
   83ee4:	f9400fe0 	ldr	x0, [sp, #24]
   83ee8:	97fffff1 	bl	83eac <_ZNK8valkyrie6kernel18PageFrameAllocator20get_page_frame_indexEPKNS1_5BlockE>
   83eec:	b9002be0 	str	w0, [sp, #40]
   83ef0:	f9400be0 	ldr	x0, [sp, #16]
   83ef4:	f9400400 	ldr	x0, [x0, #8]
   83ef8:	2a0003e1 	mov	w1, w0
   83efc:	52800040 	mov	w0, #0x2                   	// #2
   83f00:	97fffac6 	bl	82a18 <_ZN8valkyrie6kernel3powEii>
   83f04:	b90027e0 	str	w0, [sp, #36]
   83f08:	b9002fff 	str	wzr, [sp, #44]
   83f0c:	b9402fe1 	ldr	w1, [sp, #44]
   83f10:	b94027e0 	ldr	w0, [sp, #36]
   83f14:	6b00003f 	cmp	w1, w0
   83f18:	5400018a 	b.ge	83f48 <_ZN8valkyrie6kernel18PageFrameAllocator23mark_block_as_allocatedEPKNS1_5BlockE+0x78>  // b.tcont
   83f1c:	b9402be1 	ldr	w1, [sp, #40]
   83f20:	b9402fe0 	ldr	w0, [sp, #44]
   83f24:	0b000020 	add	w0, w1, w0
   83f28:	f9400fe1 	ldr	x1, [sp, #24]
   83f2c:	93407c00 	sxtw	x0, w0
   83f30:	12800002 	mov	w2, #0xffffffff            	// #-1
   83f34:	38206822 	strb	w2, [x1, x0]
   83f38:	b9402fe0 	ldr	w0, [sp, #44]
   83f3c:	11000400 	add	w0, w0, #0x1
   83f40:	b9002fe0 	str	w0, [sp, #44]
   83f44:	17fffff2 	b	83f0c <_ZN8valkyrie6kernel18PageFrameAllocator23mark_block_as_allocatedEPKNS1_5BlockE+0x3c>
   83f48:	d503201f 	nop
   83f4c:	a8c37bfd 	ldp	x29, x30, [sp], #48
   83f50:	d65f03c0 	ret

0000000000083f54 <_ZN8valkyrie6kernel18PageFrameAllocator25mark_block_as_allocatableEPKNS1_5BlockE>:
   83f54:	a9bd7bfd 	stp	x29, x30, [sp, #-48]!
   83f58:	910003fd 	mov	x29, sp
   83f5c:	f9000fe0 	str	x0, [sp, #24]
   83f60:	f9000be1 	str	x1, [sp, #16]
   83f64:	f9400be1 	ldr	x1, [sp, #16]
   83f68:	f9400fe0 	ldr	x0, [sp, #24]
   83f6c:	97ffffd0 	bl	83eac <_ZNK8valkyrie6kernel18PageFrameAllocator20get_page_frame_indexEPKNS1_5BlockE>
   83f70:	b9002be0 	str	w0, [sp, #40]
   83f74:	f9400be0 	ldr	x0, [sp, #16]
   83f78:	f9400400 	ldr	x0, [x0, #8]
   83f7c:	2a0003e1 	mov	w1, w0
   83f80:	52800040 	mov	w0, #0x2                   	// #2
   83f84:	97fffaa5 	bl	82a18 <_ZN8valkyrie6kernel3powEii>
   83f88:	b90027e0 	str	w0, [sp, #36]
   83f8c:	f9400be0 	ldr	x0, [sp, #16]
   83f90:	f9400400 	ldr	x0, [x0, #8]
   83f94:	12001c02 	and	w2, w0, #0xff
   83f98:	f9400fe1 	ldr	x1, [sp, #24]
   83f9c:	b9802be0 	ldrsw	x0, [sp, #40]
   83fa0:	38206822 	strb	w2, [x1, x0]
   83fa4:	52800020 	mov	w0, #0x1                   	// #1
   83fa8:	b9002fe0 	str	w0, [sp, #44]
   83fac:	b9402fe1 	ldr	w1, [sp, #44]
   83fb0:	b94027e0 	ldr	w0, [sp, #36]
   83fb4:	6b00003f 	cmp	w1, w0
   83fb8:	5400018a 	b.ge	83fe8 <_ZN8valkyrie6kernel18PageFrameAllocator25mark_block_as_allocatableEPKNS1_5BlockE+0x94>  // b.tcont
   83fbc:	b9402be1 	ldr	w1, [sp, #40]
   83fc0:	b9402fe0 	ldr	w0, [sp, #44]
   83fc4:	0b000020 	add	w0, w1, w0
   83fc8:	f9400fe1 	ldr	x1, [sp, #24]
   83fcc:	93407c00 	sxtw	x0, w0
   83fd0:	12800022 	mov	w2, #0xfffffffe            	// #-2
   83fd4:	38206822 	strb	w2, [x1, x0]
   83fd8:	b9402fe0 	ldr	w0, [sp, #44]
   83fdc:	11000400 	add	w0, w0, #0x1
   83fe0:	b9002fe0 	str	w0, [sp, #44]
   83fe4:	17fffff2 	b	83fac <_ZN8valkyrie6kernel18PageFrameAllocator25mark_block_as_allocatableEPKNS1_5BlockE+0x58>
   83fe8:	d503201f 	nop
   83fec:	a8c37bfd 	ldp	x29, x30, [sp], #48
   83ff0:	d65f03c0 	ret

0000000000083ff4 <_ZN8valkyrie6kernel18PageFrameAllocator18free_list_del_headEPNS1_5BlockE>:
   83ff4:	a9be7bfd 	stp	x29, x30, [sp, #-32]!
   83ff8:	910003fd 	mov	x29, sp
   83ffc:	f9000fe0 	str	x0, [sp, #24]
   84000:	f9000be1 	str	x1, [sp, #16]
   84004:	f9400be0 	ldr	x0, [sp, #16]
   84008:	f100001f 	cmp	x0, #0x0
   8400c:	1a9f17e0 	cset	w0, eq  // eq = none
   84010:	12001c00 	and	w0, w0, #0xff
   84014:	92401c00 	and	x0, x0, #0xff
   84018:	f100001f 	cmp	x0, #0x0
   8401c:	54000080 	b.eq	8402c <_ZN8valkyrie6kernel18PageFrameAllocator18free_list_del_headEPNS1_5BlockE+0x38>  // b.none
   84020:	b0000020 	adrp	x0, 89000 <_ZN8valkyrie6kernel8FunctionIFvvEE12CallableImplIZNS0_16__run_unit_testsEvEUlvE_E4callEv+0x5e8>
   84024:	91034000 	add	x0, x0, #0xd0
   84028:	9400275d 	bl	8dd9c <_ZN8valkyrie6kernel6Kernel5panicIJEEEvPKcDpOT_>
   8402c:	f9400be0 	ldr	x0, [sp, #16]
   84030:	f9400400 	ldr	x0, [x0, #8]
   84034:	f9400fe1 	ldr	x1, [sp, #24]
   84038:	91010000 	add	x0, x0, #0x40
   8403c:	d37df000 	lsl	x0, x0, #3
   84040:	8b000020 	add	x0, x1, x0
   84044:	f9400400 	ldr	x0, [x0, #8]
   84048:	f100001f 	cmp	x0, #0x0
   8404c:	1a9f17e0 	cset	w0, eq  // eq = none
   84050:	12001c00 	and	w0, w0, #0xff
   84054:	92401c00 	and	x0, x0, #0xff
   84058:	f100001f 	cmp	x0, #0x0
   8405c:	54000261 	b.ne	840a8 <_ZN8valkyrie6kernel18PageFrameAllocator18free_list_del_headEPNS1_5BlockE+0xb4>  // b.any
   84060:	f9400be0 	ldr	x0, [sp, #16]
   84064:	f9400400 	ldr	x0, [x0, #8]
   84068:	f9400fe1 	ldr	x1, [sp, #24]
   8406c:	91010000 	add	x0, x0, #0x40
   84070:	d37df000 	lsl	x0, x0, #3
   84074:	8b000020 	add	x0, x1, x0
   84078:	f9400401 	ldr	x1, [x0, #8]
   8407c:	f9400be0 	ldr	x0, [sp, #16]
   84080:	f9400400 	ldr	x0, [x0, #8]
   84084:	f9400021 	ldr	x1, [x1]
   84088:	f9400fe2 	ldr	x2, [sp, #24]
   8408c:	91010000 	add	x0, x0, #0x40
   84090:	d37df000 	lsl	x0, x0, #3
   84094:	8b000040 	add	x0, x2, x0
   84098:	f9000401 	str	x1, [x0, #8]
   8409c:	f9400be0 	ldr	x0, [sp, #16]
   840a0:	f900001f 	str	xzr, [x0]
   840a4:	14000002 	b	840ac <_ZN8valkyrie6kernel18PageFrameAllocator18free_list_del_headEPNS1_5BlockE+0xb8>
   840a8:	d503201f 	nop
   840ac:	a8c27bfd 	ldp	x29, x30, [sp], #32
   840b0:	d65f03c0 	ret

00000000000840b4 <_ZN8valkyrie6kernel18PageFrameAllocator18free_list_add_headEPNS1_5BlockE>:
   840b4:	a9be7bfd 	stp	x29, x30, [sp, #-32]!
   840b8:	910003fd 	mov	x29, sp
   840bc:	f9000fe0 	str	x0, [sp, #24]
   840c0:	f9000be1 	str	x1, [sp, #16]
   840c4:	f9400be0 	ldr	x0, [sp, #16]
   840c8:	f100001f 	cmp	x0, #0x0
   840cc:	1a9f17e0 	cset	w0, eq  // eq = none
   840d0:	12001c00 	and	w0, w0, #0xff
   840d4:	92401c00 	and	x0, x0, #0xff
   840d8:	f100001f 	cmp	x0, #0x0
   840dc:	54000080 	b.eq	840ec <_ZN8valkyrie6kernel18PageFrameAllocator18free_list_add_headEPNS1_5BlockE+0x38>  // b.none
   840e0:	b0000020 	adrp	x0, 89000 <_ZN8valkyrie6kernel8FunctionIFvvEE12CallableImplIZNS0_16__run_unit_testsEvEUlvE_E4callEv+0x5e8>
   840e4:	91042000 	add	x0, x0, #0x108
   840e8:	9400272d 	bl	8dd9c <_ZN8valkyrie6kernel6Kernel5panicIJEEEvPKcDpOT_>
   840ec:	f9400be0 	ldr	x0, [sp, #16]
   840f0:	f9400400 	ldr	x0, [x0, #8]
   840f4:	f9400fe1 	ldr	x1, [sp, #24]
   840f8:	91010000 	add	x0, x0, #0x40
   840fc:	d37df000 	lsl	x0, x0, #3
   84100:	8b000020 	add	x0, x1, x0
   84104:	f9400400 	ldr	x0, [x0, #8]
   84108:	f9400be1 	ldr	x1, [sp, #16]
   8410c:	eb00003f 	cmp	x1, x0
   84110:	1a9f17e0 	cset	w0, eq  // eq = none
   84114:	12001c00 	and	w0, w0, #0xff
   84118:	92401c00 	and	x0, x0, #0xff
   8411c:	f100001f 	cmp	x0, #0x0
   84120:	540004e1 	b.ne	841bc <_ZN8valkyrie6kernel18PageFrameAllocator18free_list_add_headEPNS1_5BlockE+0x108>  // b.any
   84124:	f9400be0 	ldr	x0, [sp, #16]
   84128:	f9400400 	ldr	x0, [x0, #8]
   8412c:	f9400fe1 	ldr	x1, [sp, #24]
   84130:	91010000 	add	x0, x0, #0x40
   84134:	d37df000 	lsl	x0, x0, #3
   84138:	8b000020 	add	x0, x1, x0
   8413c:	f9400400 	ldr	x0, [x0, #8]
   84140:	f100001f 	cmp	x0, #0x0
   84144:	54000181 	b.ne	84174 <_ZN8valkyrie6kernel18PageFrameAllocator18free_list_add_headEPNS1_5BlockE+0xc0>  // b.any
   84148:	f9400be0 	ldr	x0, [sp, #16]
   8414c:	f9400400 	ldr	x0, [x0, #8]
   84150:	f9400fe1 	ldr	x1, [sp, #24]
   84154:	91010000 	add	x0, x0, #0x40
   84158:	d37df000 	lsl	x0, x0, #3
   8415c:	8b000020 	add	x0, x1, x0
   84160:	f9400be1 	ldr	x1, [sp, #16]
   84164:	f9000401 	str	x1, [x0, #8]
   84168:	f9400be0 	ldr	x0, [sp, #16]
   8416c:	f900001f 	str	xzr, [x0]
   84170:	14000014 	b	841c0 <_ZN8valkyrie6kernel18PageFrameAllocator18free_list_add_headEPNS1_5BlockE+0x10c>
   84174:	f9400be0 	ldr	x0, [sp, #16]
   84178:	f9400400 	ldr	x0, [x0, #8]
   8417c:	f9400fe1 	ldr	x1, [sp, #24]
   84180:	91010000 	add	x0, x0, #0x40
   84184:	d37df000 	lsl	x0, x0, #3
   84188:	8b000020 	add	x0, x1, x0
   8418c:	f9400401 	ldr	x1, [x0, #8]
   84190:	f9400be0 	ldr	x0, [sp, #16]
   84194:	f9000001 	str	x1, [x0]
   84198:	f9400be0 	ldr	x0, [sp, #16]
   8419c:	f9400400 	ldr	x0, [x0, #8]
   841a0:	f9400fe1 	ldr	x1, [sp, #24]
   841a4:	91010000 	add	x0, x0, #0x40
   841a8:	d37df000 	lsl	x0, x0, #3
   841ac:	8b000020 	add	x0, x1, x0
   841b0:	f9400be1 	ldr	x1, [sp, #16]
   841b4:	f9000401 	str	x1, [x0, #8]
   841b8:	14000002 	b	841c0 <_ZN8valkyrie6kernel18PageFrameAllocator18free_list_add_headEPNS1_5BlockE+0x10c>
   841bc:	d503201f 	nop
   841c0:	a8c27bfd 	ldp	x29, x30, [sp], #32
   841c4:	d65f03c0 	ret

00000000000841c8 <_ZN8valkyrie6kernel18PageFrameAllocator19free_list_del_entryEPNS1_5BlockE>:
   841c8:	a9bd7bfd 	stp	x29, x30, [sp, #-48]!
   841cc:	910003fd 	mov	x29, sp
   841d0:	f9000fe0 	str	x0, [sp, #24]
   841d4:	f9000be1 	str	x1, [sp, #16]
   841d8:	f9400be0 	ldr	x0, [sp, #16]
   841dc:	f100001f 	cmp	x0, #0x0
   841e0:	1a9f17e0 	cset	w0, eq  // eq = none
   841e4:	12001c00 	and	w0, w0, #0xff
   841e8:	92401c00 	and	x0, x0, #0xff
   841ec:	f100001f 	cmp	x0, #0x0
   841f0:	54000080 	b.eq	84200 <_ZN8valkyrie6kernel18PageFrameAllocator19free_list_del_entryEPNS1_5BlockE+0x38>  // b.none
   841f4:	b0000020 	adrp	x0, 89000 <_ZN8valkyrie6kernel8FunctionIFvvEE12CallableImplIZNS0_16__run_unit_testsEvEUlvE_E4callEv+0x5e8>
   841f8:	91050000 	add	x0, x0, #0x140
   841fc:	940026e8 	bl	8dd9c <_ZN8valkyrie6kernel6Kernel5panicIJEEEvPKcDpOT_>
   84200:	f9400be0 	ldr	x0, [sp, #16]
   84204:	f9400400 	ldr	x0, [x0, #8]
   84208:	f9400fe1 	ldr	x1, [sp, #24]
   8420c:	91010000 	add	x0, x0, #0x40
   84210:	d37df000 	lsl	x0, x0, #3
   84214:	8b000020 	add	x0, x1, x0
   84218:	f9400400 	ldr	x0, [x0, #8]
   8421c:	f9400be1 	ldr	x1, [sp, #16]
   84220:	eb00003f 	cmp	x1, x0
   84224:	540000a1 	b.ne	84238 <_ZN8valkyrie6kernel18PageFrameAllocator19free_list_del_entryEPNS1_5BlockE+0x70>  // b.any
   84228:	f9400be1 	ldr	x1, [sp, #16]
   8422c:	f9400fe0 	ldr	x0, [sp, #24]
   84230:	97ffff71 	bl	83ff4 <_ZN8valkyrie6kernel18PageFrameAllocator18free_list_del_headEPNS1_5BlockE>
   84234:	1400001e 	b	842ac <_ZN8valkyrie6kernel18PageFrameAllocator19free_list_del_entryEPNS1_5BlockE+0xe4>
   84238:	f90017ff 	str	xzr, [sp, #40]
   8423c:	f9400be0 	ldr	x0, [sp, #16]
   84240:	f9400400 	ldr	x0, [x0, #8]
   84244:	f9400fe1 	ldr	x1, [sp, #24]
   84248:	91010000 	add	x0, x0, #0x40
   8424c:	d37df000 	lsl	x0, x0, #3
   84250:	8b000020 	add	x0, x1, x0
   84254:	f9400400 	ldr	x0, [x0, #8]
   84258:	f90013e0 	str	x0, [sp, #32]
   8425c:	f94013e0 	ldr	x0, [sp, #32]
   84260:	f100001f 	cmp	x0, #0x0
   84264:	54000240 	b.eq	842ac <_ZN8valkyrie6kernel18PageFrameAllocator19free_list_del_entryEPNS1_5BlockE+0xe4>  // b.none
   84268:	f94013e1 	ldr	x1, [sp, #32]
   8426c:	f9400be0 	ldr	x0, [sp, #16]
   84270:	eb00003f 	cmp	x1, x0
   84274:	54000101 	b.ne	84294 <_ZN8valkyrie6kernel18PageFrameAllocator19free_list_del_entryEPNS1_5BlockE+0xcc>  // b.any
   84278:	f94013e0 	ldr	x0, [sp, #32]
   8427c:	f9400001 	ldr	x1, [x0]
   84280:	f94017e0 	ldr	x0, [sp, #40]
   84284:	f9000001 	str	x1, [x0]
   84288:	f94013e0 	ldr	x0, [sp, #32]
   8428c:	f900001f 	str	xzr, [x0]
   84290:	14000007 	b	842ac <_ZN8valkyrie6kernel18PageFrameAllocator19free_list_del_entryEPNS1_5BlockE+0xe4>
   84294:	f94013e0 	ldr	x0, [sp, #32]
   84298:	f90017e0 	str	x0, [sp, #40]
   8429c:	f94013e0 	ldr	x0, [sp, #32]
   842a0:	f9400000 	ldr	x0, [x0]
   842a4:	f90013e0 	str	x0, [sp, #32]
   842a8:	17ffffed 	b	8425c <_ZN8valkyrie6kernel18PageFrameAllocator19free_list_del_entryEPNS1_5BlockE+0x94>
   842ac:	a8c37bfd 	ldp	x29, x30, [sp], #48
   842b0:	d65f03c0 	ret

00000000000842b4 <_ZN8valkyrie6kernel18PageFrameAllocator11split_blockEPNS1_5BlockEi>:
   842b4:	a9bc7bfd 	stp	x29, x30, [sp, #-64]!
   842b8:	910003fd 	mov	x29, sp
   842bc:	f90017e0 	str	x0, [sp, #40]
   842c0:	f90013e1 	str	x1, [sp, #32]
   842c4:	b9001fe2 	str	w2, [sp, #28]
   842c8:	f94013e0 	ldr	x0, [sp, #32]
   842cc:	f100001f 	cmp	x0, #0x0
   842d0:	1a9f17e0 	cset	w0, eq  // eq = none
   842d4:	12001c00 	and	w0, w0, #0xff
   842d8:	92401c00 	and	x0, x0, #0xff
   842dc:	f100001f 	cmp	x0, #0x0
   842e0:	54000080 	b.eq	842f0 <_ZN8valkyrie6kernel18PageFrameAllocator11split_blockEPNS1_5BlockEi+0x3c>  // b.none
   842e4:	b0000020 	adrp	x0, 89000 <_ZN8valkyrie6kernel8FunctionIFvvEE12CallableImplIZNS0_16__run_unit_testsEvEUlvE_E4callEv+0x5e8>
   842e8:	9105e000 	add	x0, x0, #0x178
   842ec:	940026ac 	bl	8dd9c <_ZN8valkyrie6kernel6Kernel5panicIJEEEvPKcDpOT_>
   842f0:	f94013e0 	ldr	x0, [sp, #32]
   842f4:	f9400400 	ldr	x0, [x0, #8]
   842f8:	d37ffc00 	lsr	x0, x0, #63
   842fc:	12001c00 	and	w0, w0, #0xff
   84300:	92401c00 	and	x0, x0, #0xff
   84304:	f100001f 	cmp	x0, #0x0
   84308:	54000121 	b.ne	8432c <_ZN8valkyrie6kernel18PageFrameAllocator11split_blockEPNS1_5BlockEi+0x78>  // b.any
   8430c:	f94013e0 	ldr	x0, [sp, #32]
   84310:	f9400400 	ldr	x0, [x0, #8]
   84314:	f100241f 	cmp	x0, #0x9
   84318:	1a9fd7e0 	cset	w0, gt
   8431c:	12001c00 	and	w0, w0, #0xff
   84320:	92401c00 	and	x0, x0, #0xff
   84324:	f100001f 	cmp	x0, #0x0
   84328:	54000060 	b.eq	84334 <_ZN8valkyrie6kernel18PageFrameAllocator11split_blockEPNS1_5BlockEi+0x80>  // b.none
   8432c:	52800020 	mov	w0, #0x1                   	// #1
   84330:	14000002 	b	84338 <_ZN8valkyrie6kernel18PageFrameAllocator11split_blockEPNS1_5BlockEi+0x84>
   84334:	52800000 	mov	w0, #0x0                   	// #0
   84338:	92401c00 	and	x0, x0, #0xff
   8433c:	f100001f 	cmp	x0, #0x0
   84340:	540000e0 	b.eq	8435c <_ZN8valkyrie6kernel18PageFrameAllocator11split_blockEPNS1_5BlockEi+0xa8>  // b.none
   84344:	f94013e0 	ldr	x0, [sp, #32]
   84348:	91002000 	add	x0, x0, #0x8
   8434c:	aa0003e1 	mov	x1, x0
   84350:	b0000020 	adrp	x0, 89000 <_ZN8valkyrie6kernel8FunctionIFvvEE12CallableImplIZNS0_16__run_unit_testsEvEUlvE_E4callEv+0x5e8>
   84354:	9106a000 	add	x0, x0, #0x1a8
   84358:	94002bda 	bl	8f2c0 <_ZN8valkyrie6kernel6Kernel5panicIJRxEEEvPKcDpOT_>
   8435c:	f94013e1 	ldr	x1, [sp, #32]
   84360:	f94017e0 	ldr	x0, [sp, #40]
   84364:	97ffff24 	bl	83ff4 <_ZN8valkyrie6kernel18PageFrameAllocator18free_list_del_headEPNS1_5BlockE>
   84368:	f94013e0 	ldr	x0, [sp, #32]
   8436c:	f9400401 	ldr	x1, [x0, #8]
   84370:	b9801fe0 	ldrsw	x0, [sp, #28]
   84374:	eb00003f 	cmp	x1, x0
   84378:	54000061 	b.ne	84384 <_ZN8valkyrie6kernel18PageFrameAllocator11split_blockEPNS1_5BlockEi+0xd0>  // b.any
   8437c:	f94013e0 	ldr	x0, [sp, #32]
   84380:	14000026 	b	84418 <_ZN8valkyrie6kernel18PageFrameAllocator11split_blockEPNS1_5BlockEi+0x164>
   84384:	f94013e0 	ldr	x0, [sp, #32]
   84388:	f9400400 	ldr	x0, [x0, #8]
   8438c:	d1000401 	sub	x1, x0, #0x1
   84390:	f94013e0 	ldr	x0, [sp, #32]
   84394:	f9000401 	str	x1, [x0, #8]
   84398:	f94013e0 	ldr	x0, [sp, #32]
   8439c:	f9001be0 	str	x0, [sp, #48]
   843a0:	f94013e1 	ldr	x1, [sp, #32]
   843a4:	f94017e0 	ldr	x0, [sp, #40]
   843a8:	9400001e 	bl	84420 <_ZN8valkyrie6kernel18PageFrameAllocator9get_buddyEPNS1_5BlockE>
   843ac:	f9001fe0 	str	x0, [sp, #56]
   843b0:	f9401be1 	ldr	x1, [sp, #48]
   843b4:	f9401fe0 	ldr	x0, [sp, #56]
   843b8:	f9400421 	ldr	x1, [x1, #8]
   843bc:	f9000401 	str	x1, [x0, #8]
   843c0:	f9401fe0 	ldr	x0, [sp, #56]
   843c4:	aa0003e1 	mov	x1, x0
   843c8:	f94017e0 	ldr	x0, [sp, #40]
   843cc:	97ffff3a 	bl	840b4 <_ZN8valkyrie6kernel18PageFrameAllocator18free_list_add_headEPNS1_5BlockE>
   843d0:	f9401be0 	ldr	x0, [sp, #48]
   843d4:	aa0003e1 	mov	x1, x0
   843d8:	f94017e0 	ldr	x0, [sp, #40]
   843dc:	97ffff36 	bl	840b4 <_ZN8valkyrie6kernel18PageFrameAllocator18free_list_add_headEPNS1_5BlockE>
   843e0:	f9401be0 	ldr	x0, [sp, #48]
   843e4:	aa0003e1 	mov	x1, x0
   843e8:	f94017e0 	ldr	x0, [sp, #40]
   843ec:	97fffeda 	bl	83f54 <_ZN8valkyrie6kernel18PageFrameAllocator25mark_block_as_allocatableEPKNS1_5BlockE>
   843f0:	f9401fe0 	ldr	x0, [sp, #56]
   843f4:	aa0003e1 	mov	x1, x0
   843f8:	f94017e0 	ldr	x0, [sp, #40]
   843fc:	97fffed6 	bl	83f54 <_ZN8valkyrie6kernel18PageFrameAllocator25mark_block_as_allocatableEPKNS1_5BlockE>
   84400:	f9401be0 	ldr	x0, [sp, #48]
   84404:	b9401fe2 	ldr	w2, [sp, #28]
   84408:	aa0003e1 	mov	x1, x0
   8440c:	f94017e0 	ldr	x0, [sp, #40]
   84410:	97ffffa9 	bl	842b4 <_ZN8valkyrie6kernel18PageFrameAllocator11split_blockEPNS1_5BlockEi>
   84414:	d503201f 	nop
   84418:	a8c47bfd 	ldp	x29, x30, [sp], #64
   8441c:	d65f03c0 	ret

0000000000084420 <_ZN8valkyrie6kernel18PageFrameAllocator9get_buddyEPNS1_5BlockE>:
   84420:	d10083ff 	sub	sp, sp, #0x20
   84424:	f90007e0 	str	x0, [sp, #8]
   84428:	f90003e1 	str	x1, [sp]
   8442c:	f94003e0 	ldr	x0, [sp]
   84430:	f9000fe0 	str	x0, [sp, #24]
   84434:	f94003e0 	ldr	x0, [sp]
   84438:	f9400400 	ldr	x0, [x0, #8]
   8443c:	2a0003e1 	mov	w1, w0
   84440:	52820000 	mov	w0, #0x1000                	// #4096
   84444:	1ac12000 	lsl	w0, w0, w1
   84448:	93407c00 	sxtw	x0, w0
   8444c:	f9400fe1 	ldr	x1, [sp, #24]
   84450:	ca000020 	eor	x0, x1, x0
   84454:	f9000be0 	str	x0, [sp, #16]
   84458:	f9400be0 	ldr	x0, [sp, #16]
   8445c:	910083ff 	add	sp, sp, #0x20
   84460:	d65f03c0 	ret

0000000000084464 <_ZN8valkyrie6kernel18PageFrameAllocator14normalize_sizeEm>:
   84464:	a9be7bfd 	stp	x29, x30, [sp, #-32]!
   84468:	910003fd 	mov	x29, sp
   8446c:	f9000fe0 	str	x0, [sp, #24]
   84470:	f9000be1 	str	x1, [sp, #16]
   84474:	f9400be0 	ldr	x0, [sp, #16]
   84478:	97fff9be 	bl	82b70 <_ZN8valkyrie6kernel20round_up_to_pow_of_2Em>
   8447c:	a8c27bfd 	ldp	x29, x30, [sp], #32
   84480:	d65f03c0 	ret

0000000000084484 <_ZN8valkyrie6kernel18PageFrameAllocator13size_to_orderEm>:
   84484:	a9be7bfd 	stp	x29, x30, [sp, #-32]!
   84488:	910003fd 	mov	x29, sp
   8448c:	f9000fe0 	str	x0, [sp, #24]
   84490:	f9000be1 	str	x1, [sp, #16]
   84494:	f9400be0 	ldr	x0, [sp, #16]
   84498:	d34cfc00 	lsr	x0, x0, #12
   8449c:	97fff9a2 	bl	82b24 <_ZN8valkyrie6kernel4log2Ei>
   844a0:	a8c27bfd 	ldp	x29, x30, [sp], #32
   844a4:	d65f03c0 	ret

00000000000844a8 <_ZN8valkyrie6kernel18PageFrameAllocator18is_block_allocatedEPKNS1_5BlockE>:
   844a8:	a9be7bfd 	stp	x29, x30, [sp, #-32]!
   844ac:	910003fd 	mov	x29, sp
   844b0:	f9000fe0 	str	x0, [sp, #24]
   844b4:	f9000be1 	str	x1, [sp, #16]
   844b8:	f9400be1 	ldr	x1, [sp, #16]
   844bc:	f9400fe0 	ldr	x0, [sp, #24]
   844c0:	97fffe7b 	bl	83eac <_ZNK8valkyrie6kernel18PageFrameAllocator20get_page_frame_indexEPKNS1_5BlockE>
   844c4:	f9400fe1 	ldr	x1, [sp, #24]
   844c8:	93407c00 	sxtw	x0, w0
   844cc:	38606820 	ldrb	w0, [x1, x0]
   844d0:	7103fc1f 	cmp	w0, #0xff
   844d4:	1a9f17e0 	cset	w0, eq  // eq = none
   844d8:	12001c00 	and	w0, w0, #0xff
   844dc:	a8c27bfd 	ldp	x29, x30, [sp], #32
   844e0:	d65f03c0 	ret

00000000000844e4 <_ZL4ui2ajjiPc>:
   844e4:	d100c3ff 	sub	sp, sp, #0x30
   844e8:	b9001fe0 	str	w0, [sp, #28]
   844ec:	b9001be1 	str	w1, [sp, #24]
   844f0:	b90017e2 	str	w2, [sp, #20]
   844f4:	f90007e3 	str	x3, [sp, #8]
   844f8:	b9002fff 	str	wzr, [sp, #44]
   844fc:	52800020 	mov	w0, #0x1                   	// #1
   84500:	b9002be0 	str	w0, [sp, #40]
   84504:	b9401fe1 	ldr	w1, [sp, #28]
   84508:	b9402be0 	ldr	w0, [sp, #40]
   8450c:	1ac00820 	udiv	w0, w1, w0
   84510:	b9401be1 	ldr	w1, [sp, #24]
   84514:	6b00003f 	cmp	w1, w0
   84518:	540000c8 	b.hi	84530 <_ZL4ui2ajjiPc+0x4c>  // b.pmore
   8451c:	b9402be1 	ldr	w1, [sp, #40]
   84520:	b9401be0 	ldr	w0, [sp, #24]
   84524:	1b007c20 	mul	w0, w1, w0
   84528:	b9002be0 	str	w0, [sp, #40]
   8452c:	17fffff6 	b	84504 <_ZL4ui2ajjiPc+0x20>
   84530:	b9402be0 	ldr	w0, [sp, #40]
   84534:	7100001f 	cmp	w0, #0x0
   84538:	54000620 	b.eq	845fc <_ZL4ui2ajjiPc+0x118>  // b.none
   8453c:	b9401fe1 	ldr	w1, [sp, #28]
   84540:	b9402be0 	ldr	w0, [sp, #40]
   84544:	1ac00820 	udiv	w0, w1, w0
   84548:	b90027e0 	str	w0, [sp, #36]
   8454c:	b9401fe0 	ldr	w0, [sp, #28]
   84550:	b9402be1 	ldr	w1, [sp, #40]
   84554:	1ac10802 	udiv	w2, w0, w1
   84558:	b9402be1 	ldr	w1, [sp, #40]
   8455c:	1b017c41 	mul	w1, w2, w1
   84560:	4b010000 	sub	w0, w0, w1
   84564:	b9001fe0 	str	w0, [sp, #28]
   84568:	b9402be1 	ldr	w1, [sp, #40]
   8456c:	b9401be0 	ldr	w0, [sp, #24]
   84570:	1ac00820 	udiv	w0, w1, w0
   84574:	b9002be0 	str	w0, [sp, #40]
   84578:	b9402fe0 	ldr	w0, [sp, #44]
   8457c:	7100001f 	cmp	w0, #0x0
   84580:	540000e1 	b.ne	8459c <_ZL4ui2ajjiPc+0xb8>  // b.any
   84584:	b94027e0 	ldr	w0, [sp, #36]
   84588:	7100001f 	cmp	w0, #0x0
   8458c:	5400008c 	b.gt	8459c <_ZL4ui2ajjiPc+0xb8>
   84590:	b9402be0 	ldr	w0, [sp, #40]
   84594:	7100001f 	cmp	w0, #0x0
   84598:	54fffcc1 	b.ne	84530 <_ZL4ui2ajjiPc+0x4c>  // b.any
   8459c:	b94027e0 	ldr	w0, [sp, #36]
   845a0:	7100241f 	cmp	w0, #0x9
   845a4:	5400010d 	b.le	845c4 <_ZL4ui2ajjiPc+0xe0>
   845a8:	b94017e0 	ldr	w0, [sp, #20]
   845ac:	7100001f 	cmp	w0, #0x0
   845b0:	54000060 	b.eq	845bc <_ZL4ui2ajjiPc+0xd8>  // b.none
   845b4:	528006e0 	mov	w0, #0x37                  	// #55
   845b8:	14000004 	b	845c8 <_ZL4ui2ajjiPc+0xe4>
   845bc:	52800ae0 	mov	w0, #0x57                  	// #87
   845c0:	14000002 	b	845c8 <_ZL4ui2ajjiPc+0xe4>
   845c4:	52800600 	mov	w0, #0x30                  	// #48
   845c8:	b94027e1 	ldr	w1, [sp, #36]
   845cc:	12001c21 	and	w1, w1, #0xff
   845d0:	0b010000 	add	w0, w0, w1
   845d4:	12001c02 	and	w2, w0, #0xff
   845d8:	f94007e0 	ldr	x0, [sp, #8]
   845dc:	91000401 	add	x1, x0, #0x1
   845e0:	f90007e1 	str	x1, [sp, #8]
   845e4:	2a0203e1 	mov	w1, w2
   845e8:	39000001 	strb	w1, [x0]
   845ec:	b9402fe0 	ldr	w0, [sp, #44]
   845f0:	11000400 	add	w0, w0, #0x1
   845f4:	b9002fe0 	str	w0, [sp, #44]
   845f8:	17ffffce 	b	84530 <_ZL4ui2ajjiPc+0x4c>
   845fc:	f94007e0 	ldr	x0, [sp, #8]
   84600:	3900001f 	strb	wzr, [x0]
   84604:	d503201f 	nop
   84608:	9100c3ff 	add	sp, sp, #0x30
   8460c:	d65f03c0 	ret

0000000000084610 <_ZL3i2aiPc>:
   84610:	a9be7bfd 	stp	x29, x30, [sp, #-32]!
   84614:	910003fd 	mov	x29, sp
   84618:	b9001fe0 	str	w0, [sp, #28]
   8461c:	f9000be1 	str	x1, [sp, #16]
   84620:	b9401fe0 	ldr	w0, [sp, #28]
   84624:	7100001f 	cmp	w0, #0x0
   84628:	5400012a 	b.ge	8464c <_ZL3i2aiPc+0x3c>  // b.tcont
   8462c:	b9401fe0 	ldr	w0, [sp, #28]
   84630:	4b0003e0 	neg	w0, w0
   84634:	b9001fe0 	str	w0, [sp, #28]
   84638:	f9400be0 	ldr	x0, [sp, #16]
   8463c:	91000401 	add	x1, x0, #0x1
   84640:	f9000be1 	str	x1, [sp, #16]
   84644:	528005a1 	mov	w1, #0x2d                  	// #45
   84648:	39000001 	strb	w1, [x0]
   8464c:	b9401fe0 	ldr	w0, [sp, #28]
   84650:	f9400be3 	ldr	x3, [sp, #16]
   84654:	52800002 	mov	w2, #0x0                   	// #0
   84658:	52800141 	mov	w1, #0xa                   	// #10
   8465c:	97ffffa2 	bl	844e4 <_ZL4ui2ajjiPc>
   84660:	d503201f 	nop
   84664:	a8c27bfd 	ldp	x29, x30, [sp], #32
   84668:	d65f03c0 	ret

000000000008466c <_ZL3a2dc>:
   8466c:	d10043ff 	sub	sp, sp, #0x10
   84670:	39003fe0 	strb	w0, [sp, #15]
   84674:	39403fe0 	ldrb	w0, [sp, #15]
   84678:	7100bc1f 	cmp	w0, #0x2f
   8467c:	540000e9 	b.ls	84698 <_ZL3a2dc+0x2c>  // b.plast
   84680:	39403fe0 	ldrb	w0, [sp, #15]
   84684:	7100e41f 	cmp	w0, #0x39
   84688:	54000088 	b.hi	84698 <_ZL3a2dc+0x2c>  // b.pmore
   8468c:	39403fe0 	ldrb	w0, [sp, #15]
   84690:	5100c000 	sub	w0, w0, #0x30
   84694:	14000014 	b	846e4 <_ZL3a2dc+0x78>
   84698:	39403fe0 	ldrb	w0, [sp, #15]
   8469c:	7101801f 	cmp	w0, #0x60
   846a0:	540000e9 	b.ls	846bc <_ZL3a2dc+0x50>  // b.plast
   846a4:	39403fe0 	ldrb	w0, [sp, #15]
   846a8:	7101981f 	cmp	w0, #0x66
   846ac:	54000088 	b.hi	846bc <_ZL3a2dc+0x50>  // b.pmore
   846b0:	39403fe0 	ldrb	w0, [sp, #15]
   846b4:	51015c00 	sub	w0, w0, #0x57
   846b8:	1400000b 	b	846e4 <_ZL3a2dc+0x78>
   846bc:	39403fe0 	ldrb	w0, [sp, #15]
   846c0:	7101001f 	cmp	w0, #0x40
   846c4:	540000e9 	b.ls	846e0 <_ZL3a2dc+0x74>  // b.plast
   846c8:	39403fe0 	ldrb	w0, [sp, #15]
   846cc:	7101181f 	cmp	w0, #0x46
   846d0:	54000088 	b.hi	846e0 <_ZL3a2dc+0x74>  // b.pmore
   846d4:	39403fe0 	ldrb	w0, [sp, #15]
   846d8:	5100dc00 	sub	w0, w0, #0x37
   846dc:	14000002 	b	846e4 <_ZL3a2dc+0x78>
   846e0:	12800000 	mov	w0, #0xffffffff            	// #-1
   846e4:	910043ff 	add	sp, sp, #0x10
   846e8:	d65f03c0 	ret

00000000000846ec <_ZL3a2icPPciPi>:
   846ec:	a9bc7bfd 	stp	x29, x30, [sp, #-64]!
   846f0:	910003fd 	mov	x29, sp
   846f4:	3900bfe0 	strb	w0, [sp, #47]
   846f8:	f90013e1 	str	x1, [sp, #32]
   846fc:	b9002be2 	str	w2, [sp, #40]
   84700:	f9000fe3 	str	x3, [sp, #24]
   84704:	f94013e0 	ldr	x0, [sp, #32]
   84708:	f9400000 	ldr	x0, [x0]
   8470c:	f9001fe0 	str	x0, [sp, #56]
   84710:	b90037ff 	str	wzr, [sp, #52]
   84714:	3940bfe0 	ldrb	w0, [sp, #47]
   84718:	97ffffd5 	bl	8466c <_ZL3a2dc>
   8471c:	b90033e0 	str	w0, [sp, #48]
   84720:	b94033e0 	ldr	w0, [sp, #48]
   84724:	2a2003e0 	mvn	w0, w0
   84728:	531f7c00 	lsr	w0, w0, #31
   8472c:	12001c00 	and	w0, w0, #0xff
   84730:	7100001f 	cmp	w0, #0x0
   84734:	54000240 	b.eq	8477c <_ZL3a2icPPciPi+0x90>  // b.none
   84738:	b94033e1 	ldr	w1, [sp, #48]
   8473c:	b9402be0 	ldr	w0, [sp, #40]
   84740:	6b00003f 	cmp	w1, w0
   84744:	540001ac 	b.gt	84778 <_ZL3a2icPPciPi+0x8c>
   84748:	b94037e1 	ldr	w1, [sp, #52]
   8474c:	b9402be0 	ldr	w0, [sp, #40]
   84750:	1b007c20 	mul	w0, w1, w0
   84754:	b94033e1 	ldr	w1, [sp, #48]
   84758:	0b000020 	add	w0, w1, w0
   8475c:	b90037e0 	str	w0, [sp, #52]
   84760:	f9401fe0 	ldr	x0, [sp, #56]
   84764:	91000401 	add	x1, x0, #0x1
   84768:	f9001fe1 	str	x1, [sp, #56]
   8476c:	39400000 	ldrb	w0, [x0]
   84770:	3900bfe0 	strb	w0, [sp, #47]
   84774:	17ffffe8 	b	84714 <_ZL3a2icPPciPi+0x28>
   84778:	d503201f 	nop
   8477c:	f94013e0 	ldr	x0, [sp, #32]
   84780:	f9401fe1 	ldr	x1, [sp, #56]
   84784:	f9000001 	str	x1, [x0]
   84788:	f9400fe0 	ldr	x0, [sp, #24]
   8478c:	b94037e1 	ldr	w1, [sp, #52]
   84790:	b9000001 	str	w1, [x0]
   84794:	3940bfe0 	ldrb	w0, [sp, #47]
   84798:	a8c47bfd 	ldp	x29, x30, [sp], #64
   8479c:	d65f03c0 	ret

00000000000847a0 <_ZL6putchwPvPFvS_cEicPc>:
   847a0:	a9bc7bfd 	stp	x29, x30, [sp, #-64]!
   847a4:	910003fd 	mov	x29, sp
   847a8:	f90017e0 	str	x0, [sp, #40]
   847ac:	f90013e1 	str	x1, [sp, #32]
   847b0:	b9001fe2 	str	w2, [sp, #28]
   847b4:	39006fe3 	strb	w3, [sp, #27]
   847b8:	f9000be4 	str	x4, [sp, #16]
   847bc:	39406fe0 	ldrb	w0, [sp, #27]
   847c0:	7100001f 	cmp	w0, #0x0
   847c4:	54000060 	b.eq	847d0 <_ZL6putchwPvPFvS_cEicPc+0x30>  // b.none
   847c8:	52800600 	mov	w0, #0x30                  	// #48
   847cc:	14000002 	b	847d4 <_ZL6putchwPvPFvS_cEicPc+0x34>
   847d0:	52800400 	mov	w0, #0x20                  	// #32
   847d4:	3900dfe0 	strb	w0, [sp, #55]
   847d8:	f9400be0 	ldr	x0, [sp, #16]
   847dc:	f9001fe0 	str	x0, [sp, #56]
   847e0:	f9401fe0 	ldr	x0, [sp, #56]
   847e4:	91000401 	add	x1, x0, #0x1
   847e8:	f9001fe1 	str	x1, [sp, #56]
   847ec:	39400000 	ldrb	w0, [x0]
   847f0:	7100001f 	cmp	w0, #0x0
   847f4:	540000c0 	b.eq	8480c <_ZL6putchwPvPFvS_cEicPc+0x6c>  // b.none
   847f8:	b9401fe0 	ldr	w0, [sp, #28]
   847fc:	7100001f 	cmp	w0, #0x0
   84800:	5400006d 	b.le	8480c <_ZL6putchwPvPFvS_cEicPc+0x6c>
   84804:	52800020 	mov	w0, #0x1                   	// #1
   84808:	14000002 	b	84810 <_ZL6putchwPvPFvS_cEicPc+0x70>
   8480c:	52800000 	mov	w0, #0x0                   	// #0
   84810:	7100001f 	cmp	w0, #0x0
   84814:	540000a0 	b.eq	84828 <_ZL6putchwPvPFvS_cEicPc+0x88>  // b.none
   84818:	b9401fe0 	ldr	w0, [sp, #28]
   8481c:	51000400 	sub	w0, w0, #0x1
   84820:	b9001fe0 	str	w0, [sp, #28]
   84824:	17ffffef 	b	847e0 <_ZL6putchwPvPFvS_cEicPc+0x40>
   84828:	b9401fe0 	ldr	w0, [sp, #28]
   8482c:	51000401 	sub	w1, w0, #0x1
   84830:	b9001fe1 	str	w1, [sp, #28]
   84834:	7100001f 	cmp	w0, #0x0
   84838:	1a9fd7e0 	cset	w0, gt
   8483c:	12001c00 	and	w0, w0, #0xff
   84840:	7100001f 	cmp	w0, #0x0
   84844:	540000c0 	b.eq	8485c <_ZL6putchwPvPFvS_cEicPc+0xbc>  // b.none
   84848:	f94013e2 	ldr	x2, [sp, #32]
   8484c:	3940dfe1 	ldrb	w1, [sp, #55]
   84850:	f94017e0 	ldr	x0, [sp, #40]
   84854:	d63f0040 	blr	x2
   84858:	17fffff4 	b	84828 <_ZL6putchwPvPFvS_cEicPc+0x88>
   8485c:	f9400be0 	ldr	x0, [sp, #16]
   84860:	91000401 	add	x1, x0, #0x1
   84864:	f9000be1 	str	x1, [sp, #16]
   84868:	39400000 	ldrb	w0, [x0]
   8486c:	3900dbe0 	strb	w0, [sp, #54]
   84870:	3940dbe0 	ldrb	w0, [sp, #54]
   84874:	7100001f 	cmp	w0, #0x0
   84878:	1a9f07e0 	cset	w0, ne  // ne = any
   8487c:	12001c00 	and	w0, w0, #0xff
   84880:	7100001f 	cmp	w0, #0x0
   84884:	540000c0 	b.eq	8489c <_ZL6putchwPvPFvS_cEicPc+0xfc>  // b.none
   84888:	f94013e2 	ldr	x2, [sp, #32]
   8488c:	3940dbe1 	ldrb	w1, [sp, #54]
   84890:	f94017e0 	ldr	x0, [sp, #40]
   84894:	d63f0040 	blr	x2
   84898:	17fffff1 	b	8485c <_ZL6putchwPvPFvS_cEicPc+0xbc>
   8489c:	d503201f 	nop
   848a0:	a8c47bfd 	ldp	x29, x30, [sp], #64
   848a4:	d65f03c0 	ret

00000000000848a8 <_Z10tfp_formatPvPFvS_cEPcSt9__va_list>:
   848a8:	a9ba7bfd 	stp	x29, x30, [sp, #-96]!
   848ac:	910003fd 	mov	x29, sp
   848b0:	f9000bf3 	str	x19, [sp, #16]
   848b4:	f9001fe0 	str	x0, [sp, #56]
   848b8:	f9001be1 	str	x1, [sp, #48]
   848bc:	f90017e2 	str	x2, [sp, #40]
   848c0:	aa0303f3 	mov	x19, x3
   848c4:	f94017e0 	ldr	x0, [sp, #40]
   848c8:	91000401 	add	x1, x0, #0x1
   848cc:	f90017e1 	str	x1, [sp, #40]
   848d0:	39400000 	ldrb	w0, [x0]
   848d4:	39017fe0 	strb	w0, [sp, #95]
   848d8:	39417fe0 	ldrb	w0, [sp, #95]
   848dc:	7100001f 	cmp	w0, #0x0
   848e0:	1a9f07e0 	cset	w0, ne  // ne = any
   848e4:	12001c00 	and	w0, w0, #0xff
   848e8:	7100001f 	cmp	w0, #0x0
   848ec:	54001e00 	b.eq	84cac <_Z10tfp_formatPvPFvS_cEPcSt9__va_list+0x404>  // b.none
   848f0:	39417fe0 	ldrb	w0, [sp, #95]
   848f4:	7100941f 	cmp	w0, #0x25
   848f8:	540000c0 	b.eq	84910 <_Z10tfp_formatPvPFvS_cEPcSt9__va_list+0x68>  // b.none
   848fc:	f9401be2 	ldr	x2, [sp, #48]
   84900:	39417fe1 	ldrb	w1, [sp, #95]
   84904:	f9401fe0 	ldr	x0, [sp, #56]
   84908:	d63f0040 	blr	x2
   8490c:	17ffffee 	b	848c4 <_Z10tfp_formatPvPFvS_cEPcSt9__va_list+0x1c>
   84910:	39017bff 	strb	wzr, [sp, #94]
   84914:	b9004fff 	str	wzr, [sp, #76]
   84918:	f94017e0 	ldr	x0, [sp, #40]
   8491c:	91000401 	add	x1, x0, #0x1
   84920:	f90017e1 	str	x1, [sp, #40]
   84924:	39400000 	ldrb	w0, [x0]
   84928:	39017fe0 	strb	w0, [sp, #95]
   8492c:	39417fe0 	ldrb	w0, [sp, #95]
   84930:	7100c01f 	cmp	w0, #0x30
   84934:	54000101 	b.ne	84954 <_Z10tfp_formatPvPFvS_cEPcSt9__va_list+0xac>  // b.any
   84938:	f94017e0 	ldr	x0, [sp, #40]
   8493c:	91000401 	add	x1, x0, #0x1
   84940:	f90017e1 	str	x1, [sp, #40]
   84944:	39400000 	ldrb	w0, [x0]
   84948:	39017fe0 	strb	w0, [sp, #95]
   8494c:	52800020 	mov	w0, #0x1                   	// #1
   84950:	39017be0 	strb	w0, [sp, #94]
   84954:	39417fe0 	ldrb	w0, [sp, #95]
   84958:	7100bc1f 	cmp	w0, #0x2f
   8495c:	54000189 	b.ls	8498c <_Z10tfp_formatPvPFvS_cEPcSt9__va_list+0xe4>  // b.plast
   84960:	39417fe0 	ldrb	w0, [sp, #95]
   84964:	7100e41f 	cmp	w0, #0x39
   84968:	54000128 	b.hi	8498c <_Z10tfp_formatPvPFvS_cEPcSt9__va_list+0xe4>  // b.pmore
   8496c:	910133e1 	add	x1, sp, #0x4c
   84970:	9100a3e0 	add	x0, sp, #0x28
   84974:	aa0103e3 	mov	x3, x1
   84978:	52800142 	mov	w2, #0xa                   	// #10
   8497c:	aa0003e1 	mov	x1, x0
   84980:	39417fe0 	ldrb	w0, [sp, #95]
   84984:	97ffff5a 	bl	846ec <_ZL3a2icPPciPi>
   84988:	39017fe0 	strb	w0, [sp, #95]
   8498c:	39417fe0 	ldrb	w0, [sp, #95]
   84990:	7101e01f 	cmp	w0, #0x78
   84994:	54000be0 	b.eq	84b10 <_Z10tfp_formatPvPFvS_cEPcSt9__va_list+0x268>  // b.none
   84998:	7101e01f 	cmp	w0, #0x78
   8499c:	5400184c 	b.gt	84ca4 <_Z10tfp_formatPvPFvS_cEPcSt9__va_list+0x3fc>
   849a0:	7101d41f 	cmp	w0, #0x75
   849a4:	54000300 	b.eq	84a04 <_Z10tfp_formatPvPFvS_cEPcSt9__va_list+0x15c>  // b.none
   849a8:	7101d41f 	cmp	w0, #0x75
   849ac:	540017cc 	b.gt	84ca4 <_Z10tfp_formatPvPFvS_cEPcSt9__va_list+0x3fc>
   849b0:	7101cc1f 	cmp	w0, #0x73
   849b4:	54001360 	b.eq	84c20 <_Z10tfp_formatPvPFvS_cEPcSt9__va_list+0x378>  // b.none
   849b8:	7101cc1f 	cmp	w0, #0x73
   849bc:	5400174c 	b.gt	84ca4 <_Z10tfp_formatPvPFvS_cEPcSt9__va_list+0x3fc>
   849c0:	7101901f 	cmp	w0, #0x64
   849c4:	54000660 	b.eq	84a90 <_Z10tfp_formatPvPFvS_cEPcSt9__va_list+0x1e8>  // b.none
   849c8:	7101901f 	cmp	w0, #0x64
   849cc:	540016cc 	b.gt	84ca4 <_Z10tfp_formatPvPFvS_cEPcSt9__va_list+0x3fc>
   849d0:	71018c1f 	cmp	w0, #0x63
   849d4:	54000f00 	b.eq	84bb4 <_Z10tfp_formatPvPFvS_cEPcSt9__va_list+0x30c>  // b.none
   849d8:	71018c1f 	cmp	w0, #0x63
   849dc:	5400164c 	b.gt	84ca4 <_Z10tfp_formatPvPFvS_cEPcSt9__va_list+0x3fc>
   849e0:	7101601f 	cmp	w0, #0x58
   849e4:	54000960 	b.eq	84b10 <_Z10tfp_formatPvPFvS_cEPcSt9__va_list+0x268>  // b.none
   849e8:	7101601f 	cmp	w0, #0x58
   849ec:	540015cc 	b.gt	84ca4 <_Z10tfp_formatPvPFvS_cEPcSt9__va_list+0x3fc>
   849f0:	7100001f 	cmp	w0, #0x0
   849f4:	54001600 	b.eq	84cb4 <_Z10tfp_formatPvPFvS_cEPcSt9__va_list+0x40c>  // b.none
   849f8:	7100941f 	cmp	w0, #0x25
   849fc:	540014c0 	b.eq	84c94 <_Z10tfp_formatPvPFvS_cEPcSt9__va_list+0x3ec>  // b.none
   84a00:	140000a9 	b	84ca4 <_Z10tfp_formatPvPFvS_cEPcSt9__va_list+0x3fc>
   84a04:	b9401a61 	ldr	w1, [x19, #24]
   84a08:	f9400260 	ldr	x0, [x19]
   84a0c:	7100003f 	cmp	w1, #0x0
   84a10:	540000ab 	b.lt	84a24 <_Z10tfp_formatPvPFvS_cEPcSt9__va_list+0x17c>  // b.tstop
   84a14:	91002c01 	add	x1, x0, #0xb
   84a18:	927df021 	and	x1, x1, #0xfffffffffffffff8
   84a1c:	f9000261 	str	x1, [x19]
   84a20:	1400000d 	b	84a54 <_Z10tfp_formatPvPFvS_cEPcSt9__va_list+0x1ac>
   84a24:	11002022 	add	w2, w1, #0x8
   84a28:	b9001a62 	str	w2, [x19, #24]
   84a2c:	b9401a62 	ldr	w2, [x19, #24]
   84a30:	7100005f 	cmp	w2, #0x0
   84a34:	540000ad 	b.le	84a48 <_Z10tfp_formatPvPFvS_cEPcSt9__va_list+0x1a0>
   84a38:	91002c01 	add	x1, x0, #0xb
   84a3c:	927df021 	and	x1, x1, #0xfffffffffffffff8
   84a40:	f9000261 	str	x1, [x19]
   84a44:	14000004 	b	84a54 <_Z10tfp_formatPvPFvS_cEPcSt9__va_list+0x1ac>
   84a48:	f9400662 	ldr	x2, [x19, #8]
   84a4c:	93407c20 	sxtw	x0, w1
   84a50:	8b000040 	add	x0, x2, x0
   84a54:	b9400000 	ldr	w0, [x0]
   84a58:	910143e1 	add	x1, sp, #0x50
   84a5c:	aa0103e3 	mov	x3, x1
   84a60:	52800002 	mov	w2, #0x0                   	// #0
   84a64:	52800141 	mov	w1, #0xa                   	// #10
   84a68:	97fffe9f 	bl	844e4 <_ZL4ui2ajjiPc>
   84a6c:	b9404fe0 	ldr	w0, [sp, #76]
   84a70:	910143e1 	add	x1, sp, #0x50
   84a74:	aa0103e4 	mov	x4, x1
   84a78:	39417be3 	ldrb	w3, [sp, #94]
   84a7c:	2a0003e2 	mov	w2, w0
   84a80:	f9401be1 	ldr	x1, [sp, #48]
   84a84:	f9401fe0 	ldr	x0, [sp, #56]
   84a88:	97ffff46 	bl	847a0 <_ZL6putchwPvPFvS_cEicPc>
   84a8c:	14000087 	b	84ca8 <_Z10tfp_formatPvPFvS_cEPcSt9__va_list+0x400>
   84a90:	b9401a61 	ldr	w1, [x19, #24]
   84a94:	f9400260 	ldr	x0, [x19]
   84a98:	7100003f 	cmp	w1, #0x0
   84a9c:	540000ab 	b.lt	84ab0 <_Z10tfp_formatPvPFvS_cEPcSt9__va_list+0x208>  // b.tstop
   84aa0:	91002c01 	add	x1, x0, #0xb
   84aa4:	927df021 	and	x1, x1, #0xfffffffffffffff8
   84aa8:	f9000261 	str	x1, [x19]
   84aac:	1400000d 	b	84ae0 <_Z10tfp_formatPvPFvS_cEPcSt9__va_list+0x238>
   84ab0:	11002022 	add	w2, w1, #0x8
   84ab4:	b9001a62 	str	w2, [x19, #24]
   84ab8:	b9401a62 	ldr	w2, [x19, #24]
   84abc:	7100005f 	cmp	w2, #0x0
   84ac0:	540000ad 	b.le	84ad4 <_Z10tfp_formatPvPFvS_cEPcSt9__va_list+0x22c>
   84ac4:	91002c01 	add	x1, x0, #0xb
   84ac8:	927df021 	and	x1, x1, #0xfffffffffffffff8
   84acc:	f9000261 	str	x1, [x19]
   84ad0:	14000004 	b	84ae0 <_Z10tfp_formatPvPFvS_cEPcSt9__va_list+0x238>
   84ad4:	f9400662 	ldr	x2, [x19, #8]
   84ad8:	93407c20 	sxtw	x0, w1
   84adc:	8b000040 	add	x0, x2, x0
   84ae0:	b9400000 	ldr	w0, [x0]
   84ae4:	910143e1 	add	x1, sp, #0x50
   84ae8:	97fffeca 	bl	84610 <_ZL3i2aiPc>
   84aec:	b9404fe0 	ldr	w0, [sp, #76]
   84af0:	910143e1 	add	x1, sp, #0x50
   84af4:	aa0103e4 	mov	x4, x1
   84af8:	39417be3 	ldrb	w3, [sp, #94]
   84afc:	2a0003e2 	mov	w2, w0
   84b00:	f9401be1 	ldr	x1, [sp, #48]
   84b04:	f9401fe0 	ldr	x0, [sp, #56]
   84b08:	97ffff26 	bl	847a0 <_ZL6putchwPvPFvS_cEicPc>
   84b0c:	14000067 	b	84ca8 <_Z10tfp_formatPvPFvS_cEPcSt9__va_list+0x400>
   84b10:	b9401a61 	ldr	w1, [x19, #24]
   84b14:	f9400260 	ldr	x0, [x19]
   84b18:	7100003f 	cmp	w1, #0x0
   84b1c:	540000ab 	b.lt	84b30 <_Z10tfp_formatPvPFvS_cEPcSt9__va_list+0x288>  // b.tstop
   84b20:	91002c01 	add	x1, x0, #0xb
   84b24:	927df021 	and	x1, x1, #0xfffffffffffffff8
   84b28:	f9000261 	str	x1, [x19]
   84b2c:	1400000d 	b	84b60 <_Z10tfp_formatPvPFvS_cEPcSt9__va_list+0x2b8>
   84b30:	11002022 	add	w2, w1, #0x8
   84b34:	b9001a62 	str	w2, [x19, #24]
   84b38:	b9401a62 	ldr	w2, [x19, #24]
   84b3c:	7100005f 	cmp	w2, #0x0
   84b40:	540000ad 	b.le	84b54 <_Z10tfp_formatPvPFvS_cEPcSt9__va_list+0x2ac>
   84b44:	91002c01 	add	x1, x0, #0xb
   84b48:	927df021 	and	x1, x1, #0xfffffffffffffff8
   84b4c:	f9000261 	str	x1, [x19]
   84b50:	14000004 	b	84b60 <_Z10tfp_formatPvPFvS_cEPcSt9__va_list+0x2b8>
   84b54:	f9400662 	ldr	x2, [x19, #8]
   84b58:	93407c20 	sxtw	x0, w1
   84b5c:	8b000040 	add	x0, x2, x0
   84b60:	b9400004 	ldr	w4, [x0]
   84b64:	39417fe0 	ldrb	w0, [sp, #95]
   84b68:	7101601f 	cmp	w0, #0x58
   84b6c:	1a9f17e0 	cset	w0, eq  // eq = none
   84b70:	12001c00 	and	w0, w0, #0xff
   84b74:	2a0003e1 	mov	w1, w0
   84b78:	910143e0 	add	x0, sp, #0x50
   84b7c:	aa0003e3 	mov	x3, x0
   84b80:	2a0103e2 	mov	w2, w1
   84b84:	52800201 	mov	w1, #0x10                  	// #16
   84b88:	2a0403e0 	mov	w0, w4
   84b8c:	97fffe56 	bl	844e4 <_ZL4ui2ajjiPc>
   84b90:	b9404fe0 	ldr	w0, [sp, #76]
   84b94:	910143e1 	add	x1, sp, #0x50
   84b98:	aa0103e4 	mov	x4, x1
   84b9c:	39417be3 	ldrb	w3, [sp, #94]
   84ba0:	2a0003e2 	mov	w2, w0
   84ba4:	f9401be1 	ldr	x1, [sp, #48]
   84ba8:	f9401fe0 	ldr	x0, [sp, #56]
   84bac:	97fffefd 	bl	847a0 <_ZL6putchwPvPFvS_cEicPc>
   84bb0:	1400003e 	b	84ca8 <_Z10tfp_formatPvPFvS_cEPcSt9__va_list+0x400>
   84bb4:	f9401be2 	ldr	x2, [sp, #48]
   84bb8:	b9401a61 	ldr	w1, [x19, #24]
   84bbc:	f9400260 	ldr	x0, [x19]
   84bc0:	7100003f 	cmp	w1, #0x0
   84bc4:	540000ab 	b.lt	84bd8 <_Z10tfp_formatPvPFvS_cEPcSt9__va_list+0x330>  // b.tstop
   84bc8:	91002c01 	add	x1, x0, #0xb
   84bcc:	927df021 	and	x1, x1, #0xfffffffffffffff8
   84bd0:	f9000261 	str	x1, [x19]
   84bd4:	1400000d 	b	84c08 <_Z10tfp_formatPvPFvS_cEPcSt9__va_list+0x360>
   84bd8:	11002023 	add	w3, w1, #0x8
   84bdc:	b9001a63 	str	w3, [x19, #24]
   84be0:	b9401a63 	ldr	w3, [x19, #24]
   84be4:	7100007f 	cmp	w3, #0x0
   84be8:	540000ad 	b.le	84bfc <_Z10tfp_formatPvPFvS_cEPcSt9__va_list+0x354>
   84bec:	91002c01 	add	x1, x0, #0xb
   84bf0:	927df021 	and	x1, x1, #0xfffffffffffffff8
   84bf4:	f9000261 	str	x1, [x19]
   84bf8:	14000004 	b	84c08 <_Z10tfp_formatPvPFvS_cEPcSt9__va_list+0x360>
   84bfc:	f9400663 	ldr	x3, [x19, #8]
   84c00:	93407c20 	sxtw	x0, w1
   84c04:	8b000060 	add	x0, x3, x0
   84c08:	b9400000 	ldr	w0, [x0]
   84c0c:	12001c00 	and	w0, w0, #0xff
   84c10:	2a0003e1 	mov	w1, w0
   84c14:	f9401fe0 	ldr	x0, [sp, #56]
   84c18:	d63f0040 	blr	x2
   84c1c:	14000023 	b	84ca8 <_Z10tfp_formatPvPFvS_cEPcSt9__va_list+0x400>
   84c20:	b9404fe5 	ldr	w5, [sp, #76]
   84c24:	b9401a61 	ldr	w1, [x19, #24]
   84c28:	f9400260 	ldr	x0, [x19]
   84c2c:	7100003f 	cmp	w1, #0x0
   84c30:	540000ab 	b.lt	84c44 <_Z10tfp_formatPvPFvS_cEPcSt9__va_list+0x39c>  // b.tstop
   84c34:	91003c01 	add	x1, x0, #0xf
   84c38:	927df021 	and	x1, x1, #0xfffffffffffffff8
   84c3c:	f9000261 	str	x1, [x19]
   84c40:	1400000d 	b	84c74 <_Z10tfp_formatPvPFvS_cEPcSt9__va_list+0x3cc>
   84c44:	11002022 	add	w2, w1, #0x8
   84c48:	b9001a62 	str	w2, [x19, #24]
   84c4c:	b9401a62 	ldr	w2, [x19, #24]
   84c50:	7100005f 	cmp	w2, #0x0
   84c54:	540000ad 	b.le	84c68 <_Z10tfp_formatPvPFvS_cEPcSt9__va_list+0x3c0>
   84c58:	91003c01 	add	x1, x0, #0xf
   84c5c:	927df021 	and	x1, x1, #0xfffffffffffffff8
   84c60:	f9000261 	str	x1, [x19]
   84c64:	14000004 	b	84c74 <_Z10tfp_formatPvPFvS_cEPcSt9__va_list+0x3cc>
   84c68:	f9400662 	ldr	x2, [x19, #8]
   84c6c:	93407c20 	sxtw	x0, w1
   84c70:	8b000040 	add	x0, x2, x0
   84c74:	f9400000 	ldr	x0, [x0]
   84c78:	aa0003e4 	mov	x4, x0
   84c7c:	52800003 	mov	w3, #0x0                   	// #0
   84c80:	2a0503e2 	mov	w2, w5
   84c84:	f9401be1 	ldr	x1, [sp, #48]
   84c88:	f9401fe0 	ldr	x0, [sp, #56]
   84c8c:	97fffec5 	bl	847a0 <_ZL6putchwPvPFvS_cEicPc>
   84c90:	14000006 	b	84ca8 <_Z10tfp_formatPvPFvS_cEPcSt9__va_list+0x400>
   84c94:	f9401be2 	ldr	x2, [sp, #48]
   84c98:	39417fe1 	ldrb	w1, [sp, #95]
   84c9c:	f9401fe0 	ldr	x0, [sp, #56]
   84ca0:	d63f0040 	blr	x2
   84ca4:	d503201f 	nop
   84ca8:	17ffff07 	b	848c4 <_Z10tfp_formatPvPFvS_cEPcSt9__va_list+0x1c>
   84cac:	d503201f 	nop
   84cb0:	14000002 	b	84cb8 <_Z10tfp_formatPvPFvS_cEPcSt9__va_list+0x410>
   84cb4:	d503201f 	nop
   84cb8:	d503201f 	nop
   84cbc:	f9400bf3 	ldr	x19, [sp, #16]
   84cc0:	a8c67bfd 	ldp	x29, x30, [sp], #96
   84cc4:	d65f03c0 	ret

0000000000084cc8 <_Z11init_printfPvPFvS_cE>:
   84cc8:	d10043ff 	sub	sp, sp, #0x10
   84ccc:	f90007e0 	str	x0, [sp, #8]
   84cd0:	f90003e1 	str	x1, [sp]
   84cd4:	b0000080 	adrp	x0, 95000 <_ZZN8valkyrie6kernel13MemoryManager12get_instanceEvE8instance+0x1e58>
   84cd8:	911f4000 	add	x0, x0, #0x7d0
   84cdc:	f94003e1 	ldr	x1, [sp]
   84ce0:	f9000001 	str	x1, [x0]
   84ce4:	b0000080 	adrp	x0, 95000 <_ZZN8valkyrie6kernel13MemoryManager12get_instanceEvE8instance+0x1e58>
   84ce8:	911f6000 	add	x0, x0, #0x7d8
   84cec:	f94007e1 	ldr	x1, [sp, #8]
   84cf0:	f9000001 	str	x1, [x0]
   84cf4:	d503201f 	nop
   84cf8:	910043ff 	add	sp, sp, #0x10
   84cfc:	d65f03c0 	ret

0000000000084d00 <_Z10tfp_printfPcz>:
   84d00:	a9ae7bfd 	stp	x29, x30, [sp, #-288]!
   84d04:	910003fd 	mov	x29, sp
   84d08:	f9001fe0 	str	x0, [sp, #56]
   84d0c:	f90077e1 	str	x1, [sp, #232]
   84d10:	f9007be2 	str	x2, [sp, #240]
   84d14:	f9007fe3 	str	x3, [sp, #248]
   84d18:	f90083e4 	str	x4, [sp, #256]
   84d1c:	f90087e5 	str	x5, [sp, #264]
   84d20:	f9008be6 	str	x6, [sp, #272]
   84d24:	f9008fe7 	str	x7, [sp, #280]
   84d28:	3d801be0 	str	q0, [sp, #96]
   84d2c:	3d801fe1 	str	q1, [sp, #112]
   84d30:	3d8023e2 	str	q2, [sp, #128]
   84d34:	3d8027e3 	str	q3, [sp, #144]
   84d38:	3d802be4 	str	q4, [sp, #160]
   84d3c:	3d802fe5 	str	q5, [sp, #176]
   84d40:	3d8033e6 	str	q6, [sp, #192]
   84d44:	3d8037e7 	str	q7, [sp, #208]
   84d48:	910483e0 	add	x0, sp, #0x120
   84d4c:	f90023e0 	str	x0, [sp, #64]
   84d50:	910483e0 	add	x0, sp, #0x120
   84d54:	f90027e0 	str	x0, [sp, #72]
   84d58:	910383e0 	add	x0, sp, #0xe0
   84d5c:	f9002be0 	str	x0, [sp, #80]
   84d60:	128006e0 	mov	w0, #0xffffffc8            	// #-56
   84d64:	b9005be0 	str	w0, [sp, #88]
   84d68:	12800fe0 	mov	w0, #0xffffff80            	// #-128
   84d6c:	b9005fe0 	str	w0, [sp, #92]
   84d70:	b0000080 	adrp	x0, 95000 <_ZZN8valkyrie6kernel13MemoryManager12get_instanceEvE8instance+0x1e58>
   84d74:	911f6000 	add	x0, x0, #0x7d8
   84d78:	f9400004 	ldr	x4, [x0]
   84d7c:	b0000080 	adrp	x0, 95000 <_ZZN8valkyrie6kernel13MemoryManager12get_instanceEvE8instance+0x1e58>
   84d80:	911f4000 	add	x0, x0, #0x7d0
   84d84:	f9400005 	ldr	x5, [x0]
   84d88:	910043e2 	add	x2, sp, #0x10
   84d8c:	910103e3 	add	x3, sp, #0x40
   84d90:	a9400460 	ldp	x0, x1, [x3]
   84d94:	a9000440 	stp	x0, x1, [x2]
   84d98:	a9410460 	ldp	x0, x1, [x3, #16]
   84d9c:	a9010440 	stp	x0, x1, [x2, #16]
   84da0:	910043e0 	add	x0, sp, #0x10
   84da4:	aa0003e3 	mov	x3, x0
   84da8:	f9401fe2 	ldr	x2, [sp, #56]
   84dac:	aa0503e1 	mov	x1, x5
   84db0:	aa0403e0 	mov	x0, x4
   84db4:	97fffebd 	bl	848a8 <_Z10tfp_formatPvPFvS_cEPcSt9__va_list>
   84db8:	d503201f 	nop
   84dbc:	a8d27bfd 	ldp	x29, x30, [sp], #288
   84dc0:	d65f03c0 	ret

0000000000084dc4 <_ZL5putcpPvc>:
   84dc4:	d10043ff 	sub	sp, sp, #0x10
   84dc8:	f90007e0 	str	x0, [sp, #8]
   84dcc:	39001fe1 	strb	w1, [sp, #7]
   84dd0:	39401fe3 	ldrb	w3, [sp, #7]
   84dd4:	f94007e0 	ldr	x0, [sp, #8]
   84dd8:	f9400000 	ldr	x0, [x0]
   84ddc:	91000402 	add	x2, x0, #0x1
   84de0:	f94007e1 	ldr	x1, [sp, #8]
   84de4:	f9000022 	str	x2, [x1]
   84de8:	2a0303e1 	mov	w1, w3
   84dec:	39000001 	strb	w1, [x0]
   84df0:	d503201f 	nop
   84df4:	910043ff 	add	sp, sp, #0x10
   84df8:	d65f03c0 	ret

0000000000084dfc <_Z11tfp_sprintfPcS_z>:
   84dfc:	a9af7bfd 	stp	x29, x30, [sp, #-272]!
   84e00:	910003fd 	mov	x29, sp
   84e04:	f9001fe0 	str	x0, [sp, #56]
   84e08:	f9001be1 	str	x1, [sp, #48]
   84e0c:	f90073e2 	str	x2, [sp, #224]
   84e10:	f90077e3 	str	x3, [sp, #232]
   84e14:	f9007be4 	str	x4, [sp, #240]
   84e18:	f9007fe5 	str	x5, [sp, #248]
   84e1c:	f90083e6 	str	x6, [sp, #256]
   84e20:	f90087e7 	str	x7, [sp, #264]
   84e24:	3d801be0 	str	q0, [sp, #96]
   84e28:	3d801fe1 	str	q1, [sp, #112]
   84e2c:	3d8023e2 	str	q2, [sp, #128]
   84e30:	3d8027e3 	str	q3, [sp, #144]
   84e34:	3d802be4 	str	q4, [sp, #160]
   84e38:	3d802fe5 	str	q5, [sp, #176]
   84e3c:	3d8033e6 	str	q6, [sp, #192]
   84e40:	3d8037e7 	str	q7, [sp, #208]
   84e44:	910443e0 	add	x0, sp, #0x110
   84e48:	f90023e0 	str	x0, [sp, #64]
   84e4c:	910443e0 	add	x0, sp, #0x110
   84e50:	f90027e0 	str	x0, [sp, #72]
   84e54:	910383e0 	add	x0, sp, #0xe0
   84e58:	f9002be0 	str	x0, [sp, #80]
   84e5c:	128005e0 	mov	w0, #0xffffffd0            	// #-48
   84e60:	b9005be0 	str	w0, [sp, #88]
   84e64:	12800fe0 	mov	w0, #0xffffff80            	// #-128
   84e68:	b9005fe0 	str	w0, [sp, #92]
   84e6c:	910043e2 	add	x2, sp, #0x10
   84e70:	910103e3 	add	x3, sp, #0x40
   84e74:	a9400460 	ldp	x0, x1, [x3]
   84e78:	a9000440 	stp	x0, x1, [x2]
   84e7c:	a9410460 	ldp	x0, x1, [x3, #16]
   84e80:	a9010440 	stp	x0, x1, [x2, #16]
   84e84:	910043e0 	add	x0, sp, #0x10
   84e88:	9100e3e4 	add	x4, sp, #0x38
   84e8c:	aa0003e3 	mov	x3, x0
   84e90:	f9401be2 	ldr	x2, [sp, #48]
   84e94:	90000000 	adrp	x0, 84000 <_ZN8valkyrie6kernel18PageFrameAllocator18free_list_del_headEPNS1_5BlockE+0xc>
   84e98:	91371001 	add	x1, x0, #0xdc4
   84e9c:	aa0403e0 	mov	x0, x4
   84ea0:	97fffe82 	bl	848a8 <_Z10tfp_formatPvPFvS_cEPcSt9__va_list>
   84ea4:	9100e3e0 	add	x0, sp, #0x38
   84ea8:	52800001 	mov	w1, #0x0                   	// #0
   84eac:	97ffffc6 	bl	84dc4 <_ZL5putcpPvc>
   84eb0:	d503201f 	nop
   84eb4:	a8d17bfd 	ldp	x29, x30, [sp], #272
   84eb8:	d65f03c0 	ret

0000000000084ebc <_ZZ9run_shellvENKUlvE_clEv>:
   84ebc:	a9bd7bfd 	stp	x29, x30, [sp, #-48]!
   84ec0:	910003fd 	mov	x29, sp
   84ec4:	f9000fe0 	str	x0, [sp, #24]
   84ec8:	f9400fe0 	ldr	x0, [sp, #24]
   84ecc:	94002997 	bl	8f528 <_ZNK8valkyrie6kernel6String5c_strEv>
   84ed0:	f90017e0 	str	x0, [sp, #40]
   84ed4:	9100a3e0 	add	x0, sp, #0x28
   84ed8:	aa0003e1 	mov	x1, x0
   84edc:	b0000020 	adrp	x0, 89000 <_ZN8valkyrie6kernel8FunctionIFvvEE12CallableImplIZNS0_16__run_unit_testsEvEUlvE_E4callEv+0x5e8>
   84ee0:	9108a000 	add	x0, x0, #0x228
   84ee4:	94002a0c 	bl	8f714 <_Z6printkIJPKcEEvS1_DpOT_>
   84ee8:	d503201f 	nop
   84eec:	a8c37bfd 	ldp	x29, x30, [sp], #48
   84ef0:	d65f03c0 	ret

0000000000084ef4 <_ZZ9run_shellvENUlvE_D1Ev>:
   84ef4:	a9be7bfd 	stp	x29, x30, [sp, #-32]!
   84ef8:	910003fd 	mov	x29, sp
   84efc:	f9000fe0 	str	x0, [sp, #24]
   84f00:	f9400fe0 	ldr	x0, [sp, #24]
   84f04:	94002972 	bl	8f4cc <_ZN8valkyrie6kernel6StringD1Ev>
   84f08:	d503201f 	nop
   84f0c:	a8c27bfd 	ldp	x29, x30, [sp], #32
   84f10:	d65f03c0 	ret

0000000000084f14 <_ZZ9run_shellvENUlvE_C1ERKS_>:
   84f14:	a9be7bfd 	stp	x29, x30, [sp, #-32]!
   84f18:	910003fd 	mov	x29, sp
   84f1c:	f9000fe0 	str	x0, [sp, #24]
   84f20:	f9000be1 	str	x1, [sp, #16]
   84f24:	f9400fe0 	ldr	x0, [sp, #24]
   84f28:	f9400be1 	ldr	x1, [sp, #16]
   84f2c:	94002940 	bl	8f42c <_ZN8valkyrie6kernel6StringC1ERKS1_>
   84f30:	d503201f 	nop
   84f34:	a8c27bfd 	ldp	x29, x30, [sp], #32
   84f38:	d65f03c0 	ret

0000000000084f3c <_Z9run_shellv>:
   84f3c:	a9aa7bfd 	stp	x29, x30, [sp, #-352]!
   84f40:	910003fd 	mov	x29, sp
   84f44:	f9000bf3 	str	x19, [sp, #16]
   84f48:	910103e0 	add	x0, sp, #0x40
   84f4c:	d2802002 	mov	x2, #0x100                 	// #256
   84f50:	52800001 	mov	w1, #0x0                   	// #0
   84f54:	97ffede5 	bl	806e8 <memset>
   84f58:	b0000020 	adrp	x0, 89000 <_ZN8valkyrie6kernel8FunctionIFvvEE12CallableImplIZNS0_16__run_unit_testsEvEUlvE_E4callEv+0x5e8>
   84f5c:	9108c000 	add	x0, x0, #0x230
   84f60:	94002431 	bl	8e024 <_Z6printfIJEEvPKcDpOT_>
   84f64:	910103e0 	add	x0, sp, #0x40
   84f68:	97ffecf9 	bl	8034c <gets>
   84f6c:	910103e0 	add	x0, sp, #0x40
   84f70:	97ffee20 	bl	807f0 <strlen>
   84f74:	f100001f 	cmp	x0, #0x0
   84f78:	1a9f17e0 	cset	w0, eq  // eq = none
   84f7c:	12001c00 	and	w0, w0, #0xff
   84f80:	7100001f 	cmp	w0, #0x0
   84f84:	54002861 	b.ne	85490 <_Z9run_shellv+0x554>  // b.any
   84f88:	910103e2 	add	x2, sp, #0x40
   84f8c:	b0000020 	adrp	x0, 89000 <_ZN8valkyrie6kernel8FunctionIFvvEE12CallableImplIZNS0_16__run_unit_testsEvEUlvE_E4callEv+0x5e8>
   84f90:	9108e001 	add	x1, x0, #0x238
   84f94:	aa0203e0 	mov	x0, x2
   84f98:	97ffee27 	bl	80834 <strcmp>
   84f9c:	7100001f 	cmp	w0, #0x0
   84fa0:	1a9f17e0 	cset	w0, eq  // eq = none
   84fa4:	12001c00 	and	w0, w0, #0xff
   84fa8:	7100001f 	cmp	w0, #0x0
   84fac:	540003c0 	b.eq	85024 <_Z9run_shellv+0xe8>  // b.none
   84fb0:	52800021 	mov	w1, #0x1                   	// #1
   84fb4:	b0000020 	adrp	x0, 89000 <_ZN8valkyrie6kernel8FunctionIFvvEE12CallableImplIZNS0_16__run_unit_testsEvEUlvE_E4callEv+0x5e8>
   84fb8:	91090000 	add	x0, x0, #0x240
   84fbc:	97ffecfa 	bl	803a4 <puts>
   84fc0:	52800021 	mov	w1, #0x1                   	// #1
   84fc4:	b0000020 	adrp	x0, 89000 <_ZN8valkyrie6kernel8FunctionIFvvEE12CallableImplIZNS0_16__run_unit_testsEvEUlvE_E4callEv+0x5e8>
   84fc8:	91092000 	add	x0, x0, #0x248
   84fcc:	97ffecf6 	bl	803a4 <puts>
   84fd0:	52800021 	mov	w1, #0x1                   	// #1
   84fd4:	b0000020 	adrp	x0, 89000 <_ZN8valkyrie6kernel8FunctionIFvvEE12CallableImplIZNS0_16__run_unit_testsEvEUlvE_E4callEv+0x5e8>
   84fd8:	9109e000 	add	x0, x0, #0x278
   84fdc:	97ffecf2 	bl	803a4 <puts>
   84fe0:	52800021 	mov	w1, #0x1                   	// #1
   84fe4:	b0000020 	adrp	x0, 89000 <_ZN8valkyrie6kernel8FunctionIFvvEE12CallableImplIZNS0_16__run_unit_testsEvEUlvE_E4callEv+0x5e8>
   84fe8:	910a6000 	add	x0, x0, #0x298
   84fec:	97ffecee 	bl	803a4 <puts>
   84ff0:	52800021 	mov	w1, #0x1                   	// #1
   84ff4:	b0000020 	adrp	x0, 89000 <_ZN8valkyrie6kernel8FunctionIFvvEE12CallableImplIZNS0_16__run_unit_testsEvEUlvE_E4callEv+0x5e8>
   84ff8:	910b6000 	add	x0, x0, #0x2d8
   84ffc:	97ffecea 	bl	803a4 <puts>
   85000:	52800021 	mov	w1, #0x1                   	// #1
   85004:	90000020 	adrp	x0, 89000 <_ZN8valkyrie6kernel8FunctionIFvvEE12CallableImplIZNS0_16__run_unit_testsEvEUlvE_E4callEv+0x5e8>
   85008:	910c2000 	add	x0, x0, #0x308
   8500c:	97ffece6 	bl	803a4 <puts>
   85010:	52800021 	mov	w1, #0x1                   	// #1
   85014:	90000020 	adrp	x0, 89000 <_ZN8valkyrie6kernel8FunctionIFvvEE12CallableImplIZNS0_16__run_unit_testsEvEUlvE_E4callEv+0x5e8>
   85018:	910ce000 	add	x0, x0, #0x338
   8501c:	97ffece2 	bl	803a4 <puts>
   85020:	17ffffca 	b	84f48 <_Z9run_shellv+0xc>
   85024:	910103e2 	add	x2, sp, #0x40
   85028:	90000020 	adrp	x0, 89000 <_ZN8valkyrie6kernel8FunctionIFvvEE12CallableImplIZNS0_16__run_unit_testsEvEUlvE_E4callEv+0x5e8>
   8502c:	910de001 	add	x1, x0, #0x378
   85030:	aa0203e0 	mov	x0, x2
   85034:	97ffee00 	bl	80834 <strcmp>
   85038:	7100001f 	cmp	w0, #0x0
   8503c:	1a9f17e0 	cset	w0, eq  // eq = none
   85040:	12001c00 	and	w0, w0, #0xff
   85044:	7100001f 	cmp	w0, #0x0
   85048:	54000100 	b.eq	85068 <_Z9run_shellv+0x12c>  // b.none
   8504c:	52800021 	mov	w1, #0x1                   	// #1
   85050:	90000020 	adrp	x0, 89000 <_ZN8valkyrie6kernel8FunctionIFvvEE12CallableImplIZNS0_16__run_unit_testsEvEUlvE_E4callEv+0x5e8>
   85054:	910e0000 	add	x0, x0, #0x380
   85058:	97ffecd3 	bl	803a4 <puts>
   8505c:	52800c80 	mov	w0, #0x64                  	// #100
   85060:	94002939 	bl	8f544 <_ZN8valkyrie6kernel5resetEi>
   85064:	17ffffb9 	b	84f48 <_Z9run_shellv+0xc>
   85068:	910103e2 	add	x2, sp, #0x40
   8506c:	90000020 	adrp	x0, 89000 <_ZN8valkyrie6kernel8FunctionIFvvEE12CallableImplIZNS0_16__run_unit_testsEvEUlvE_E4callEv+0x5e8>
   85070:	910e4001 	add	x1, x0, #0x390
   85074:	aa0203e0 	mov	x0, x2
   85078:	97ffedef 	bl	80834 <strcmp>
   8507c:	7100001f 	cmp	w0, #0x0
   85080:	1a9f17e0 	cset	w0, eq  // eq = none
   85084:	12001c00 	and	w0, w0, #0xff
   85088:	7100001f 	cmp	w0, #0x0
   8508c:	54000060 	b.eq	85098 <_Z9run_shellv+0x15c>  // b.none
   85090:	d4000021 	svc	#0x1
   85094:	17ffffad 	b	84f48 <_Z9run_shellv+0xc>
   85098:	910103e2 	add	x2, sp, #0x40
   8509c:	90000020 	adrp	x0, 89000 <_ZN8valkyrie6kernel8FunctionIFvvEE12CallableImplIZNS0_16__run_unit_testsEvEUlvE_E4callEv+0x5e8>
   850a0:	910e6001 	add	x1, x0, #0x398
   850a4:	aa0203e0 	mov	x0, x2
   850a8:	97ffede3 	bl	80834 <strcmp>
   850ac:	7100001f 	cmp	w0, #0x0
   850b0:	1a9f17e0 	cset	w0, eq  // eq = none
   850b4:	12001c00 	and	w0, w0, #0xff
   850b8:	7100001f 	cmp	w0, #0x0
   850bc:	54000080 	b.eq	850cc <_Z9run_shellv+0x190>  // b.none
   850c0:	d2800001 	mov	x1, #0x0                   	// #0
   850c4:	d4000001 	svc	#0x0
   850c8:	17ffffa0 	b	84f48 <_Z9run_shellv+0xc>
   850cc:	910103e2 	add	x2, sp, #0x40
   850d0:	90000020 	adrp	x0, 89000 <_ZN8valkyrie6kernel8FunctionIFvvEE12CallableImplIZNS0_16__run_unit_testsEvEUlvE_E4callEv+0x5e8>
   850d4:	910ea001 	add	x1, x0, #0x3a8
   850d8:	aa0203e0 	mov	x0, x2
   850dc:	97ffedd6 	bl	80834 <strcmp>
   850e0:	7100001f 	cmp	w0, #0x0
   850e4:	1a9f17e0 	cset	w0, eq  // eq = none
   850e8:	12001c00 	and	w0, w0, #0xff
   850ec:	7100001f 	cmp	w0, #0x0
   850f0:	54000080 	b.eq	85100 <_Z9run_shellv+0x1c4>  // b.none
   850f4:	d2800021 	mov	x1, #0x1                   	// #1
   850f8:	d4000001 	svc	#0x0
   850fc:	17ffff93 	b	84f48 <_Z9run_shellv+0xc>
   85100:	910103e2 	add	x2, sp, #0x40
   85104:	90000020 	adrp	x0, 89000 <_ZN8valkyrie6kernel8FunctionIFvvEE12CallableImplIZNS0_16__run_unit_testsEvEUlvE_E4callEv+0x5e8>
   85108:	910ee001 	add	x1, x0, #0x3b8
   8510c:	aa0203e0 	mov	x0, x2
   85110:	97ffedc9 	bl	80834 <strcmp>
   85114:	7100001f 	cmp	w0, #0x0
   85118:	1a9f17e0 	cset	w0, eq  // eq = none
   8511c:	12001c00 	and	w0, w0, #0xff
   85120:	7100001f 	cmp	w0, #0x0
   85124:	54000240 	b.eq	8516c <_Z9run_shellv+0x230>  // b.none
   85128:	90000020 	adrp	x0, 89000 <_ZN8valkyrie6kernel8FunctionIFvvEE12CallableImplIZNS0_16__run_unit_testsEvEUlvE_E4callEv+0x5e8>
   8512c:	910f0000 	add	x0, x0, #0x3c0
   85130:	940023bd 	bl	8e024 <_Z6printfIJEEvPKcDpOT_>
   85134:	910103e0 	add	x0, sp, #0x40
   85138:	97ffec85 	bl	8034c <gets>
   8513c:	910103e0 	add	x0, sp, #0x40
   85140:	52800141 	mov	w1, #0xa                   	// #10
   85144:	97ffef0d 	bl	80d78 <atoi>
   85148:	93407c00 	sxtw	x0, w0
   8514c:	940027b9 	bl	8f030 <kmalloc>
   85150:	f9001fe0 	str	x0, [sp, #56]
   85154:	9100e3e0 	add	x0, sp, #0x38
   85158:	aa0003e1 	mov	x1, x0
   8515c:	90000020 	adrp	x0, 89000 <_ZN8valkyrie6kernel8FunctionIFvvEE12CallableImplIZNS0_16__run_unit_testsEvEUlvE_E4callEv+0x5e8>
   85160:	910f6000 	add	x0, x0, #0x3d8
   85164:	94002400 	bl	8e164 <_Z6printfIJRPvEEvPKcDpOT_>
   85168:	17ffff78 	b	84f48 <_Z9run_shellv+0xc>
   8516c:	910103e2 	add	x2, sp, #0x40
   85170:	90000020 	adrp	x0, 89000 <_ZN8valkyrie6kernel8FunctionIFvvEE12CallableImplIZNS0_16__run_unit_testsEvEUlvE_E4callEv+0x5e8>
   85174:	910fc001 	add	x1, x0, #0x3f0
   85178:	aa0203e0 	mov	x0, x2
   8517c:	97ffedae 	bl	80834 <strcmp>
   85180:	7100001f 	cmp	w0, #0x0
   85184:	1a9f17e0 	cset	w0, eq  // eq = none
   85188:	12001c00 	and	w0, w0, #0xff
   8518c:	7100001f 	cmp	w0, #0x0
   85190:	540001c0 	b.eq	851c8 <_Z9run_shellv+0x28c>  // b.none
   85194:	90000020 	adrp	x0, 89000 <_ZN8valkyrie6kernel8FunctionIFvvEE12CallableImplIZNS0_16__run_unit_testsEvEUlvE_E4callEv+0x5e8>
   85198:	910fe000 	add	x0, x0, #0x3f8
   8519c:	940023a2 	bl	8e024 <_Z6printfIJEEvPKcDpOT_>
   851a0:	910103e0 	add	x0, sp, #0x40
   851a4:	97ffec6a 	bl	8034c <gets>
   851a8:	910103e0 	add	x0, sp, #0x40
   851ac:	52800201 	mov	w1, #0x10                  	// #16
   851b0:	97ffeef2 	bl	80d78 <atoi>
   851b4:	93407c00 	sxtw	x0, w0
   851b8:	f900afe0 	str	x0, [sp, #344]
   851bc:	f940afe0 	ldr	x0, [sp, #344]
   851c0:	940027a4 	bl	8f050 <kfree>
   851c4:	17ffff61 	b	84f48 <_Z9run_shellv+0xc>
   851c8:	910103e2 	add	x2, sp, #0x40
   851cc:	90000020 	adrp	x0, 89000 <_ZN8valkyrie6kernel8FunctionIFvvEE12CallableImplIZNS0_16__run_unit_testsEvEUlvE_E4callEv+0x5e8>
   851d0:	9110e001 	add	x1, x0, #0x438
   851d4:	aa0203e0 	mov	x0, x2
   851d8:	97ffed97 	bl	80834 <strcmp>
   851dc:	7100001f 	cmp	w0, #0x0
   851e0:	1a9f17e0 	cset	w0, eq  // eq = none
   851e4:	12001c00 	and	w0, w0, #0xff
   851e8:	7100001f 	cmp	w0, #0x0
   851ec:	54000080 	b.eq	851fc <_Z9run_shellv+0x2c0>  // b.none
   851f0:	97fff67e 	bl	82be8 <_ZN8valkyrie6kernel13MemoryManager12get_instanceEv>
   851f4:	97fff6e4 	bl	82d84 <_ZNK8valkyrie6kernel13MemoryManager30dump_page_frame_allocator_infoEv>
   851f8:	17ffff54 	b	84f48 <_Z9run_shellv+0xc>
   851fc:	910103e2 	add	x2, sp, #0x40
   85200:	90000020 	adrp	x0, 89000 <_ZN8valkyrie6kernel8FunctionIFvvEE12CallableImplIZNS0_16__run_unit_testsEvEUlvE_E4callEv+0x5e8>
   85204:	91112001 	add	x1, x0, #0x448
   85208:	aa0203e0 	mov	x0, x2
   8520c:	97ffed8a 	bl	80834 <strcmp>
   85210:	7100001f 	cmp	w0, #0x0
   85214:	1a9f17e0 	cset	w0, eq  // eq = none
   85218:	12001c00 	and	w0, w0, #0xff
   8521c:	7100001f 	cmp	w0, #0x0
   85220:	54000080 	b.eq	85230 <_Z9run_shellv+0x2f4>  // b.none
   85224:	97fff671 	bl	82be8 <_ZN8valkyrie6kernel13MemoryManager12get_instanceEv>
   85228:	97fff6df 	bl	82da4 <_ZNK8valkyrie6kernel13MemoryManager24dump_slob_allocator_infoEv>
   8522c:	17ffff47 	b	84f48 <_Z9run_shellv+0xc>
   85230:	910103e2 	add	x2, sp, #0x40
   85234:	90000020 	adrp	x0, 89000 <_ZN8valkyrie6kernel8FunctionIFvvEE12CallableImplIZNS0_16__run_unit_testsEvEUlvE_E4callEv+0x5e8>
   85238:	91116001 	add	x1, x0, #0x458
   8523c:	aa0203e0 	mov	x0, x2
   85240:	97ffed7d 	bl	80834 <strcmp>
   85244:	7100001f 	cmp	w0, #0x0
   85248:	1a9f17e0 	cset	w0, eq  // eq = none
   8524c:	12001c00 	and	w0, w0, #0xff
   85250:	7100001f 	cmp	w0, #0x0
   85254:	54ffe7a1 	b.ne	84f48 <_Z9run_shellv+0xc>  // b.any
   85258:	910103e2 	add	x2, sp, #0x40
   8525c:	90000020 	adrp	x0, 89000 <_ZN8valkyrie6kernel8FunctionIFvvEE12CallableImplIZNS0_16__run_unit_testsEvEUlvE_E4callEv+0x5e8>
   85260:	91118001 	add	x1, x0, #0x460
   85264:	aa0203e0 	mov	x0, x2
   85268:	97ffed73 	bl	80834 <strcmp>
   8526c:	7100001f 	cmp	w0, #0x0
   85270:	1a9f17e0 	cset	w0, eq  // eq = none
   85274:	12001c00 	and	w0, w0, #0xff
   85278:	7100001f 	cmp	w0, #0x0
   8527c:	54000560 	b.eq	85328 <_Z9run_shellv+0x3ec>  // b.none
   85280:	90000020 	adrp	x0, 89000 <_ZN8valkyrie6kernel8FunctionIFvvEE12CallableImplIZNS0_16__run_unit_testsEvEUlvE_E4callEv+0x5e8>
   85284:	9111c000 	add	x0, x0, #0x470
   85288:	94002367 	bl	8e024 <_Z6printfIJEEvPKcDpOT_>
   8528c:	910103e0 	add	x0, sp, #0x40
   85290:	97ffec2f 	bl	8034c <gets>
   85294:	910103e1 	add	x1, sp, #0x40
   85298:	9100c3e0 	add	x0, sp, #0x30
   8529c:	94002853 	bl	8f3e8 <_ZN8valkyrie6kernel6StringC1EPKc>
   852a0:	90000020 	adrp	x0, 89000 <_ZN8valkyrie6kernel8FunctionIFvvEE12CallableImplIZNS0_16__run_unit_testsEvEUlvE_E4callEv+0x5e8>
   852a4:	91120000 	add	x0, x0, #0x480
   852a8:	9400235f 	bl	8e024 <_Z6printfIJEEvPKcDpOT_>
   852ac:	910103e0 	add	x0, sp, #0x40
   852b0:	97ffec27 	bl	8034c <gets>
   852b4:	9100c3e1 	add	x1, sp, #0x30
   852b8:	9100a3e0 	add	x0, sp, #0x28
   852bc:	9400285c 	bl	8f42c <_ZN8valkyrie6kernel6StringC1ERKS1_>
   852c0:	94000b24 	bl	87f50 <_ZN8valkyrie6kernel16TimerMultiplexer12get_instanceEv>
   852c4:	aa0003f3 	mov	x19, x0
   852c8:	9100a3e1 	add	x1, sp, #0x28
   852cc:	910543e0 	add	x0, sp, #0x150
   852d0:	97ffff11 	bl	84f14 <_ZZ9run_shellvENUlvE_C1ERKS_>
   852d4:	910543e1 	add	x1, sp, #0x150
   852d8:	910503e0 	add	x0, sp, #0x140
   852dc:	94000074 	bl	854ac <_ZN8valkyrie6kernel8FunctionIFvvEEC1IZ9run_shellvEUlvE_EET_>
   852e0:	910103e0 	add	x0, sp, #0x40
   852e4:	52800141 	mov	w1, #0xa                   	// #10
   852e8:	97ffeea4 	bl	80d78 <atoi>
   852ec:	2a0003e1 	mov	w1, w0
   852f0:	910503e0 	add	x0, sp, #0x140
   852f4:	2a0103e2 	mov	w2, w1
   852f8:	aa0003e1 	mov	x1, x0
   852fc:	aa1303e0 	mov	x0, x19
   85300:	94000b7d 	bl	880f4 <_ZN8valkyrie6kernel16TimerMultiplexer9add_timerENS0_8FunctionIFvvEEEj>
   85304:	910503e0 	add	x0, sp, #0x140
   85308:	9400240e 	bl	8e340 <_ZN8valkyrie6kernel8FunctionIFvvEED1Ev>
   8530c:	910543e0 	add	x0, sp, #0x150
   85310:	97fffef9 	bl	84ef4 <_ZZ9run_shellvENUlvE_D1Ev>
   85314:	9100a3e0 	add	x0, sp, #0x28
   85318:	97fffef7 	bl	84ef4 <_ZZ9run_shellvENUlvE_D1Ev>
   8531c:	9100c3e0 	add	x0, sp, #0x30
   85320:	9400286b 	bl	8f4cc <_ZN8valkyrie6kernel6StringD1Ev>
   85324:	17ffff09 	b	84f48 <_Z9run_shellv+0xc>
   85328:	910103e2 	add	x2, sp, #0x40
   8532c:	90000020 	adrp	x0, 89000 <_ZN8valkyrie6kernel8FunctionIFvvEE12CallableImplIZNS0_16__run_unit_testsEvEUlvE_E4callEv+0x5e8>
   85330:	91124001 	add	x1, x0, #0x490
   85334:	aa0203e0 	mov	x0, x2
   85338:	97ffed3f 	bl	80834 <strcmp>
   8533c:	7100001f 	cmp	w0, #0x0
   85340:	1a9f17e0 	cset	w0, eq  // eq = none
   85344:	12001c00 	and	w0, w0, #0xff
   85348:	7100001f 	cmp	w0, #0x0
   8534c:	54000160 	b.eq	85378 <_Z9run_shellv+0x43c>  // b.none
   85350:	90000020 	adrp	x0, 89000 <_ZN8valkyrie6kernel8FunctionIFvvEE12CallableImplIZNS0_16__run_unit_testsEvEUlvE_E4callEv+0x5e8>
   85354:	91128000 	add	x0, x0, #0x4a0
   85358:	94002333 	bl	8e024 <_Z6printfIJEEvPKcDpOT_>
   8535c:	97fff6cb 	bl	82e88 <_ZN8valkyrie6kernel8MiniUART12get_instanceEv>
   85360:	52800021 	mov	w1, #0x1                   	// #1
   85364:	97fff956 	bl	838bc <_ZN8valkyrie6kernel8MiniUART23set_read_buffer_enabledEb>
   85368:	97fff6c8 	bl	82e88 <_ZN8valkyrie6kernel8MiniUART12get_instanceEv>
   8536c:	52800021 	mov	w1, #0x1                   	// #1
   85370:	97fff95c 	bl	838e0 <_ZN8valkyrie6kernel8MiniUART24set_write_buffer_enabledEb>
   85374:	17fffef5 	b	84f48 <_Z9run_shellv+0xc>
   85378:	910103e2 	add	x2, sp, #0x40
   8537c:	90000020 	adrp	x0, 89000 <_ZN8valkyrie6kernel8FunctionIFvvEE12CallableImplIZNS0_16__run_unit_testsEvEUlvE_E4callEv+0x5e8>
   85380:	9112e001 	add	x1, x0, #0x4b8
   85384:	aa0203e0 	mov	x0, x2
   85388:	97ffed2b 	bl	80834 <strcmp>
   8538c:	7100001f 	cmp	w0, #0x0
   85390:	1a9f17e0 	cset	w0, eq  // eq = none
   85394:	12001c00 	and	w0, w0, #0xff
   85398:	7100001f 	cmp	w0, #0x0
   8539c:	54000160 	b.eq	853c8 <_Z9run_shellv+0x48c>  // b.none
   853a0:	90000020 	adrp	x0, 89000 <_ZN8valkyrie6kernel8FunctionIFvvEE12CallableImplIZNS0_16__run_unit_testsEvEUlvE_E4callEv+0x5e8>
   853a4:	91134000 	add	x0, x0, #0x4d0
   853a8:	9400231f 	bl	8e024 <_Z6printfIJEEvPKcDpOT_>
   853ac:	97fff6b7 	bl	82e88 <_ZN8valkyrie6kernel8MiniUART12get_instanceEv>
   853b0:	52800001 	mov	w1, #0x0                   	// #0
   853b4:	97fff942 	bl	838bc <_ZN8valkyrie6kernel8MiniUART23set_read_buffer_enabledEb>
   853b8:	97fff6b4 	bl	82e88 <_ZN8valkyrie6kernel8MiniUART12get_instanceEv>
   853bc:	52800001 	mov	w1, #0x0                   	// #0
   853c0:	97fff948 	bl	838e0 <_ZN8valkyrie6kernel8MiniUART24set_write_buffer_enabledEb>
   853c4:	17fffee1 	b	84f48 <_Z9run_shellv+0xc>
   853c8:	910103e2 	add	x2, sp, #0x40
   853cc:	90000020 	adrp	x0, 89000 <_ZN8valkyrie6kernel8FunctionIFvvEE12CallableImplIZNS0_16__run_unit_testsEvEUlvE_E4callEv+0x5e8>
   853d0:	9113a001 	add	x1, x0, #0x4e8
   853d4:	aa0203e0 	mov	x0, x2
   853d8:	97ffed17 	bl	80834 <strcmp>
   853dc:	7100001f 	cmp	w0, #0x0
   853e0:	1a9f17e0 	cset	w0, eq  // eq = none
   853e4:	12001c00 	and	w0, w0, #0xff
   853e8:	7100001f 	cmp	w0, #0x0
   853ec:	54000180 	b.eq	8541c <_Z9run_shellv+0x4e0>  // b.none
   853f0:	97fff6a6 	bl	82e88 <_ZN8valkyrie6kernel8MiniUART12get_instanceEv>
   853f4:	aa0003f3 	mov	x19, x0
   853f8:	97fff6a4 	bl	82e88 <_ZN8valkyrie6kernel8MiniUART12get_instanceEv>
   853fc:	97fff921 	bl	83880 <_ZNK8valkyrie6kernel8MiniUART12is_debuggingEv>
   85400:	12001c00 	and	w0, w0, #0xff
   85404:	52000000 	eor	w0, w0, #0x1
   85408:	12001c00 	and	w0, w0, #0xff
   8540c:	2a0003e1 	mov	w1, w0
   85410:	aa1303e0 	mov	x0, x19
   85414:	97fff921 	bl	83898 <_ZN8valkyrie6kernel8MiniUART13set_debuggingEb>
   85418:	17fffecc 	b	84f48 <_Z9run_shellv+0xc>
   8541c:	910103e2 	add	x2, sp, #0x40
   85420:	90000020 	adrp	x0, 89000 <_ZN8valkyrie6kernel8FunctionIFvvEE12CallableImplIZNS0_16__run_unit_testsEvEUlvE_E4callEv+0x5e8>
   85424:	9113e001 	add	x1, x0, #0x4f8
   85428:	aa0203e0 	mov	x0, x2
   8542c:	97ffed02 	bl	80834 <strcmp>
   85430:	7100001f 	cmp	w0, #0x0
   85434:	1a9f17e0 	cset	w0, eq  // eq = none
   85438:	12001c00 	and	w0, w0, #0xff
   8543c:	7100001f 	cmp	w0, #0x0
   85440:	54000080 	b.eq	85450 <_Z9run_shellv+0x514>  // b.none
   85444:	90000020 	adrp	x0, 89000 <_ZN8valkyrie6kernel8FunctionIFvvEE12CallableImplIZNS0_16__run_unit_testsEvEUlvE_E4callEv+0x5e8>
   85448:	91140000 	add	x0, x0, #0x500
   8544c:	94002254 	bl	8dd9c <_ZN8valkyrie6kernel6Kernel5panicIJEEEvPKcDpOT_>
   85450:	910103e2 	add	x2, sp, #0x40
   85454:	90000020 	adrp	x0, 89000 <_ZN8valkyrie6kernel8FunctionIFvvEE12CallableImplIZNS0_16__run_unit_testsEvEUlvE_E4callEv+0x5e8>
   85458:	91146001 	add	x1, x0, #0x518
   8545c:	aa0203e0 	mov	x0, x2
   85460:	97ffecf5 	bl	80834 <strcmp>
   85464:	7100001f 	cmp	w0, #0x0
   85468:	1a9f17e0 	cset	w0, eq  // eq = none
   8546c:	12001c00 	and	w0, w0, #0xff
   85470:	7100001f 	cmp	w0, #0x0
   85474:	54000121 	b.ne	85498 <_Z9run_shellv+0x55c>  // b.any
   85478:	910103e0 	add	x0, sp, #0x40
   8547c:	aa0003e1 	mov	x1, x0
   85480:	90000020 	adrp	x0, 89000 <_ZN8valkyrie6kernel8FunctionIFvvEE12CallableImplIZNS0_16__run_unit_testsEvEUlvE_E4callEv+0x5e8>
   85484:	91148000 	add	x0, x0, #0x520
   85488:	940028dc 	bl	8f7f8 <_Z6printfIJRA256_cEEvPKcDpOT_>
   8548c:	17fffeaf 	b	84f48 <_Z9run_shellv+0xc>
   85490:	d503201f 	nop
   85494:	17fffead 	b	84f48 <_Z9run_shellv+0xc>
   85498:	d503201f 	nop
   8549c:	d503201f 	nop
   854a0:	f9400bf3 	ldr	x19, [sp, #16]
   854a4:	a8d67bfd 	ldp	x29, x30, [sp], #352
   854a8:	d65f03c0 	ret

00000000000854ac <_ZN8valkyrie6kernel8FunctionIFvvEEC1IZ9run_shellvEUlvE_EET_>:
   854ac:	a9bd7bfd 	stp	x29, x30, [sp, #-48]!
   854b0:	910003fd 	mov	x29, sp
   854b4:	f9000fe0 	str	x0, [sp, #24]
   854b8:	f9000be1 	str	x1, [sp, #16]
   854bc:	f9400fe0 	ldr	x0, [sp, #24]
   854c0:	94002918 	bl	8f920 <_ZN8valkyrie6kernel9SharedPtrINS0_8FunctionIFvvEE13CallableIfaceEEC1Ev>
   854c4:	9100a3e0 	add	x0, sp, #0x28
   854c8:	f9400be1 	ldr	x1, [sp, #16]
   854cc:	97fffe92 	bl	84f14 <_ZZ9run_shellvENUlvE_C1ERKS_>
   854d0:	9100a3e0 	add	x0, sp, #0x28
   854d4:	aa0003e1 	mov	x1, x0
   854d8:	f9400fe0 	ldr	x0, [sp, #24]
   854dc:	94000006 	bl	854f4 <_ZN8valkyrie6kernel8FunctionIFvvEEaSIZ9run_shellvEUlvE_EERS3_T_>
   854e0:	9100a3e0 	add	x0, sp, #0x28
   854e4:	97fffe84 	bl	84ef4 <_ZZ9run_shellvENUlvE_D1Ev>
   854e8:	d503201f 	nop
   854ec:	a8c37bfd 	ldp	x29, x30, [sp], #48
   854f0:	d65f03c0 	ret

00000000000854f4 <_ZN8valkyrie6kernel8FunctionIFvvEEaSIZ9run_shellvEUlvE_EERS3_T_>:
   854f4:	a9bc7bfd 	stp	x29, x30, [sp, #-64]!
   854f8:	910003fd 	mov	x29, sp
   854fc:	f9000fe0 	str	x0, [sp, #24]
   85500:	f9000be1 	str	x1, [sp, #16]
   85504:	9100c3e0 	add	x0, sp, #0x30
   85508:	aa0003e8 	mov	x8, x0
   8550c:	f9400be0 	ldr	x0, [sp, #16]
   85510:	9400000f 	bl	8554c <_ZN8valkyrie6kernel11make_sharedINS0_8FunctionIFvvEE12CallableImplIZ9run_shellvEUlvE_EEJRS6_EEENS0_9_SharedIfIT_E13_SingleObjectEDpOT0_>
   85514:	9100c3e0 	add	x0, sp, #0x30
   85518:	910083e1 	add	x1, sp, #0x20
   8551c:	aa0103e8 	mov	x8, x1
   85520:	9400002a 	bl	855c8 <_ZNK8valkyrie6kernel9SharedPtrINS0_8FunctionIFvvEE12CallableImplIZ9run_shellvEUlvE_EEEcvNS1_IT_EEINS4_13CallableIfaceEEEv>
   85524:	f9400fe0 	ldr	x0, [sp, #24]
   85528:	910083e1 	add	x1, sp, #0x20
   8552c:	94002919 	bl	8f990 <_ZN8valkyrie6kernel9SharedPtrINS0_8FunctionIFvvEE13CallableIfaceEEaSEOS6_>
   85530:	910083e0 	add	x0, sp, #0x20
   85534:	940023bb 	bl	8e420 <_ZN8valkyrie6kernel9SharedPtrINS0_8FunctionIFvvEE13CallableIfaceEED1Ev>
   85538:	9100c3e0 	add	x0, sp, #0x30
   8553c:	9400001b 	bl	855a8 <_ZN8valkyrie6kernel9SharedPtrINS0_8FunctionIFvvEE12CallableImplIZ9run_shellvEUlvE_EEED1Ev>
   85540:	f9400fe0 	ldr	x0, [sp, #24]
   85544:	a8c47bfd 	ldp	x29, x30, [sp], #64
   85548:	d65f03c0 	ret

000000000008554c <_ZN8valkyrie6kernel11make_sharedINS0_8FunctionIFvvEE12CallableImplIZ9run_shellvEUlvE_EEJRS6_EEENS0_9_SharedIfIT_E13_SingleObjectEDpOT0_>:
   8554c:	a9bc7bfd 	stp	x29, x30, [sp, #-64]!
   85550:	910003fd 	mov	x29, sp
   85554:	a90153f3 	stp	x19, x20, [sp, #16]
   85558:	f90013f5 	str	x21, [sp, #32]
   8555c:	aa0803f3 	mov	x19, x8
   85560:	f9001fe0 	str	x0, [sp, #56]
   85564:	f9401fe0 	ldr	x0, [sp, #56]
   85568:	94000024 	bl	855f8 <_ZN8valkyrie6kernel7forwardIRZ9run_shellvEUlvE_EEOT_RNS0_16_RemoveReferenceIS4_E4TypeE>
   8556c:	aa0003f5 	mov	x21, x0
   85570:	d2800200 	mov	x0, #0x10                  	// #16
   85574:	97fff615 	bl	82dc8 <_Znwm>
   85578:	aa0003f4 	mov	x20, x0
   8557c:	aa1503e1 	mov	x1, x21
   85580:	aa1403e0 	mov	x0, x20
   85584:	94000022 	bl	8560c <_ZN8valkyrie6kernel8FunctionIFvvEE12CallableImplIZ9run_shellvEUlvE_EC1ERKS5_>
   85588:	aa1403e1 	mov	x1, x20
   8558c:	aa1303e0 	mov	x0, x19
   85590:	94000030 	bl	85650 <_ZN8valkyrie6kernel9SharedPtrINS0_8FunctionIFvvEE12CallableImplIZ9run_shellvEUlvE_EEEC1EPS7_>
   85594:	aa1303e0 	mov	x0, x19
   85598:	a94153f3 	ldp	x19, x20, [sp, #16]
   8559c:	f94013f5 	ldr	x21, [sp, #32]
   855a0:	a8c47bfd 	ldp	x29, x30, [sp], #64
   855a4:	d65f03c0 	ret

00000000000855a8 <_ZN8valkyrie6kernel9SharedPtrINS0_8FunctionIFvvEE12CallableImplIZ9run_shellvEUlvE_EEED1Ev>:
   855a8:	a9be7bfd 	stp	x29, x30, [sp, #-32]!
   855ac:	910003fd 	mov	x29, sp
   855b0:	f9000fe0 	str	x0, [sp, #24]
   855b4:	f9400fe0 	ldr	x0, [sp, #24]
   855b8:	94000053 	bl	85704 <_ZN8valkyrie6kernel9SharedPtrINS0_8FunctionIFvvEE12CallableImplIZ9run_shellvEUlvE_EEE13dec_use_countEv>
   855bc:	d503201f 	nop
   855c0:	a8c27bfd 	ldp	x29, x30, [sp], #32
   855c4:	d65f03c0 	ret

00000000000855c8 <_ZNK8valkyrie6kernel9SharedPtrINS0_8FunctionIFvvEE12CallableImplIZ9run_shellvEUlvE_EEEcvNS1_IT_EEINS4_13CallableIfaceEEEv>:
   855c8:	a9bd7bfd 	stp	x29, x30, [sp, #-48]!
   855cc:	910003fd 	mov	x29, sp
   855d0:	f9000bf3 	str	x19, [sp, #16]
   855d4:	aa0803f3 	mov	x19, x8
   855d8:	f90017e0 	str	x0, [sp, #40]
   855dc:	aa1303e8 	mov	x8, x19
   855e0:	f94017e0 	ldr	x0, [sp, #40]
   855e4:	94000073 	bl	857b0 <_ZN8valkyrie6kernel20dynamic_pointer_castINS0_8FunctionIFvvEE13CallableIfaceENS4_12CallableImplIZ9run_shellvEUlvE_EEEENS0_9SharedPtrIT_EERKNS9_IT0_EE>
   855e8:	aa1303e0 	mov	x0, x19
   855ec:	f9400bf3 	ldr	x19, [sp, #16]
   855f0:	a8c37bfd 	ldp	x29, x30, [sp], #48
   855f4:	d65f03c0 	ret

00000000000855f8 <_ZN8valkyrie6kernel7forwardIRZ9run_shellvEUlvE_EEOT_RNS0_16_RemoveReferenceIS4_E4TypeE>:
   855f8:	d10043ff 	sub	sp, sp, #0x10
   855fc:	f90007e0 	str	x0, [sp, #8]
   85600:	f94007e0 	ldr	x0, [sp, #8]
   85604:	910043ff 	add	sp, sp, #0x10
   85608:	d65f03c0 	ret

000000000008560c <_ZN8valkyrie6kernel8FunctionIFvvEE12CallableImplIZ9run_shellvEUlvE_EC1ERKS5_>:
   8560c:	a9be7bfd 	stp	x29, x30, [sp, #-32]!
   85610:	910003fd 	mov	x29, sp
   85614:	f9000fe0 	str	x0, [sp, #24]
   85618:	f9000be1 	str	x1, [sp, #16]
   8561c:	f9400fe0 	ldr	x0, [sp, #24]
   85620:	94002912 	bl	8fa68 <_ZN8valkyrie6kernel8FunctionIFvvEE13CallableIfaceC1Ev>
   85624:	b0000060 	adrp	x0, 92000 <_Z6printkIJPKN8valkyrie6kernel8FunctionIFvvEEEEEvPKcDpOT_+0x18>
   85628:	913e6001 	add	x1, x0, #0xf98
   8562c:	f9400fe0 	ldr	x0, [sp, #24]
   85630:	f9000001 	str	x1, [x0]
   85634:	f9400fe0 	ldr	x0, [sp, #24]
   85638:	91002000 	add	x0, x0, #0x8
   8563c:	f9400be1 	ldr	x1, [sp, #16]
   85640:	97fffe35 	bl	84f14 <_ZZ9run_shellvENUlvE_C1ERKS_>
   85644:	d503201f 	nop
   85648:	a8c27bfd 	ldp	x29, x30, [sp], #32
   8564c:	d65f03c0 	ret

0000000000085650 <_ZN8valkyrie6kernel9SharedPtrINS0_8FunctionIFvvEE12CallableImplIZ9run_shellvEUlvE_EEEC1EPS7_>:
   85650:	a9bd7bfd 	stp	x29, x30, [sp, #-48]!
   85654:	910003fd 	mov	x29, sp
   85658:	f9000bf3 	str	x19, [sp, #16]
   8565c:	f90017e0 	str	x0, [sp, #40]
   85660:	f90013e1 	str	x1, [sp, #32]
   85664:	d2800200 	mov	x0, #0x10                  	// #16
   85668:	97fff5d8 	bl	82dc8 <_Znwm>
   8566c:	aa0003f3 	mov	x19, x0
   85670:	52800022 	mov	w2, #0x1                   	// #1
   85674:	f94013e1 	ldr	x1, [sp, #32]
   85678:	aa1303e0 	mov	x0, x19
   8567c:	94000063 	bl	85808 <_ZN8valkyrie6kernel9SharedPtrINS0_8FunctionIFvvEE12CallableImplIZ9run_shellvEUlvE_EEE12ControlBlockC1EPS7_i>
   85680:	f94017e0 	ldr	x0, [sp, #40]
   85684:	f9000013 	str	x19, [x0]
   85688:	f94017e0 	ldr	x0, [sp, #40]
   8568c:	f900041f 	str	xzr, [x0, #8]
   85690:	d503201f 	nop
   85694:	f9400bf3 	ldr	x19, [sp, #16]
   85698:	a8c37bfd 	ldp	x29, x30, [sp], #48
   8569c:	d65f03c0 	ret

00000000000856a0 <_ZN8valkyrie6kernel8FunctionIFvvEE12CallableImplIZ9run_shellvEUlvE_ED1Ev>:
   856a0:	a9be7bfd 	stp	x29, x30, [sp, #-32]!
   856a4:	910003fd 	mov	x29, sp
   856a8:	f9000fe0 	str	x0, [sp, #24]
   856ac:	b0000060 	adrp	x0, 92000 <_Z6printkIJPKN8valkyrie6kernel8FunctionIFvvEEEEEvPKcDpOT_+0x18>
   856b0:	913e6001 	add	x1, x0, #0xf98
   856b4:	f9400fe0 	ldr	x0, [sp, #24]
   856b8:	f9000001 	str	x1, [x0]
   856bc:	f9400fe0 	ldr	x0, [sp, #24]
   856c0:	91002000 	add	x0, x0, #0x8
   856c4:	97fffe0c 	bl	84ef4 <_ZZ9run_shellvENUlvE_D1Ev>
   856c8:	f9400fe0 	ldr	x0, [sp, #24]
   856cc:	9400289e 	bl	8f944 <_ZN8valkyrie6kernel8FunctionIFvvEE13CallableIfaceD1Ev>
   856d0:	d503201f 	nop
   856d4:	a8c27bfd 	ldp	x29, x30, [sp], #32
   856d8:	d65f03c0 	ret

00000000000856dc <_ZN8valkyrie6kernel8FunctionIFvvEE12CallableImplIZ9run_shellvEUlvE_ED0Ev>:
   856dc:	a9be7bfd 	stp	x29, x30, [sp, #-32]!
   856e0:	910003fd 	mov	x29, sp
   856e4:	f9000fe0 	str	x0, [sp, #24]
   856e8:	f9400fe0 	ldr	x0, [sp, #24]
   856ec:	97ffffed 	bl	856a0 <_ZN8valkyrie6kernel8FunctionIFvvEE12CallableImplIZ9run_shellvEUlvE_ED1Ev>
   856f0:	d2800201 	mov	x1, #0x10                  	// #16
   856f4:	f9400fe0 	ldr	x0, [sp, #24]
   856f8:	97fff5d2 	bl	82e40 <_ZdlPvm>
   856fc:	a8c27bfd 	ldp	x29, x30, [sp], #32
   85700:	d65f03c0 	ret

0000000000085704 <_ZN8valkyrie6kernel9SharedPtrINS0_8FunctionIFvvEE12CallableImplIZ9run_shellvEUlvE_EEE13dec_use_countEv>:
   85704:	a9be7bfd 	stp	x29, x30, [sp, #-32]!
   85708:	910003fd 	mov	x29, sp
   8570c:	f9000fe0 	str	x0, [sp, #24]
   85710:	f9400fe0 	ldr	x0, [sp, #24]
   85714:	9400004a 	bl	8583c <_ZNK8valkyrie6kernel9SharedPtrINS0_8FunctionIFvvEE12CallableImplIZ9run_shellvEUlvE_EEE8is_validEv>
   85718:	12001c00 	and	w0, w0, #0xff
   8571c:	7100001f 	cmp	w0, #0x0
   85720:	54000420 	b.eq	857a4 <_ZN8valkyrie6kernel9SharedPtrINS0_8FunctionIFvvEE12CallableImplIZ9run_shellvEUlvE_EEE13dec_use_countEv+0xa0>  // b.none
   85724:	f9400fe0 	ldr	x0, [sp, #24]
   85728:	f9400000 	ldr	x0, [x0]
   8572c:	b9400801 	ldr	w1, [x0, #8]
   85730:	51000421 	sub	w1, w1, #0x1
   85734:	b9000801 	str	w1, [x0, #8]
   85738:	f9400fe0 	ldr	x0, [sp, #24]
   8573c:	94000050 	bl	8587c <_ZNK8valkyrie6kernel9SharedPtrINS0_8FunctionIFvvEE12CallableImplIZ9run_shellvEUlvE_EEE9use_countEv>
   85740:	7100001f 	cmp	w0, #0x0
   85744:	1a9f17e0 	cset	w0, eq  // eq = none
   85748:	12001c00 	and	w0, w0, #0xff
   8574c:	7100001f 	cmp	w0, #0x0
   85750:	540002a0 	b.eq	857a4 <_ZN8valkyrie6kernel9SharedPtrINS0_8FunctionIFvvEE12CallableImplIZ9run_shellvEUlvE_EEE13dec_use_countEv+0xa0>  // b.none
   85754:	f9400fe0 	ldr	x0, [sp, #24]
   85758:	f9400000 	ldr	x0, [x0]
   8575c:	f9400000 	ldr	x0, [x0]
   85760:	f100001f 	cmp	x0, #0x0
   85764:	540000a0 	b.eq	85778 <_ZN8valkyrie6kernel9SharedPtrINS0_8FunctionIFvvEE12CallableImplIZ9run_shellvEUlvE_EEE13dec_use_countEv+0x74>  // b.none
   85768:	f9400001 	ldr	x1, [x0]
   8576c:	91002021 	add	x1, x1, #0x8
   85770:	f9400021 	ldr	x1, [x1]
   85774:	d63f0020 	blr	x1
   85778:	f9400fe0 	ldr	x0, [sp, #24]
   8577c:	f9400000 	ldr	x0, [x0]
   85780:	f100001f 	cmp	x0, #0x0
   85784:	54000060 	b.eq	85790 <_ZN8valkyrie6kernel9SharedPtrINS0_8FunctionIFvvEE12CallableImplIZ9run_shellvEUlvE_EEE13dec_use_countEv+0x8c>  // b.none
   85788:	d2800201 	mov	x1, #0x10                  	// #16
   8578c:	97fff5ad 	bl	82e40 <_ZdlPvm>
   85790:	f9400fe0 	ldr	x0, [sp, #24]
   85794:	f9400000 	ldr	x0, [x0]
   85798:	f900001f 	str	xzr, [x0]
   8579c:	f9400fe0 	ldr	x0, [sp, #24]
   857a0:	f900001f 	str	xzr, [x0]
   857a4:	d503201f 	nop
   857a8:	a8c27bfd 	ldp	x29, x30, [sp], #32
   857ac:	d65f03c0 	ret

00000000000857b0 <_ZN8valkyrie6kernel20dynamic_pointer_castINS0_8FunctionIFvvEE13CallableIfaceENS4_12CallableImplIZ9run_shellvEUlvE_EEEENS0_9SharedPtrIT_EERKNS9_IT0_EE>:
   857b0:	a9bc7bfd 	stp	x29, x30, [sp, #-64]!
   857b4:	910003fd 	mov	x29, sp
   857b8:	f9000bf3 	str	x19, [sp, #16]
   857bc:	aa0803f3 	mov	x19, x8
   857c0:	f90017e0 	str	x0, [sp, #40]
   857c4:	f94017e0 	ldr	x0, [sp, #40]
   857c8:	9400003c 	bl	858b8 <_ZNK8valkyrie6kernel9SharedPtrINS0_8FunctionIFvvEE12CallableImplIZ9run_shellvEUlvE_EEE3getEv>
   857cc:	f9001fe0 	str	x0, [sp, #56]
   857d0:	f9401fe0 	ldr	x0, [sp, #56]
   857d4:	f100001f 	cmp	x0, #0x0
   857d8:	540000c0 	b.eq	857f0 <_ZN8valkyrie6kernel20dynamic_pointer_castINS0_8FunctionIFvvEE13CallableIfaceENS4_12CallableImplIZ9run_shellvEUlvE_EEEENS0_9SharedPtrIT_EERKNS9_IT0_EE+0x40>  // b.none
   857dc:	f9401fe2 	ldr	x2, [sp, #56]
   857e0:	f94017e1 	ldr	x1, [sp, #40]
   857e4:	aa1303e0 	mov	x0, x19
   857e8:	94000049 	bl	8590c <_ZN8valkyrie6kernel9SharedPtrINS0_8FunctionIFvvEE13CallableIfaceEEC1INS4_12CallableImplIZ9run_shellvEUlvE_EEEERKNS1_IT_EEPS5_>
   857ec:	14000003 	b	857f8 <_ZN8valkyrie6kernel20dynamic_pointer_castINS0_8FunctionIFvvEE13CallableIfaceENS4_12CallableImplIZ9run_shellvEUlvE_EEEENS0_9SharedPtrIT_EERKNS9_IT0_EE+0x48>
   857f0:	aa1303e0 	mov	x0, x19
   857f4:	9400284b 	bl	8f920 <_ZN8valkyrie6kernel9SharedPtrINS0_8FunctionIFvvEE13CallableIfaceEEC1Ev>
   857f8:	aa1303e0 	mov	x0, x19
   857fc:	f9400bf3 	ldr	x19, [sp, #16]
   85800:	a8c47bfd 	ldp	x29, x30, [sp], #64
   85804:	d65f03c0 	ret

0000000000085808 <_ZN8valkyrie6kernel9SharedPtrINS0_8FunctionIFvvEE12CallableImplIZ9run_shellvEUlvE_EEE12ControlBlockC1EPS7_i>:
   85808:	d10083ff 	sub	sp, sp, #0x20
   8580c:	f9000fe0 	str	x0, [sp, #24]
   85810:	f9000be1 	str	x1, [sp, #16]
   85814:	b9000fe2 	str	w2, [sp, #12]
   85818:	f9400fe0 	ldr	x0, [sp, #24]
   8581c:	f9400be1 	ldr	x1, [sp, #16]
   85820:	f9000001 	str	x1, [x0]
   85824:	f9400fe0 	ldr	x0, [sp, #24]
   85828:	b9400fe1 	ldr	w1, [sp, #12]
   8582c:	b9000801 	str	w1, [x0, #8]
   85830:	d503201f 	nop
   85834:	910083ff 	add	sp, sp, #0x20
   85838:	d65f03c0 	ret

000000000008583c <_ZNK8valkyrie6kernel9SharedPtrINS0_8FunctionIFvvEE12CallableImplIZ9run_shellvEUlvE_EEE8is_validEv>:
   8583c:	d10043ff 	sub	sp, sp, #0x10
   85840:	f90007e0 	str	x0, [sp, #8]
   85844:	f94007e0 	ldr	x0, [sp, #8]
   85848:	f9400000 	ldr	x0, [x0]
   8584c:	f100001f 	cmp	x0, #0x0
   85850:	54000100 	b.eq	85870 <_ZNK8valkyrie6kernel9SharedPtrINS0_8FunctionIFvvEE12CallableImplIZ9run_shellvEUlvE_EEE8is_validEv+0x34>  // b.none
   85854:	f94007e0 	ldr	x0, [sp, #8]
   85858:	f9400000 	ldr	x0, [x0]
   8585c:	b9400800 	ldr	w0, [x0, #8]
   85860:	7100001f 	cmp	w0, #0x0
   85864:	5400006d 	b.le	85870 <_ZNK8valkyrie6kernel9SharedPtrINS0_8FunctionIFvvEE12CallableImplIZ9run_shellvEUlvE_EEE8is_validEv+0x34>
   85868:	52800020 	mov	w0, #0x1                   	// #1
   8586c:	14000002 	b	85874 <_ZNK8valkyrie6kernel9SharedPtrINS0_8FunctionIFvvEE12CallableImplIZ9run_shellvEUlvE_EEE8is_validEv+0x38>
   85870:	52800000 	mov	w0, #0x0                   	// #0
   85874:	910043ff 	add	sp, sp, #0x10
   85878:	d65f03c0 	ret

000000000008587c <_ZNK8valkyrie6kernel9SharedPtrINS0_8FunctionIFvvEE12CallableImplIZ9run_shellvEUlvE_EEE9use_countEv>:
   8587c:	a9be7bfd 	stp	x29, x30, [sp, #-32]!
   85880:	910003fd 	mov	x29, sp
   85884:	f9000fe0 	str	x0, [sp, #24]
   85888:	f9400fe0 	ldr	x0, [sp, #24]
   8588c:	97ffffec 	bl	8583c <_ZNK8valkyrie6kernel9SharedPtrINS0_8FunctionIFvvEE12CallableImplIZ9run_shellvEUlvE_EEE8is_validEv>
   85890:	12001c00 	and	w0, w0, #0xff
   85894:	7100001f 	cmp	w0, #0x0
   85898:	540000a0 	b.eq	858ac <_ZNK8valkyrie6kernel9SharedPtrINS0_8FunctionIFvvEE12CallableImplIZ9run_shellvEUlvE_EEE9use_countEv+0x30>  // b.none
   8589c:	f9400fe0 	ldr	x0, [sp, #24]
   858a0:	f9400000 	ldr	x0, [x0]
   858a4:	b9400800 	ldr	w0, [x0, #8]
   858a8:	14000002 	b	858b0 <_ZNK8valkyrie6kernel9SharedPtrINS0_8FunctionIFvvEE12CallableImplIZ9run_shellvEUlvE_EEE9use_countEv+0x34>
   858ac:	52800000 	mov	w0, #0x0                   	// #0
   858b0:	a8c27bfd 	ldp	x29, x30, [sp], #32
   858b4:	d65f03c0 	ret

00000000000858b8 <_ZNK8valkyrie6kernel9SharedPtrINS0_8FunctionIFvvEE12CallableImplIZ9run_shellvEUlvE_EEE3getEv>:
   858b8:	d10043ff 	sub	sp, sp, #0x10
   858bc:	f90007e0 	str	x0, [sp, #8]
   858c0:	f94007e0 	ldr	x0, [sp, #8]
   858c4:	f9400400 	ldr	x0, [x0, #8]
   858c8:	f100001f 	cmp	x0, #0x0
   858cc:	54000080 	b.eq	858dc <_ZNK8valkyrie6kernel9SharedPtrINS0_8FunctionIFvvEE12CallableImplIZ9run_shellvEUlvE_EEE3getEv+0x24>  // b.none
   858d0:	f94007e0 	ldr	x0, [sp, #8]
   858d4:	f9400400 	ldr	x0, [x0, #8]
   858d8:	1400000b 	b	85904 <_ZNK8valkyrie6kernel9SharedPtrINS0_8FunctionIFvvEE12CallableImplIZ9run_shellvEUlvE_EEE3getEv+0x4c>
   858dc:	f94007e0 	ldr	x0, [sp, #8]
   858e0:	f9400000 	ldr	x0, [x0]
   858e4:	f100001f 	cmp	x0, #0x0
   858e8:	540000a0 	b.eq	858fc <_ZNK8valkyrie6kernel9SharedPtrINS0_8FunctionIFvvEE12CallableImplIZ9run_shellvEUlvE_EEE3getEv+0x44>  // b.none
   858ec:	f94007e0 	ldr	x0, [sp, #8]
   858f0:	f9400000 	ldr	x0, [x0]
   858f4:	f9400000 	ldr	x0, [x0]
   858f8:	14000002 	b	85900 <_ZNK8valkyrie6kernel9SharedPtrINS0_8FunctionIFvvEE12CallableImplIZ9run_shellvEUlvE_EEE3getEv+0x48>
   858fc:	d2800000 	mov	x0, #0x0                   	// #0
   85900:	d503201f 	nop
   85904:	910043ff 	add	sp, sp, #0x10
   85908:	d65f03c0 	ret

000000000008590c <_ZN8valkyrie6kernel9SharedPtrINS0_8FunctionIFvvEE13CallableIfaceEEC1INS4_12CallableImplIZ9run_shellvEUlvE_EEEERKNS1_IT_EEPS5_>:
   8590c:	a9bd7bfd 	stp	x29, x30, [sp, #-48]!
   85910:	910003fd 	mov	x29, sp
   85914:	f90017e0 	str	x0, [sp, #40]
   85918:	f90013e1 	str	x1, [sp, #32]
   8591c:	f9000fe2 	str	x2, [sp, #24]
   85920:	f94013e0 	ldr	x0, [sp, #32]
   85924:	f9400001 	ldr	x1, [x0]
   85928:	f94017e0 	ldr	x0, [sp, #40]
   8592c:	f9000001 	str	x1, [x0]
   85930:	f94017e0 	ldr	x0, [sp, #40]
   85934:	f9400fe1 	ldr	x1, [sp, #24]
   85938:	f9000401 	str	x1, [x0, #8]
   8593c:	f94017e0 	ldr	x0, [sp, #40]
   85940:	9400283a 	bl	8fa28 <_ZN8valkyrie6kernel9SharedPtrINS0_8FunctionIFvvEE13CallableIfaceEE13inc_use_countEv>
   85944:	d503201f 	nop
   85948:	a8c37bfd 	ldp	x29, x30, [sp], #48
   8594c:	d65f03c0 	ret

0000000000085950 <_ZN8valkyrie6kernel8FunctionIFvvEE12CallableImplIZ9run_shellvEUlvE_E4callEv>:
   85950:	a9be7bfd 	stp	x29, x30, [sp, #-32]!
   85954:	910003fd 	mov	x29, sp
   85958:	f9000fe0 	str	x0, [sp, #24]
   8595c:	f9400fe0 	ldr	x0, [sp, #24]
   85960:	91002000 	add	x0, x0, #0x8
   85964:	97fffd56 	bl	84ebc <_ZZ9run_shellvENKUlvE_clEv>
   85968:	d503201f 	nop
   8596c:	a8c27bfd 	ldp	x29, x30, [sp], #32
   85970:	d65f03c0 	ret

0000000000085974 <_ZN8valkyrie6kernel13SlobAllocatorC1EPNS0_18PageFrameAllocatorE>:
   85974:	d10043ff 	sub	sp, sp, #0x10
   85978:	f90007e0 	str	x0, [sp, #8]
   8597c:	f90003e1 	str	x1, [sp]
   85980:	f94007e0 	ldr	x0, [sp, #8]
   85984:	f94003e1 	ldr	x1, [sp]
   85988:	f9000001 	str	x1, [x0]
   8598c:	f94007e0 	ldr	x0, [sp, #8]
   85990:	f900041f 	str	xzr, [x0, #8]
   85994:	f94007e0 	ldr	x0, [sp, #8]
   85998:	f900081f 	str	xzr, [x0, #16]
   8599c:	f94007e0 	ldr	x0, [sp, #8]
   859a0:	f9000c1f 	str	xzr, [x0, #24]
   859a4:	f94007e0 	ldr	x0, [sp, #8]
   859a8:	b900201f 	str	wzr, [x0, #32]
   859ac:	f94007e0 	ldr	x0, [sp, #8]
   859b0:	9100a001 	add	x1, x0, #0x28
   859b4:	d28000e0 	mov	x0, #0x7                   	// #7
   859b8:	f100001f 	cmp	x0, #0x0
   859bc:	540000ab 	b.lt	859d0 <_ZN8valkyrie6kernel13SlobAllocatorC1EPNS0_18PageFrameAllocatorE+0x5c>  // b.tstop
   859c0:	f900003f 	str	xzr, [x1]
   859c4:	91002021 	add	x1, x1, #0x8
   859c8:	d1000400 	sub	x0, x0, #0x1
   859cc:	17fffffb 	b	859b8 <_ZN8valkyrie6kernel13SlobAllocatorC1EPNS0_18PageFrameAllocatorE+0x44>
   859d0:	f94007e0 	ldr	x0, [sp, #8]
   859d4:	f900341f 	str	xzr, [x0, #104]
   859d8:	d503201f 	nop
   859dc:	910043ff 	add	sp, sp, #0x10
   859e0:	d65f03c0 	ret

00000000000859e4 <_ZN8valkyrie6kernel13SlobAllocator8allocateEm>:
   859e4:	a9bc7bfd 	stp	x29, x30, [sp, #-64]!
   859e8:	910003fd 	mov	x29, sp
   859ec:	f9000fe0 	str	x0, [sp, #24]
   859f0:	f9000be1 	str	x1, [sp, #16]
   859f4:	f9400be0 	ldr	x0, [sp, #16]
   859f8:	f100001f 	cmp	x0, #0x0
   859fc:	1a9f17e0 	cset	w0, eq  // eq = none
   85a00:	12001c00 	and	w0, w0, #0xff
   85a04:	92401c00 	and	x0, x0, #0xff
   85a08:	f100001f 	cmp	x0, #0x0
   85a0c:	54000060 	b.eq	85a18 <_ZN8valkyrie6kernel13SlobAllocator8allocateEm+0x34>  // b.none
   85a10:	d2800000 	mov	x0, #0x0                   	// #0
   85a14:	14000079 	b	85bf8 <_ZN8valkyrie6kernel13SlobAllocator8allocateEm+0x214>
   85a18:	f9400be0 	ldr	x0, [sp, #16]
   85a1c:	91004000 	add	x0, x0, #0x10
   85a20:	aa0003e1 	mov	x1, x0
   85a24:	f9400fe0 	ldr	x0, [sp, #24]
   85a28:	94000328 	bl	866c8 <_ZN8valkyrie6kernel13SlobAllocator14normalize_sizeEm>
   85a2c:	f9000be0 	str	x0, [sp, #16]
   85a30:	f9400be1 	ldr	x1, [sp, #16]
   85a34:	f9400fe0 	ldr	x0, [sp, #24]
   85a38:	9400031c 	bl	866a8 <_ZN8valkyrie6kernel13SlobAllocator13get_bin_indexEm>
   85a3c:	b9003fe0 	str	w0, [sp, #60]
   85a40:	f9001bff 	str	xzr, [sp, #48]
   85a44:	b9403fe0 	ldr	w0, [sp, #60]
   85a48:	71001c1f 	cmp	w0, #0x7
   85a4c:	540001ac 	b.gt	85a80 <_ZN8valkyrie6kernel13SlobAllocator8allocateEm+0x9c>
   85a50:	f9400fe1 	ldr	x1, [sp, #24]
   85a54:	b9803fe0 	ldrsw	x0, [sp, #60]
   85a58:	91001000 	add	x0, x0, #0x4
   85a5c:	d37df000 	lsl	x0, x0, #3
   85a60:	8b000020 	add	x0, x1, x0
   85a64:	f9400400 	ldr	x0, [x0, #8]
   85a68:	f9001be0 	str	x0, [sp, #48]
   85a6c:	f9401be0 	ldr	x0, [sp, #48]
   85a70:	f100001f 	cmp	x0, #0x0
   85a74:	54000060 	b.eq	85a80 <_ZN8valkyrie6kernel13SlobAllocator8allocateEm+0x9c>  // b.none
   85a78:	52800020 	mov	w0, #0x1                   	// #1
   85a7c:	14000002 	b	85a84 <_ZN8valkyrie6kernel13SlobAllocator8allocateEm+0xa0>
   85a80:	52800000 	mov	w0, #0x0                   	// #0
   85a84:	7100001f 	cmp	w0, #0x0
   85a88:	54000100 	b.eq	85aa8 <_ZN8valkyrie6kernel13SlobAllocator8allocateEm+0xc4>  // b.none
   85a8c:	52800021 	mov	w1, #0x1                   	// #1
   85a90:	f9401be0 	ldr	x0, [sp, #48]
   85a94:	94000344 	bl	867a4 <_ZN8valkyrie6kernel13SlobAllocator4Slob13set_allocatedEb>
   85a98:	f9401be1 	ldr	x1, [sp, #48]
   85a9c:	f9400fe0 	ldr	x0, [sp, #24]
   85aa0:	9400024e 	bl	863d8 <_ZN8valkyrie6kernel13SlobAllocator12bin_del_headEPNS1_4SlobE>
   85aa4:	14000053 	b	85bf0 <_ZN8valkyrie6kernel13SlobAllocator8allocateEm+0x20c>
   85aa8:	f9400fe0 	ldr	x0, [sp, #24]
   85aac:	f9403400 	ldr	x0, [x0, #104]
   85ab0:	f90017e0 	str	x0, [sp, #40]
   85ab4:	f94017e0 	ldr	x0, [sp, #40]
   85ab8:	f100001f 	cmp	x0, #0x0
   85abc:	54000280 	b.eq	85b0c <_ZN8valkyrie6kernel13SlobAllocator8allocateEm+0x128>  // b.none
   85ac0:	f94017e0 	ldr	x0, [sp, #40]
   85ac4:	9400030e 	bl	866fc <_ZNK8valkyrie6kernel13SlobAllocator4Slob14get_chunk_sizeEv>
   85ac8:	aa0003e1 	mov	x1, x0
   85acc:	f9400be0 	ldr	x0, [sp, #16]
   85ad0:	eb01001f 	cmp	x0, x1
   85ad4:	1a9f87e0 	cset	w0, ls  // ls = plast
   85ad8:	12001c00 	and	w0, w0, #0xff
   85adc:	7100001f 	cmp	w0, #0x0
   85ae0:	540000e0 	b.eq	85afc <_ZN8valkyrie6kernel13SlobAllocator8allocateEm+0x118>  // b.none
   85ae4:	f9400be2 	ldr	x2, [sp, #16]
   85ae8:	f94017e1 	ldr	x1, [sp, #40]
   85aec:	f9400fe0 	ldr	x0, [sp, #24]
   85af0:	940001bf 	bl	861ec <_ZN8valkyrie6kernel13SlobAllocator11split_chunkEPNS1_4SlobEm>
   85af4:	f9001be0 	str	x0, [sp, #48]
   85af8:	1400003e 	b	85bf0 <_ZN8valkyrie6kernel13SlobAllocator8allocateEm+0x20c>
   85afc:	f94017e0 	ldr	x0, [sp, #40]
   85b00:	f9400000 	ldr	x0, [x0]
   85b04:	f90017e0 	str	x0, [sp, #40]
   85b08:	17ffffeb 	b	85ab4 <_ZN8valkyrie6kernel13SlobAllocator8allocateEm+0xd0>
   85b0c:	b9403fe0 	ldr	w0, [sp, #60]
   85b10:	71001c1f 	cmp	w0, #0x7
   85b14:	5400032c 	b.gt	85b78 <_ZN8valkyrie6kernel13SlobAllocator8allocateEm+0x194>
   85b18:	f9400fe1 	ldr	x1, [sp, #24]
   85b1c:	b9803fe0 	ldrsw	x0, [sp, #60]
   85b20:	91001000 	add	x0, x0, #0x4
   85b24:	d37df000 	lsl	x0, x0, #3
   85b28:	8b000020 	add	x0, x1, x0
   85b2c:	f9400400 	ldr	x0, [x0, #8]
   85b30:	f100001f 	cmp	x0, #0x0
   85b34:	540001a0 	b.eq	85b68 <_ZN8valkyrie6kernel13SlobAllocator8allocateEm+0x184>  // b.none
   85b38:	f9400fe1 	ldr	x1, [sp, #24]
   85b3c:	b9803fe0 	ldrsw	x0, [sp, #60]
   85b40:	91001000 	add	x0, x0, #0x4
   85b44:	d37df000 	lsl	x0, x0, #3
   85b48:	8b000020 	add	x0, x1, x0
   85b4c:	f9400400 	ldr	x0, [x0, #8]
   85b50:	f9400be2 	ldr	x2, [sp, #16]
   85b54:	aa0003e1 	mov	x1, x0
   85b58:	f9400fe0 	ldr	x0, [sp, #24]
   85b5c:	940001a4 	bl	861ec <_ZN8valkyrie6kernel13SlobAllocator11split_chunkEPNS1_4SlobEm>
   85b60:	f9001be0 	str	x0, [sp, #48]
   85b64:	14000023 	b	85bf0 <_ZN8valkyrie6kernel13SlobAllocator8allocateEm+0x20c>
   85b68:	b9403fe0 	ldr	w0, [sp, #60]
   85b6c:	11000400 	add	w0, w0, #0x1
   85b70:	b9003fe0 	str	w0, [sp, #60]
   85b74:	17ffffe6 	b	85b0c <_ZN8valkyrie6kernel13SlobAllocator8allocateEm+0x128>
   85b78:	f9400fe0 	ldr	x0, [sp, #24]
   85b7c:	9400017b 	bl	86168 <_ZNK8valkyrie6kernel13SlobAllocator20is_top_chunk_used_upEv>
   85b80:	12001c00 	and	w0, w0, #0xff
   85b84:	7100001f 	cmp	w0, #0x0
   85b88:	54000080 	b.eq	85b98 <_ZN8valkyrie6kernel13SlobAllocator8allocateEm+0x1b4>  // b.none
   85b8c:	f9400fe0 	ldr	x0, [sp, #24]
   85b90:	94000124 	bl	86020 <_ZN8valkyrie6kernel13SlobAllocator22request_new_page_frameEv>
   85b94:	14000013 	b	85be0 <_ZN8valkyrie6kernel13SlobAllocator8allocateEm+0x1fc>
   85b98:	f9400be1 	ldr	x1, [sp, #16]
   85b9c:	f9400fe0 	ldr	x0, [sp, #24]
   85ba0:	9400017c 	bl	86190 <_ZNK8valkyrie6kernel13SlobAllocator25is_top_chunk_large_enoughEm>
   85ba4:	12001c00 	and	w0, w0, #0xff
   85ba8:	52000000 	eor	w0, w0, #0x1
   85bac:	12001c00 	and	w0, w0, #0xff
   85bb0:	7100001f 	cmp	w0, #0x0
   85bb4:	54000160 	b.eq	85be0 <_ZN8valkyrie6kernel13SlobAllocator8allocateEm+0x1fc>  // b.none
   85bb8:	f9400fe0 	ldr	x0, [sp, #24]
   85bbc:	94000182 	bl	861c4 <_ZNK8valkyrie6kernel13SlobAllocator18get_top_chunk_sizeEv>
   85bc0:	aa0003e1 	mov	x1, x0
   85bc4:	f9400fe0 	ldr	x0, [sp, #24]
   85bc8:	94000140 	bl	860c8 <_ZN8valkyrie6kernel13SlobAllocator20split_from_top_chunkEm>
   85bcc:	aa0003e1 	mov	x1, x0
   85bd0:	f9400fe0 	ldr	x0, [sp, #24]
   85bd4:	94000238 	bl	864b4 <_ZN8valkyrie6kernel13SlobAllocator12bin_add_headEPNS1_4SlobE>
   85bd8:	f9400fe0 	ldr	x0, [sp, #24]
   85bdc:	94000111 	bl	86020 <_ZN8valkyrie6kernel13SlobAllocator22request_new_page_frameEv>
   85be0:	f9400be1 	ldr	x1, [sp, #16]
   85be4:	f9400fe0 	ldr	x0, [sp, #24]
   85be8:	94000138 	bl	860c8 <_ZN8valkyrie6kernel13SlobAllocator20split_from_top_chunkEm>
   85bec:	f9001be0 	str	x0, [sp, #48]
   85bf0:	f9401be0 	ldr	x0, [sp, #48]
   85bf4:	91004000 	add	x0, x0, #0x10
   85bf8:	a8c47bfd 	ldp	x29, x30, [sp], #64
   85bfc:	d65f03c0 	ret

0000000000085c00 <_ZN8valkyrie6kernel13SlobAllocator10deallocateEPv>:
   85c00:	a9b87bfd 	stp	x29, x30, [sp, #-128]!
   85c04:	910003fd 	mov	x29, sp
   85c08:	f9000fe0 	str	x0, [sp, #24]
   85c0c:	f9000be1 	str	x1, [sp, #16]
   85c10:	f9400be0 	ldr	x0, [sp, #16]
   85c14:	f100001f 	cmp	x0, #0x0
   85c18:	1a9f17e0 	cset	w0, eq  // eq = none
   85c1c:	12001c00 	and	w0, w0, #0xff
   85c20:	92401c00 	and	x0, x0, #0xff
   85c24:	f100001f 	cmp	x0, #0x0
   85c28:	54001021 	b.ne	85e2c <_ZN8valkyrie6kernel13SlobAllocator10deallocateEPv+0x22c>  // b.any
   85c2c:	f9400be0 	ldr	x0, [sp, #16]
   85c30:	d1004000 	sub	x0, x0, #0x10
   85c34:	f90037e0 	str	x0, [sp, #104]
   85c38:	f94037e0 	ldr	x0, [sp, #104]
   85c3c:	f90033e0 	str	x0, [sp, #96]
   85c40:	f94037e0 	ldr	x0, [sp, #104]
   85c44:	940002ae 	bl	866fc <_ZNK8valkyrie6kernel13SlobAllocator4Slob14get_chunk_sizeEv>
   85c48:	f9002fe0 	str	x0, [sp, #88]
   85c4c:	f94037e0 	ldr	x0, [sp, #104]
   85c50:	940002b4 	bl	86720 <_ZNK8valkyrie6kernel13SlobAllocator4Slob19get_prev_chunk_sizeEv>
   85c54:	93407c00 	sxtw	x0, w0
   85c58:	f94033e1 	ldr	x1, [sp, #96]
   85c5c:	cb000020 	sub	x0, x1, x0
   85c60:	f9002be0 	str	x0, [sp, #80]
   85c64:	f9402be0 	ldr	x0, [sp, #80]
   85c68:	f90027e0 	str	x0, [sp, #72]
   85c6c:	f94037e0 	ldr	x0, [sp, #104]
   85c70:	940002ac 	bl	86720 <_ZNK8valkyrie6kernel13SlobAllocator4Slob19get_prev_chunk_sizeEv>
   85c74:	93407c00 	sxtw	x0, w0
   85c78:	f90023e0 	str	x0, [sp, #64]
   85c7c:	f94037e0 	ldr	x0, [sp, #104]
   85c80:	9400029f 	bl	866fc <_ZNK8valkyrie6kernel13SlobAllocator4Slob14get_chunk_sizeEv>
   85c84:	aa0003e1 	mov	x1, x0
   85c88:	f94033e0 	ldr	x0, [sp, #96]
   85c8c:	8b010000 	add	x0, x0, x1
   85c90:	f9001fe0 	str	x0, [sp, #56]
   85c94:	f9401fe0 	ldr	x0, [sp, #56]
   85c98:	f9001be0 	str	x0, [sp, #48]
   85c9c:	f9401be0 	ldr	x0, [sp, #48]
   85ca0:	94000297 	bl	866fc <_ZNK8valkyrie6kernel13SlobAllocator4Slob14get_chunk_sizeEv>
   85ca4:	f90017e0 	str	x0, [sp, #40]
   85ca8:	f94037e0 	ldr	x0, [sp, #104]
   85cac:	f9003fe0 	str	x0, [sp, #120]
   85cb0:	f9402fe0 	ldr	x0, [sp, #88]
   85cb4:	f9003be0 	str	x0, [sp, #112]
   85cb8:	52800001 	mov	w1, #0x0                   	// #0
   85cbc:	f94037e0 	ldr	x0, [sp, #104]
   85cc0:	940002b9 	bl	867a4 <_ZN8valkyrie6kernel13SlobAllocator4Slob13set_allocatedEb>
   85cc4:	f94027e0 	ldr	x0, [sp, #72]
   85cc8:	940002ad 	bl	8677c <_ZNK8valkyrie6kernel13SlobAllocator4Slob12is_allocatedEv>
   85ccc:	12001c00 	and	w0, w0, #0xff
   85cd0:	52000000 	eor	w0, w0, #0x1
   85cd4:	12001c00 	and	w0, w0, #0xff
   85cd8:	7100001f 	cmp	w0, #0x0
   85cdc:	54000160 	b.eq	85d08 <_ZN8valkyrie6kernel13SlobAllocator10deallocateEPv+0x108>  // b.none
   85ce0:	f94037e1 	ldr	x1, [sp, #104]
   85ce4:	f9400fe0 	ldr	x0, [sp, #24]
   85ce8:	940000e9 	bl	8608c <_ZNK8valkyrie6kernel13SlobAllocator28is_first_chunk_in_page_frameEPKNS1_4SlobE>
   85cec:	12001c00 	and	w0, w0, #0xff
   85cf0:	52000000 	eor	w0, w0, #0x1
   85cf4:	12001c00 	and	w0, w0, #0xff
   85cf8:	7100001f 	cmp	w0, #0x0
   85cfc:	54000060 	b.eq	85d08 <_ZN8valkyrie6kernel13SlobAllocator10deallocateEPv+0x108>  // b.none
   85d00:	52800020 	mov	w0, #0x1                   	// #1
   85d04:	14000002 	b	85d0c <_ZN8valkyrie6kernel13SlobAllocator10deallocateEPv+0x10c>
   85d08:	52800000 	mov	w0, #0x0                   	// #0
   85d0c:	7100001f 	cmp	w0, #0x0
   85d10:	540002e0 	b.eq	85d6c <_ZN8valkyrie6kernel13SlobAllocator10deallocateEPv+0x16c>  // b.none
   85d14:	f94027e1 	ldr	x1, [sp, #72]
   85d18:	f9400fe0 	ldr	x0, [sp, #24]
   85d1c:	9400021e 	bl	86594 <_ZN8valkyrie6kernel13SlobAllocator13bin_del_entryEPNS1_4SlobE>
   85d20:	f9403be1 	ldr	x1, [sp, #112]
   85d24:	f94023e0 	ldr	x0, [sp, #64]
   85d28:	8b000020 	add	x0, x1, x0
   85d2c:	f9003be0 	str	x0, [sp, #112]
   85d30:	f94027e0 	ldr	x0, [sp, #72]
   85d34:	f9401be1 	ldr	x1, [sp, #48]
   85d38:	f9000001 	str	x1, [x0]
   85d3c:	f9403be1 	ldr	x1, [sp, #112]
   85d40:	f9400fe0 	ldr	x0, [sp, #24]
   85d44:	94000259 	bl	866a8 <_ZN8valkyrie6kernel13SlobAllocator13get_bin_indexEm>
   85d48:	2a0003e1 	mov	w1, w0
   85d4c:	f94027e0 	ldr	x0, [sp, #72]
   85d50:	b9000801 	str	w1, [x0, #8]
   85d54:	f9403be0 	ldr	x0, [sp, #112]
   85d58:	2a0003e1 	mov	w1, w0
   85d5c:	f9401be0 	ldr	x0, [sp, #48]
   85d60:	94000277 	bl	8673c <_ZN8valkyrie6kernel13SlobAllocator4Slob19set_prev_chunk_sizeEi>
   85d64:	f94027e0 	ldr	x0, [sp, #72]
   85d68:	f9003fe0 	str	x0, [sp, #120]
   85d6c:	f9400fe0 	ldr	x0, [sp, #24]
   85d70:	f9400800 	ldr	x0, [x0, #16]
   85d74:	f9401be1 	ldr	x1, [sp, #48]
   85d78:	eb00003f 	cmp	x1, x0
   85d7c:	54000141 	b.ne	85da4 <_ZN8valkyrie6kernel13SlobAllocator10deallocateEPv+0x1a4>  // b.any
   85d80:	f9400fe0 	ldr	x0, [sp, #24]
   85d84:	f9403fe1 	ldr	x1, [sp, #120]
   85d88:	f9000801 	str	x1, [x0, #16]
   85d8c:	f9403fe0 	ldr	x0, [sp, #120]
   85d90:	94000264 	bl	86720 <_ZNK8valkyrie6kernel13SlobAllocator4Slob19get_prev_chunk_sizeEv>
   85d94:	2a0003e1 	mov	w1, w0
   85d98:	f9400fe0 	ldr	x0, [sp, #24]
   85d9c:	b9002001 	str	w1, [x0, #32]
   85da0:	14000024 	b	85e30 <_ZN8valkyrie6kernel13SlobAllocator10deallocateEPv+0x230>
   85da4:	f9401be0 	ldr	x0, [sp, #48]
   85da8:	94000275 	bl	8677c <_ZNK8valkyrie6kernel13SlobAllocator4Slob12is_allocatedEv>
   85dac:	12001c00 	and	w0, w0, #0xff
   85db0:	52000000 	eor	w0, w0, #0x1
   85db4:	12001c00 	and	w0, w0, #0xff
   85db8:	7100001f 	cmp	w0, #0x0
   85dbc:	54000300 	b.eq	85e1c <_ZN8valkyrie6kernel13SlobAllocator10deallocateEPv+0x21c>  // b.none
   85dc0:	f9401be1 	ldr	x1, [sp, #48]
   85dc4:	f9400fe0 	ldr	x0, [sp, #24]
   85dc8:	940001f3 	bl	86594 <_ZN8valkyrie6kernel13SlobAllocator13bin_del_entryEPNS1_4SlobE>
   85dcc:	f9403be1 	ldr	x1, [sp, #112]
   85dd0:	f94017e0 	ldr	x0, [sp, #40]
   85dd4:	8b000020 	add	x0, x1, x0
   85dd8:	f9003be0 	str	x0, [sp, #112]
   85ddc:	f9401fe1 	ldr	x1, [sp, #56]
   85de0:	f94017e0 	ldr	x0, [sp, #40]
   85de4:	8b000020 	add	x0, x1, x0
   85de8:	aa0003e1 	mov	x1, x0
   85dec:	f9403fe0 	ldr	x0, [sp, #120]
   85df0:	f9000001 	str	x1, [x0]
   85df4:	f9403be1 	ldr	x1, [sp, #112]
   85df8:	f9400fe0 	ldr	x0, [sp, #24]
   85dfc:	9400022b 	bl	866a8 <_ZN8valkyrie6kernel13SlobAllocator13get_bin_indexEm>
   85e00:	2a0003e1 	mov	w1, w0
   85e04:	f9403fe0 	ldr	x0, [sp, #120]
   85e08:	b9000801 	str	w1, [x0, #8]
   85e0c:	f9403fe0 	ldr	x0, [sp, #120]
   85e10:	f9400000 	ldr	x0, [x0]
   85e14:	f9403be1 	ldr	x1, [sp, #112]
   85e18:	94000249 	bl	8673c <_ZN8valkyrie6kernel13SlobAllocator4Slob19set_prev_chunk_sizeEi>
   85e1c:	f9403fe1 	ldr	x1, [sp, #120]
   85e20:	f9400fe0 	ldr	x0, [sp, #24]
   85e24:	940001a4 	bl	864b4 <_ZN8valkyrie6kernel13SlobAllocator12bin_add_headEPNS1_4SlobE>
   85e28:	14000002 	b	85e30 <_ZN8valkyrie6kernel13SlobAllocator10deallocateEPv+0x230>
   85e2c:	d503201f 	nop
   85e30:	a8c87bfd 	ldp	x29, x30, [sp], #128
   85e34:	d65f03c0 	ret

0000000000085e38 <_ZNK8valkyrie6kernel13SlobAllocator14dump_slob_infoEv>:
   85e38:	a9bb7bfd 	stp	x29, x30, [sp, #-80]!
   85e3c:	910003fd 	mov	x29, sp
   85e40:	f9000fe0 	str	x0, [sp, #24]
   85e44:	52800021 	mov	w1, #0x1                   	// #1
   85e48:	90000020 	adrp	x0, 89000 <_ZN8valkyrie6kernel8FunctionIFvvEE12CallableImplIZNS0_16__run_unit_testsEvEUlvE_E4callEv+0x5e8>
   85e4c:	91166000 	add	x0, x0, #0x598
   85e50:	97ffe955 	bl	803a4 <puts>
   85e54:	f9001bff 	str	xzr, [sp, #48]
   85e58:	b9002fff 	str	wzr, [sp, #44]
   85e5c:	b9402fe0 	ldr	w0, [sp, #44]
   85e60:	71001c1f 	cmp	w0, #0x7
   85e64:	540005ac 	b.gt	85f18 <_ZNK8valkyrie6kernel13SlobAllocator14dump_slob_infoEv+0xe0>
   85e68:	b9402fe0 	ldr	w0, [sp, #44]
   85e6c:	531c6c00 	lsl	w0, w0, #4
   85e70:	93407c00 	sxtw	x0, w0
   85e74:	91004000 	add	x0, x0, #0x10
   85e78:	f9001fe0 	str	x0, [sp, #56]
   85e7c:	9100e3e1 	add	x1, sp, #0x38
   85e80:	9100b3e0 	add	x0, sp, #0x2c
   85e84:	aa0103e2 	mov	x2, x1
   85e88:	aa0003e1 	mov	x1, x0
   85e8c:	90000020 	adrp	x0, 89000 <_ZN8valkyrie6kernel8FunctionIFvvEE12CallableImplIZNS0_16__run_unit_testsEvEUlvE_E4callEv+0x5e8>
   85e90:	9116e000 	add	x0, x0, #0x5b8
   85e94:	940026fe 	bl	8fa8c <_Z6printfIJRimEEvPKcDpOT_>
   85e98:	b9402fe0 	ldr	w0, [sp, #44]
   85e9c:	f9400fe1 	ldr	x1, [sp, #24]
   85ea0:	93407c00 	sxtw	x0, w0
   85ea4:	91001000 	add	x0, x0, #0x4
   85ea8:	d37df000 	lsl	x0, x0, #3
   85eac:	8b000020 	add	x0, x1, x0
   85eb0:	f9400400 	ldr	x0, [x0, #8]
   85eb4:	f9001be0 	str	x0, [sp, #48]
   85eb8:	f9401be0 	ldr	x0, [sp, #48]
   85ebc:	f100001f 	cmp	x0, #0x0
   85ec0:	540001e0 	b.eq	85efc <_ZNK8valkyrie6kernel13SlobAllocator14dump_slob_infoEv+0xc4>  // b.none
   85ec4:	f9401be0 	ldr	x0, [sp, #48]
   85ec8:	9400020d 	bl	866fc <_ZNK8valkyrie6kernel13SlobAllocator4Slob14get_chunk_sizeEv>
   85ecc:	f90023e0 	str	x0, [sp, #64]
   85ed0:	9100c3e1 	add	x1, sp, #0x30
   85ed4:	910103e0 	add	x0, sp, #0x40
   85ed8:	aa0103e2 	mov	x2, x1
   85edc:	aa0003e1 	mov	x1, x0
   85ee0:	90000020 	adrp	x0, 89000 <_ZN8valkyrie6kernel8FunctionIFvvEE12CallableImplIZNS0_16__run_unit_testsEvEUlvE_E4callEv+0x5e8>
   85ee4:	91174000 	add	x0, x0, #0x5d0
   85ee8:	940026f8 	bl	8fac8 <_Z6printfIJmRPN8valkyrie6kernel13SlobAllocator4SlobEEEvPKcDpOT_>
   85eec:	f9401be0 	ldr	x0, [sp, #48]
   85ef0:	f9400000 	ldr	x0, [x0]
   85ef4:	f9001be0 	str	x0, [sp, #48]
   85ef8:	17fffff0 	b	85eb8 <_ZNK8valkyrie6kernel13SlobAllocator14dump_slob_infoEv+0x80>
   85efc:	90000020 	adrp	x0, 89000 <_ZN8valkyrie6kernel8FunctionIFvvEE12CallableImplIZNS0_16__run_unit_testsEvEUlvE_E4callEv+0x5e8>
   85f00:	91178000 	add	x0, x0, #0x5e0
   85f04:	94002048 	bl	8e024 <_Z6printfIJEEvPKcDpOT_>
   85f08:	b9402fe0 	ldr	w0, [sp, #44]
   85f0c:	11000400 	add	w0, w0, #0x1
   85f10:	b9002fe0 	str	w0, [sp, #44]
   85f14:	17ffffd2 	b	85e5c <_ZNK8valkyrie6kernel13SlobAllocator14dump_slob_infoEv+0x24>
   85f18:	90000020 	adrp	x0, 89000 <_ZN8valkyrie6kernel8FunctionIFvvEE12CallableImplIZNS0_16__run_unit_testsEvEUlvE_E4callEv+0x5e8>
   85f1c:	9117a000 	add	x0, x0, #0x5e8
   85f20:	94002041 	bl	8e024 <_Z6printfIJEEvPKcDpOT_>
   85f24:	f9400fe0 	ldr	x0, [sp, #24]
   85f28:	f9403400 	ldr	x0, [x0, #104]
   85f2c:	f9001be0 	str	x0, [sp, #48]
   85f30:	f9401be0 	ldr	x0, [sp, #48]
   85f34:	f100001f 	cmp	x0, #0x0
   85f38:	540001e0 	b.eq	85f74 <_ZNK8valkyrie6kernel13SlobAllocator14dump_slob_infoEv+0x13c>  // b.none
   85f3c:	f9401be0 	ldr	x0, [sp, #48]
   85f40:	940001ef 	bl	866fc <_ZNK8valkyrie6kernel13SlobAllocator4Slob14get_chunk_sizeEv>
   85f44:	f90027e0 	str	x0, [sp, #72]
   85f48:	9100c3e1 	add	x1, sp, #0x30
   85f4c:	910123e0 	add	x0, sp, #0x48
   85f50:	aa0103e2 	mov	x2, x1
   85f54:	aa0003e1 	mov	x1, x0
   85f58:	90000020 	adrp	x0, 89000 <_ZN8valkyrie6kernel8FunctionIFvvEE12CallableImplIZNS0_16__run_unit_testsEvEUlvE_E4callEv+0x5e8>
   85f5c:	91174000 	add	x0, x0, #0x5d0
   85f60:	940026da 	bl	8fac8 <_Z6printfIJmRPN8valkyrie6kernel13SlobAllocator4SlobEEEvPKcDpOT_>
   85f64:	f9401be0 	ldr	x0, [sp, #48]
   85f68:	f9400000 	ldr	x0, [x0]
   85f6c:	f9001be0 	str	x0, [sp, #48]
   85f70:	17fffff0 	b	85f30 <_ZNK8valkyrie6kernel13SlobAllocator14dump_slob_infoEv+0xf8>
   85f74:	90000020 	adrp	x0, 89000 <_ZN8valkyrie6kernel8FunctionIFvvEE12CallableImplIZNS0_16__run_unit_testsEvEUlvE_E4callEv+0x5e8>
   85f78:	91178000 	add	x0, x0, #0x5e0
   85f7c:	9400202a 	bl	8e024 <_Z6printfIJEEvPKcDpOT_>
   85f80:	52800021 	mov	w1, #0x1                   	// #1
   85f84:	90000020 	adrp	x0, 89000 <_ZN8valkyrie6kernel8FunctionIFvvEE12CallableImplIZNS0_16__run_unit_testsEvEUlvE_E4callEv+0x5e8>
   85f88:	9117e000 	add	x0, x0, #0x5f8
   85f8c:	97ffe906 	bl	803a4 <puts>
   85f90:	f9400fe0 	ldr	x0, [sp, #24]
   85f94:	91002000 	add	x0, x0, #0x8
   85f98:	aa0003e1 	mov	x1, x0
   85f9c:	90000020 	adrp	x0, 89000 <_ZN8valkyrie6kernel8FunctionIFvvEE12CallableImplIZNS0_16__run_unit_testsEvEUlvE_E4callEv+0x5e8>
   85fa0:	91186000 	add	x0, x0, #0x618
   85fa4:	940026d8 	bl	8fb04 <_Z6printfIJRKPvEEvPKcDpOT_>
   85fa8:	f9400fe0 	ldr	x0, [sp, #24]
   85fac:	91004000 	add	x0, x0, #0x10
   85fb0:	aa0003e1 	mov	x1, x0
   85fb4:	90000020 	adrp	x0, 89000 <_ZN8valkyrie6kernel8FunctionIFvvEE12CallableImplIZNS0_16__run_unit_testsEvEUlvE_E4callEv+0x5e8>
   85fb8:	91190000 	add	x0, x0, #0x640
   85fbc:	940026d2 	bl	8fb04 <_Z6printfIJRKPvEEvPKcDpOT_>
   85fc0:	f9400fe0 	ldr	x0, [sp, #24]
   85fc4:	91006000 	add	x0, x0, #0x18
   85fc8:	aa0003e1 	mov	x1, x0
   85fcc:	90000020 	adrp	x0, 89000 <_ZN8valkyrie6kernel8FunctionIFvvEE12CallableImplIZNS0_16__run_unit_testsEvEUlvE_E4callEv+0x5e8>
   85fd0:	9119a000 	add	x0, x0, #0x668
   85fd4:	940026cc 	bl	8fb04 <_Z6printfIJRKPvEEvPKcDpOT_>
   85fd8:	f9400fe0 	ldr	x0, [sp, #24]
   85fdc:	f9400801 	ldr	x1, [x0, #16]
   85fe0:	f9400fe0 	ldr	x0, [sp, #24]
   85fe4:	f9400c00 	ldr	x0, [x0, #24]
   85fe8:	eb00003f 	cmp	x1, x0
   85fec:	1a9f97e0 	cset	w0, hi  // hi = pmore
   85ff0:	12001c00 	and	w0, w0, #0xff
   85ff4:	92401c00 	and	x0, x0, #0xff
   85ff8:	f100001f 	cmp	x0, #0x0
   85ffc:	54000080 	b.eq	8600c <_ZNK8valkyrie6kernel13SlobAllocator14dump_slob_infoEv+0x1d4>  // b.none
   86000:	f0000000 	adrp	x0, 89000 <_ZN8valkyrie6kernel8FunctionIFvvEE12CallableImplIZNS0_16__run_unit_testsEvEUlvE_E4callEv+0x5e8>
   86004:	911a4000 	add	x0, x0, #0x690
   86008:	94001f65 	bl	8dd9c <_ZN8valkyrie6kernel6Kernel5panicIJEEEvPKcDpOT_>
   8600c:	d503201f 	nop
   86010:	a8c57bfd 	ldp	x29, x30, [sp], #80
   86014:	d65f03c0 	ret

0000000000086018 <_ZN8valkyrie6kernel13SlobAllocator21get_chunk_header_sizeEv>:
   86018:	d2800200 	mov	x0, #0x10                  	// #16
   8601c:	d65f03c0 	ret

0000000000086020 <_ZN8valkyrie6kernel13SlobAllocator22request_new_page_frameEv>:
   86020:	a9bd7bfd 	stp	x29, x30, [sp, #-48]!
   86024:	910003fd 	mov	x29, sp
   86028:	f9000bf3 	str	x19, [sp, #16]
   8602c:	f90017e0 	str	x0, [sp, #40]
   86030:	f94017e0 	ldr	x0, [sp, #40]
   86034:	f9400000 	ldr	x0, [x0]
   86038:	97fff793 	bl	83e84 <_ZN8valkyrie6kernel18PageFrameAllocator23allocate_one_page_frameEv>
   8603c:	aa0003e1 	mov	x1, x0
   86040:	f94017e0 	ldr	x0, [sp, #40]
   86044:	f9000401 	str	x1, [x0, #8]
   86048:	f94017e0 	ldr	x0, [sp, #40]
   8604c:	f9400401 	ldr	x1, [x0, #8]
   86050:	f94017e0 	ldr	x0, [sp, #40]
   86054:	f9000801 	str	x1, [x0, #16]
   86058:	f94017e0 	ldr	x0, [sp, #40]
   8605c:	f9400813 	ldr	x19, [x0, #16]
   86060:	97fff791 	bl	83ea4 <_ZN8valkyrie6kernel18PageFrameAllocator21get_block_header_sizeEv>
   86064:	aa0003e1 	mov	x1, x0
   86068:	d2820000 	mov	x0, #0x1000                	// #4096
   8606c:	cb010000 	sub	x0, x0, x1
   86070:	8b000261 	add	x1, x19, x0
   86074:	f94017e0 	ldr	x0, [sp, #40]
   86078:	f9000c01 	str	x1, [x0, #24]
   8607c:	d503201f 	nop
   86080:	f9400bf3 	ldr	x19, [sp, #16]
   86084:	a8c37bfd 	ldp	x29, x30, [sp], #48
   86088:	d65f03c0 	ret

000000000008608c <_ZNK8valkyrie6kernel13SlobAllocator28is_first_chunk_in_page_frameEPKNS1_4SlobE>:
   8608c:	d10083ff 	sub	sp, sp, #0x20
   86090:	f90007e0 	str	x0, [sp, #8]
   86094:	f90003e1 	str	x1, [sp]
   86098:	f94003e0 	ldr	x0, [sp]
   8609c:	f9000fe0 	str	x0, [sp, #24]
   860a0:	f94007e0 	ldr	x0, [sp, #8]
   860a4:	f9400400 	ldr	x0, [x0, #8]
   860a8:	f9000be0 	str	x0, [sp, #16]
   860ac:	f9400fe1 	ldr	x1, [sp, #24]
   860b0:	f9400be0 	ldr	x0, [sp, #16]
   860b4:	eb00003f 	cmp	x1, x0
   860b8:	1a9f17e0 	cset	w0, eq  // eq = none
   860bc:	12001c00 	and	w0, w0, #0xff
   860c0:	910083ff 	add	sp, sp, #0x20
   860c4:	d65f03c0 	ret

00000000000860c8 <_ZN8valkyrie6kernel13SlobAllocator20split_from_top_chunkEm>:
   860c8:	a9bd7bfd 	stp	x29, x30, [sp, #-48]!
   860cc:	910003fd 	mov	x29, sp
   860d0:	f9000fe0 	str	x0, [sp, #24]
   860d4:	f9000be1 	str	x1, [sp, #16]
   860d8:	f9400be0 	ldr	x0, [sp, #16]
   860dc:	f100001f 	cmp	x0, #0x0
   860e0:	54000061 	b.ne	860ec <_ZN8valkyrie6kernel13SlobAllocator20split_from_top_chunkEm+0x24>  // b.any
   860e4:	d2800000 	mov	x0, #0x0                   	// #0
   860e8:	1400001e 	b	86160 <_ZN8valkyrie6kernel13SlobAllocator20split_from_top_chunkEm+0x98>
   860ec:	f9400fe0 	ldr	x0, [sp, #24]
   860f0:	f9400800 	ldr	x0, [x0, #16]
   860f4:	f90017e0 	str	x0, [sp, #40]
   860f8:	f94017e0 	ldr	x0, [sp, #40]
   860fc:	f900001f 	str	xzr, [x0]
   86100:	f9400be1 	ldr	x1, [sp, #16]
   86104:	f9400fe0 	ldr	x0, [sp, #24]
   86108:	94000168 	bl	866a8 <_ZN8valkyrie6kernel13SlobAllocator13get_bin_indexEm>
   8610c:	2a0003e1 	mov	w1, w0
   86110:	f94017e0 	ldr	x0, [sp, #40]
   86114:	b9000801 	str	w1, [x0, #8]
   86118:	f9400fe0 	ldr	x0, [sp, #24]
   8611c:	b9402001 	ldr	w1, [x0, #32]
   86120:	f94017e0 	ldr	x0, [sp, #40]
   86124:	b9000c01 	str	w1, [x0, #12]
   86128:	52800021 	mov	w1, #0x1                   	// #1
   8612c:	f94017e0 	ldr	x0, [sp, #40]
   86130:	9400019d 	bl	867a4 <_ZN8valkyrie6kernel13SlobAllocator4Slob13set_allocatedEb>
   86134:	f9400fe0 	ldr	x0, [sp, #24]
   86138:	f9400801 	ldr	x1, [x0, #16]
   8613c:	f9400be0 	ldr	x0, [sp, #16]
   86140:	8b000021 	add	x1, x1, x0
   86144:	f9400fe0 	ldr	x0, [sp, #24]
   86148:	f9000801 	str	x1, [x0, #16]
   8614c:	f9400be0 	ldr	x0, [sp, #16]
   86150:	2a0003e1 	mov	w1, w0
   86154:	f9400fe0 	ldr	x0, [sp, #24]
   86158:	b9002001 	str	w1, [x0, #32]
   8615c:	f94017e0 	ldr	x0, [sp, #40]
   86160:	a8c37bfd 	ldp	x29, x30, [sp], #48
   86164:	d65f03c0 	ret

0000000000086168 <_ZNK8valkyrie6kernel13SlobAllocator20is_top_chunk_used_upEv>:
   86168:	a9be7bfd 	stp	x29, x30, [sp, #-32]!
   8616c:	910003fd 	mov	x29, sp
   86170:	f9000fe0 	str	x0, [sp, #24]
   86174:	f9400fe0 	ldr	x0, [sp, #24]
   86178:	94000013 	bl	861c4 <_ZNK8valkyrie6kernel13SlobAllocator18get_top_chunk_sizeEv>
   8617c:	f100001f 	cmp	x0, #0x0
   86180:	1a9f17e0 	cset	w0, eq  // eq = none
   86184:	12001c00 	and	w0, w0, #0xff
   86188:	a8c27bfd 	ldp	x29, x30, [sp], #32
   8618c:	d65f03c0 	ret

0000000000086190 <_ZNK8valkyrie6kernel13SlobAllocator25is_top_chunk_large_enoughEm>:
   86190:	a9be7bfd 	stp	x29, x30, [sp, #-32]!
   86194:	910003fd 	mov	x29, sp
   86198:	f9000fe0 	str	x0, [sp, #24]
   8619c:	f9000be1 	str	x1, [sp, #16]
   861a0:	f9400fe0 	ldr	x0, [sp, #24]
   861a4:	94000008 	bl	861c4 <_ZNK8valkyrie6kernel13SlobAllocator18get_top_chunk_sizeEv>
   861a8:	aa0003e1 	mov	x1, x0
   861ac:	f9400be0 	ldr	x0, [sp, #16]
   861b0:	eb01001f 	cmp	x0, x1
   861b4:	1a9f87e0 	cset	w0, ls  // ls = plast
   861b8:	12001c00 	and	w0, w0, #0xff
   861bc:	a8c27bfd 	ldp	x29, x30, [sp], #32
   861c0:	d65f03c0 	ret

00000000000861c4 <_ZNK8valkyrie6kernel13SlobAllocator18get_top_chunk_sizeEv>:
   861c4:	d10043ff 	sub	sp, sp, #0x10
   861c8:	f90007e0 	str	x0, [sp, #8]
   861cc:	f94007e0 	ldr	x0, [sp, #8]
   861d0:	f9400c00 	ldr	x0, [x0, #24]
   861d4:	aa0003e1 	mov	x1, x0
   861d8:	f94007e0 	ldr	x0, [sp, #8]
   861dc:	f9400800 	ldr	x0, [x0, #16]
   861e0:	cb000020 	sub	x0, x1, x0
   861e4:	910043ff 	add	sp, sp, #0x10
   861e8:	d65f03c0 	ret

00000000000861ec <_ZN8valkyrie6kernel13SlobAllocator11split_chunkEPNS1_4SlobEm>:
   861ec:	a9ba7bfd 	stp	x29, x30, [sp, #-96]!
   861f0:	910003fd 	mov	x29, sp
   861f4:	f90017e0 	str	x0, [sp, #40]
   861f8:	f90013e1 	str	x1, [sp, #32]
   861fc:	f9000fe2 	str	x2, [sp, #24]
   86200:	f94013e0 	ldr	x0, [sp, #32]
   86204:	f100001f 	cmp	x0, #0x0
   86208:	1a9f17e0 	cset	w0, eq  // eq = none
   8620c:	12001c00 	and	w0, w0, #0xff
   86210:	92401c00 	and	x0, x0, #0xff
   86214:	f100001f 	cmp	x0, #0x0
   86218:	54000080 	b.eq	86228 <_ZN8valkyrie6kernel13SlobAllocator11split_chunkEPNS1_4SlobEm+0x3c>  // b.none
   8621c:	f0000000 	adrp	x0, 89000 <_ZN8valkyrie6kernel8FunctionIFvvEE12CallableImplIZNS0_16__run_unit_testsEvEUlvE_E4callEv+0x5e8>
   86220:	911b6000 	add	x0, x0, #0x6d8
   86224:	94001ede 	bl	8dd9c <_ZN8valkyrie6kernel6Kernel5panicIJEEEvPKcDpOT_>
   86228:	f94013e0 	ldr	x0, [sp, #32]
   8622c:	b9400800 	ldr	w0, [x0, #8]
   86230:	531f7c00 	lsr	w0, w0, #31
   86234:	12001c00 	and	w0, w0, #0xff
   86238:	92401c00 	and	x0, x0, #0xff
   8623c:	f100001f 	cmp	x0, #0x0
   86240:	540000e0 	b.eq	8625c <_ZN8valkyrie6kernel13SlobAllocator11split_chunkEPNS1_4SlobEm+0x70>  // b.none
   86244:	f94013e0 	ldr	x0, [sp, #32]
   86248:	91002000 	add	x0, x0, #0x8
   8624c:	aa0003e1 	mov	x1, x0
   86250:	f0000000 	adrp	x0, 89000 <_ZN8valkyrie6kernel8FunctionIFvvEE12CallableImplIZNS0_16__run_unit_testsEvEUlvE_E4callEv+0x5e8>
   86254:	911c2000 	add	x0, x0, #0x708
   86258:	94002637 	bl	8fb34 <_ZN8valkyrie6kernel6Kernel5panicIJRiEEEvPKcDpOT_>
   8625c:	f94013e0 	ldr	x0, [sp, #32]
   86260:	94000127 	bl	866fc <_ZNK8valkyrie6kernel13SlobAllocator4Slob14get_chunk_sizeEv>
   86264:	aa0003e1 	mov	x1, x0
   86268:	f9400fe0 	ldr	x0, [sp, #24]
   8626c:	eb00003f 	cmp	x1, x0
   86270:	1a9f27e0 	cset	w0, cc  // cc = lo, ul, last
   86274:	12001c00 	and	w0, w0, #0xff
   86278:	92401c00 	and	x0, x0, #0xff
   8627c:	f100001f 	cmp	x0, #0x0
   86280:	1a9f07e0 	cset	w0, ne  // ne = any
   86284:	12001c00 	and	w0, w0, #0xff
   86288:	7100001f 	cmp	w0, #0x0
   8628c:	54000160 	b.eq	862b8 <_ZN8valkyrie6kernel13SlobAllocator11split_chunkEPNS1_4SlobEm+0xcc>  // b.none
   86290:	f94013e0 	ldr	x0, [sp, #32]
   86294:	9400011a 	bl	866fc <_ZNK8valkyrie6kernel13SlobAllocator4Slob14get_chunk_sizeEv>
   86298:	f9001be0 	str	x0, [sp, #48]
   8629c:	9100c3e1 	add	x1, sp, #0x30
   862a0:	910063e0 	add	x0, sp, #0x18
   862a4:	aa0103e2 	mov	x2, x1
   862a8:	aa0003e1 	mov	x1, x0
   862ac:	f0000000 	adrp	x0, 89000 <_ZN8valkyrie6kernel8FunctionIFvvEE12CallableImplIZNS0_16__run_unit_testsEvEUlvE_E4callEv+0x5e8>
   862b0:	911d0000 	add	x0, x0, #0x740
   862b4:	94002651 	bl	8fbf8 <_ZN8valkyrie6kernel6Kernel5panicIJRKmmEEEvPKcDpOT_>
   862b8:	f94013e1 	ldr	x1, [sp, #32]
   862bc:	f94017e0 	ldr	x0, [sp, #40]
   862c0:	94000046 	bl	863d8 <_ZN8valkyrie6kernel13SlobAllocator12bin_del_headEPNS1_4SlobE>
   862c4:	f94013e0 	ldr	x0, [sp, #32]
   862c8:	9400010d 	bl	866fc <_ZNK8valkyrie6kernel13SlobAllocator4Slob14get_chunk_sizeEv>
   862cc:	aa0003e1 	mov	x1, x0
   862d0:	f9400fe0 	ldr	x0, [sp, #24]
   862d4:	cb000020 	sub	x0, x1, x0
   862d8:	f9002fe0 	str	x0, [sp, #88]
   862dc:	f9402fe0 	ldr	x0, [sp, #88]
   862e0:	f100001f 	cmp	x0, #0x0
   862e4:	1a9f07e0 	cset	w0, ne  // ne = any
   862e8:	12001c00 	and	w0, w0, #0xff
   862ec:	92401c00 	and	x0, x0, #0xff
   862f0:	f100001f 	cmp	x0, #0x0
   862f4:	54000540 	b.eq	8639c <_ZN8valkyrie6kernel13SlobAllocator11split_chunkEPNS1_4SlobEm+0x1b0>  // b.none
   862f8:	f94013e1 	ldr	x1, [sp, #32]
   862fc:	f9400fe0 	ldr	x0, [sp, #24]
   86300:	8b000020 	add	x0, x1, x0
   86304:	f9002be0 	str	x0, [sp, #80]
   86308:	f9402be0 	ldr	x0, [sp, #80]
   8630c:	f90027e0 	str	x0, [sp, #72]
   86310:	f94027e0 	ldr	x0, [sp, #72]
   86314:	f900001f 	str	xzr, [x0]
   86318:	f9402fe1 	ldr	x1, [sp, #88]
   8631c:	f94017e0 	ldr	x0, [sp, #40]
   86320:	940000e2 	bl	866a8 <_ZN8valkyrie6kernel13SlobAllocator13get_bin_indexEm>
   86324:	2a0003e1 	mov	w1, w0
   86328:	f94027e0 	ldr	x0, [sp, #72]
   8632c:	b9000801 	str	w1, [x0, #8]
   86330:	f9400fe0 	ldr	x0, [sp, #24]
   86334:	2a0003e1 	mov	w1, w0
   86338:	f94027e0 	ldr	x0, [sp, #72]
   8633c:	b9000c01 	str	w1, [x0, #12]
   86340:	52800001 	mov	w1, #0x0                   	// #0
   86344:	f94027e0 	ldr	x0, [sp, #72]
   86348:	94000117 	bl	867a4 <_ZN8valkyrie6kernel13SlobAllocator4Slob13set_allocatedEb>
   8634c:	f94027e1 	ldr	x1, [sp, #72]
   86350:	f94017e0 	ldr	x0, [sp, #40]
   86354:	94000058 	bl	864b4 <_ZN8valkyrie6kernel13SlobAllocator12bin_add_headEPNS1_4SlobE>
   86358:	f94013e0 	ldr	x0, [sp, #32]
   8635c:	940000e8 	bl	866fc <_ZNK8valkyrie6kernel13SlobAllocator4Slob14get_chunk_sizeEv>
   86360:	aa0003e1 	mov	x1, x0
   86364:	f94013e0 	ldr	x0, [sp, #32]
   86368:	8b000020 	add	x0, x1, x0
   8636c:	f90023e0 	str	x0, [sp, #64]
   86370:	f94023e0 	ldr	x0, [sp, #64]
   86374:	f9001fe0 	str	x0, [sp, #56]
   86378:	f94017e0 	ldr	x0, [sp, #40]
   8637c:	f9400800 	ldr	x0, [x0, #16]
   86380:	f9401fe1 	ldr	x1, [sp, #56]
   86384:	eb00003f 	cmp	x1, x0
   86388:	540000a0 	b.eq	8639c <_ZN8valkyrie6kernel13SlobAllocator11split_chunkEPNS1_4SlobEm+0x1b0>  // b.none
   8638c:	f9402fe0 	ldr	x0, [sp, #88]
   86390:	2a0003e1 	mov	w1, w0
   86394:	f9401fe0 	ldr	x0, [sp, #56]
   86398:	940000e9 	bl	8673c <_ZN8valkyrie6kernel13SlobAllocator4Slob19set_prev_chunk_sizeEi>
   8639c:	f94013e0 	ldr	x0, [sp, #32]
   863a0:	f900001f 	str	xzr, [x0]
   863a4:	f9400fe0 	ldr	x0, [sp, #24]
   863a8:	aa0003e1 	mov	x1, x0
   863ac:	f94017e0 	ldr	x0, [sp, #40]
   863b0:	940000be 	bl	866a8 <_ZN8valkyrie6kernel13SlobAllocator13get_bin_indexEm>
   863b4:	2a0003e1 	mov	w1, w0
   863b8:	f94013e0 	ldr	x0, [sp, #32]
   863bc:	b9000801 	str	w1, [x0, #8]
   863c0:	52800021 	mov	w1, #0x1                   	// #1
   863c4:	f94013e0 	ldr	x0, [sp, #32]
   863c8:	940000f7 	bl	867a4 <_ZN8valkyrie6kernel13SlobAllocator4Slob13set_allocatedEb>
   863cc:	f94013e0 	ldr	x0, [sp, #32]
   863d0:	a8c67bfd 	ldp	x29, x30, [sp], #96
   863d4:	d65f03c0 	ret

00000000000863d8 <_ZN8valkyrie6kernel13SlobAllocator12bin_del_headEPNS1_4SlobE>:
   863d8:	a9be7bfd 	stp	x29, x30, [sp, #-32]!
   863dc:	910003fd 	mov	x29, sp
   863e0:	f9000fe0 	str	x0, [sp, #24]
   863e4:	f9000be1 	str	x1, [sp, #16]
   863e8:	f9400be0 	ldr	x0, [sp, #16]
   863ec:	f100001f 	cmp	x0, #0x0
   863f0:	1a9f17e0 	cset	w0, eq  // eq = none
   863f4:	12001c00 	and	w0, w0, #0xff
   863f8:	92401c00 	and	x0, x0, #0xff
   863fc:	f100001f 	cmp	x0, #0x0
   86400:	54000080 	b.eq	86410 <_ZN8valkyrie6kernel13SlobAllocator12bin_del_headEPNS1_4SlobE+0x38>  // b.none
   86404:	f0000000 	adrp	x0, 89000 <_ZN8valkyrie6kernel8FunctionIFvvEE12CallableImplIZNS0_16__run_unit_testsEvEUlvE_E4callEv+0x5e8>
   86408:	911e2000 	add	x0, x0, #0x788
   8640c:	94001e64 	bl	8dd9c <_ZN8valkyrie6kernel6Kernel5panicIJEEEvPKcDpOT_>
   86410:	f9400be0 	ldr	x0, [sp, #16]
   86414:	b9400800 	ldr	w0, [x0, #8]
   86418:	71001c1f 	cmp	w0, #0x7
   8641c:	540000ad 	b.le	86430 <_ZN8valkyrie6kernel13SlobAllocator12bin_del_headEPNS1_4SlobE+0x58>
   86420:	f9400be1 	ldr	x1, [sp, #16]
   86424:	f9400fe0 	ldr	x0, [sp, #24]
   86428:	9400005b 	bl	86594 <_ZN8valkyrie6kernel13SlobAllocator13bin_del_entryEPNS1_4SlobE>
   8642c:	14000020 	b	864ac <_ZN8valkyrie6kernel13SlobAllocator12bin_del_headEPNS1_4SlobE+0xd4>
   86430:	f9400be0 	ldr	x0, [sp, #16]
   86434:	b9400800 	ldr	w0, [x0, #8]
   86438:	f9400fe1 	ldr	x1, [sp, #24]
   8643c:	93407c00 	sxtw	x0, w0
   86440:	91001000 	add	x0, x0, #0x4
   86444:	d37df000 	lsl	x0, x0, #3
   86448:	8b000020 	add	x0, x1, x0
   8644c:	f9400400 	ldr	x0, [x0, #8]
   86450:	f100001f 	cmp	x0, #0x0
   86454:	540002a0 	b.eq	864a8 <_ZN8valkyrie6kernel13SlobAllocator12bin_del_headEPNS1_4SlobE+0xd0>  // b.none
   86458:	f9400be0 	ldr	x0, [sp, #16]
   8645c:	b9400800 	ldr	w0, [x0, #8]
   86460:	f9400fe1 	ldr	x1, [sp, #24]
   86464:	93407c00 	sxtw	x0, w0
   86468:	91001000 	add	x0, x0, #0x4
   8646c:	d37df000 	lsl	x0, x0, #3
   86470:	8b000020 	add	x0, x1, x0
   86474:	f9400400 	ldr	x0, [x0, #8]
   86478:	f9400be1 	ldr	x1, [sp, #16]
   8647c:	b9400823 	ldr	w3, [x1, #8]
   86480:	f9400001 	ldr	x1, [x0]
   86484:	f9400fe2 	ldr	x2, [sp, #24]
   86488:	93407c60 	sxtw	x0, w3
   8648c:	91001000 	add	x0, x0, #0x4
   86490:	d37df000 	lsl	x0, x0, #3
   86494:	8b000040 	add	x0, x2, x0
   86498:	f9000401 	str	x1, [x0, #8]
   8649c:	f9400be0 	ldr	x0, [sp, #16]
   864a0:	f900001f 	str	xzr, [x0]
   864a4:	14000002 	b	864ac <_ZN8valkyrie6kernel13SlobAllocator12bin_del_headEPNS1_4SlobE+0xd4>
   864a8:	d503201f 	nop
   864ac:	a8c27bfd 	ldp	x29, x30, [sp], #32
   864b0:	d65f03c0 	ret

00000000000864b4 <_ZN8valkyrie6kernel13SlobAllocator12bin_add_headEPNS1_4SlobE>:
   864b4:	a9bd7bfd 	stp	x29, x30, [sp, #-48]!
   864b8:	910003fd 	mov	x29, sp
   864bc:	f9000fe0 	str	x0, [sp, #24]
   864c0:	f9000be1 	str	x1, [sp, #16]
   864c4:	f9400be0 	ldr	x0, [sp, #16]
   864c8:	f100001f 	cmp	x0, #0x0
   864cc:	1a9f17e0 	cset	w0, eq  // eq = none
   864d0:	12001c00 	and	w0, w0, #0xff
   864d4:	92401c00 	and	x0, x0, #0xff
   864d8:	f100001f 	cmp	x0, #0x0
   864dc:	54000080 	b.eq	864ec <_ZN8valkyrie6kernel13SlobAllocator12bin_add_headEPNS1_4SlobE+0x38>  // b.none
   864e0:	f0000000 	adrp	x0, 89000 <_ZN8valkyrie6kernel8FunctionIFvvEE12CallableImplIZNS0_16__run_unit_testsEvEUlvE_E4callEv+0x5e8>
   864e4:	911ee000 	add	x0, x0, #0x7b8
   864e8:	94001e2d 	bl	8dd9c <_ZN8valkyrie6kernel6Kernel5panicIJEEEvPKcDpOT_>
   864ec:	f9400be0 	ldr	x0, [sp, #16]
   864f0:	b9400800 	ldr	w0, [x0, #8]
   864f4:	71001c1f 	cmp	w0, #0x7
   864f8:	5400008d 	b.le	86508 <_ZN8valkyrie6kernel13SlobAllocator12bin_add_headEPNS1_4SlobE+0x54>
   864fc:	f9400fe0 	ldr	x0, [sp, #24]
   86500:	9101a000 	add	x0, x0, #0x68
   86504:	14000009 	b	86528 <_ZN8valkyrie6kernel13SlobAllocator12bin_add_headEPNS1_4SlobE+0x74>
   86508:	f9400be0 	ldr	x0, [sp, #16]
   8650c:	b9400800 	ldr	w0, [x0, #8]
   86510:	93407c00 	sxtw	x0, w0
   86514:	91001000 	add	x0, x0, #0x4
   86518:	d37df000 	lsl	x0, x0, #3
   8651c:	f9400fe1 	ldr	x1, [sp, #24]
   86520:	8b000020 	add	x0, x1, x0
   86524:	91002000 	add	x0, x0, #0x8
   86528:	f90017e0 	str	x0, [sp, #40]
   8652c:	f94017e0 	ldr	x0, [sp, #40]
   86530:	f9400000 	ldr	x0, [x0]
   86534:	f9400be1 	ldr	x1, [sp, #16]
   86538:	eb00003f 	cmp	x1, x0
   8653c:	54000260 	b.eq	86588 <_ZN8valkyrie6kernel13SlobAllocator12bin_add_headEPNS1_4SlobE+0xd4>  // b.none
   86540:	f94017e0 	ldr	x0, [sp, #40]
   86544:	f9400000 	ldr	x0, [x0]
   86548:	f100001f 	cmp	x0, #0x0
   8654c:	540000e1 	b.ne	86568 <_ZN8valkyrie6kernel13SlobAllocator12bin_add_headEPNS1_4SlobE+0xb4>  // b.any
   86550:	f94017e0 	ldr	x0, [sp, #40]
   86554:	f9400be1 	ldr	x1, [sp, #16]
   86558:	f9000001 	str	x1, [x0]
   8655c:	f9400be0 	ldr	x0, [sp, #16]
   86560:	f900001f 	str	xzr, [x0]
   86564:	1400000a 	b	8658c <_ZN8valkyrie6kernel13SlobAllocator12bin_add_headEPNS1_4SlobE+0xd8>
   86568:	f94017e0 	ldr	x0, [sp, #40]
   8656c:	f9400001 	ldr	x1, [x0]
   86570:	f9400be0 	ldr	x0, [sp, #16]
   86574:	f9000001 	str	x1, [x0]
   86578:	f94017e0 	ldr	x0, [sp, #40]
   8657c:	f9400be1 	ldr	x1, [sp, #16]
   86580:	f9000001 	str	x1, [x0]
   86584:	14000002 	b	8658c <_ZN8valkyrie6kernel13SlobAllocator12bin_add_headEPNS1_4SlobE+0xd8>
   86588:	d503201f 	nop
   8658c:	a8c37bfd 	ldp	x29, x30, [sp], #48
   86590:	d65f03c0 	ret

0000000000086594 <_ZN8valkyrie6kernel13SlobAllocator13bin_del_entryEPNS1_4SlobE>:
   86594:	a9bc7bfd 	stp	x29, x30, [sp, #-64]!
   86598:	910003fd 	mov	x29, sp
   8659c:	f9000fe0 	str	x0, [sp, #24]
   865a0:	f9000be1 	str	x1, [sp, #16]
   865a4:	f9400be0 	ldr	x0, [sp, #16]
   865a8:	f100001f 	cmp	x0, #0x0
   865ac:	1a9f17e0 	cset	w0, eq  // eq = none
   865b0:	12001c00 	and	w0, w0, #0xff
   865b4:	92401c00 	and	x0, x0, #0xff
   865b8:	f100001f 	cmp	x0, #0x0
   865bc:	54000080 	b.eq	865cc <_ZN8valkyrie6kernel13SlobAllocator13bin_del_entryEPNS1_4SlobE+0x38>  // b.none
   865c0:	f0000000 	adrp	x0, 89000 <_ZN8valkyrie6kernel8FunctionIFvvEE12CallableImplIZNS0_16__run_unit_testsEvEUlvE_E4callEv+0x5e8>
   865c4:	911fa000 	add	x0, x0, #0x7e8
   865c8:	94001df5 	bl	8dd9c <_ZN8valkyrie6kernel6Kernel5panicIJEEEvPKcDpOT_>
   865cc:	f9400be0 	ldr	x0, [sp, #16]
   865d0:	b9400800 	ldr	w0, [x0, #8]
   865d4:	71001c1f 	cmp	w0, #0x7
   865d8:	5400008d 	b.le	865e8 <_ZN8valkyrie6kernel13SlobAllocator13bin_del_entryEPNS1_4SlobE+0x54>
   865dc:	f9400fe0 	ldr	x0, [sp, #24]
   865e0:	9101a000 	add	x0, x0, #0x68
   865e4:	14000009 	b	86608 <_ZN8valkyrie6kernel13SlobAllocator13bin_del_entryEPNS1_4SlobE+0x74>
   865e8:	f9400be0 	ldr	x0, [sp, #16]
   865ec:	b9400800 	ldr	w0, [x0, #8]
   865f0:	93407c00 	sxtw	x0, w0
   865f4:	91001000 	add	x0, x0, #0x4
   865f8:	d37df000 	lsl	x0, x0, #3
   865fc:	f9400fe1 	ldr	x1, [sp, #24]
   86600:	8b000020 	add	x0, x1, x0
   86604:	91002000 	add	x0, x0, #0x8
   86608:	f90017e0 	str	x0, [sp, #40]
   8660c:	f94017e0 	ldr	x0, [sp, #40]
   86610:	f9400000 	ldr	x0, [x0]
   86614:	f9400be1 	ldr	x1, [sp, #16]
   86618:	eb00003f 	cmp	x1, x0
   8661c:	54000121 	b.ne	86640 <_ZN8valkyrie6kernel13SlobAllocator13bin_del_entryEPNS1_4SlobE+0xac>  // b.any
   86620:	f94017e0 	ldr	x0, [sp, #40]
   86624:	f9400000 	ldr	x0, [x0]
   86628:	f9400001 	ldr	x1, [x0]
   8662c:	f94017e0 	ldr	x0, [sp, #40]
   86630:	f9000001 	str	x1, [x0]
   86634:	f9400be0 	ldr	x0, [sp, #16]
   86638:	f900001f 	str	xzr, [x0]
   8663c:	14000019 	b	866a0 <_ZN8valkyrie6kernel13SlobAllocator13bin_del_entryEPNS1_4SlobE+0x10c>
   86640:	f9001fff 	str	xzr, [sp, #56]
   86644:	f94017e0 	ldr	x0, [sp, #40]
   86648:	f9400000 	ldr	x0, [x0]
   8664c:	f9001be0 	str	x0, [sp, #48]
   86650:	f9401be0 	ldr	x0, [sp, #48]
   86654:	f100001f 	cmp	x0, #0x0
   86658:	54000240 	b.eq	866a0 <_ZN8valkyrie6kernel13SlobAllocator13bin_del_entryEPNS1_4SlobE+0x10c>  // b.none
   8665c:	f9401be1 	ldr	x1, [sp, #48]
   86660:	f9400be0 	ldr	x0, [sp, #16]
   86664:	eb00003f 	cmp	x1, x0
   86668:	54000101 	b.ne	86688 <_ZN8valkyrie6kernel13SlobAllocator13bin_del_entryEPNS1_4SlobE+0xf4>  // b.any
   8666c:	f9401be0 	ldr	x0, [sp, #48]
   86670:	f9400001 	ldr	x1, [x0]
   86674:	f9401fe0 	ldr	x0, [sp, #56]
   86678:	f9000001 	str	x1, [x0]
   8667c:	f9401be0 	ldr	x0, [sp, #48]
   86680:	f900001f 	str	xzr, [x0]
   86684:	14000007 	b	866a0 <_ZN8valkyrie6kernel13SlobAllocator13bin_del_entryEPNS1_4SlobE+0x10c>
   86688:	f9401be0 	ldr	x0, [sp, #48]
   8668c:	f9001fe0 	str	x0, [sp, #56]
   86690:	f9401be0 	ldr	x0, [sp, #48]
   86694:	f9400000 	ldr	x0, [x0]
   86698:	f9001be0 	str	x0, [sp, #48]
   8669c:	17ffffed 	b	86650 <_ZN8valkyrie6kernel13SlobAllocator13bin_del_entryEPNS1_4SlobE+0xbc>
   866a0:	a8c47bfd 	ldp	x29, x30, [sp], #64
   866a4:	d65f03c0 	ret

00000000000866a8 <_ZN8valkyrie6kernel13SlobAllocator13get_bin_indexEm>:
   866a8:	d10043ff 	sub	sp, sp, #0x10
   866ac:	f90007e0 	str	x0, [sp, #8]
   866b0:	f90003e1 	str	x1, [sp]
   866b4:	f94003e0 	ldr	x0, [sp]
   866b8:	d1004000 	sub	x0, x0, #0x10
   866bc:	d344fc00 	lsr	x0, x0, #4
   866c0:	910043ff 	add	sp, sp, #0x10
   866c4:	d65f03c0 	ret

00000000000866c8 <_ZN8valkyrie6kernel13SlobAllocator14normalize_sizeEm>:
   866c8:	a9bd7bfd 	stp	x29, x30, [sp, #-48]!
   866cc:	910003fd 	mov	x29, sp
   866d0:	f9000fe0 	str	x0, [sp, #24]
   866d4:	f9000be1 	str	x1, [sp, #16]
   866d8:	d2800200 	mov	x0, #0x10                  	// #16
   866dc:	f90017e0 	str	x0, [sp, #40]
   866e0:	9100a3e1 	add	x1, sp, #0x28
   866e4:	910043e0 	add	x0, sp, #0x10
   866e8:	94002578 	bl	8fcc8 <_ZN8valkyrie6kernel3maxImEERKT_S4_S4_>
   866ec:	f9400000 	ldr	x0, [x0]
   866f0:	97fff12f 	bl	82bac <_ZN8valkyrie6kernel26round_up_to_multiple_of_16Em>
   866f4:	a8c37bfd 	ldp	x29, x30, [sp], #48
   866f8:	d65f03c0 	ret

00000000000866fc <_ZNK8valkyrie6kernel13SlobAllocator4Slob14get_chunk_sizeEv>:
   866fc:	d10043ff 	sub	sp, sp, #0x10
   86700:	f90007e0 	str	x0, [sp, #8]
   86704:	f94007e0 	ldr	x0, [sp, #8]
   86708:	b9400800 	ldr	w0, [x0, #8]
   8670c:	531c6c00 	lsl	w0, w0, #4
   86710:	93407c00 	sxtw	x0, w0
   86714:	91004000 	add	x0, x0, #0x10
   86718:	910043ff 	add	sp, sp, #0x10
   8671c:	d65f03c0 	ret

0000000000086720 <_ZNK8valkyrie6kernel13SlobAllocator4Slob19get_prev_chunk_sizeEv>:
   86720:	d10043ff 	sub	sp, sp, #0x10
   86724:	f90007e0 	str	x0, [sp, #8]
   86728:	f94007e0 	ldr	x0, [sp, #8]
   8672c:	b9400c00 	ldr	w0, [x0, #12]
   86730:	121f7800 	and	w0, w0, #0xfffffffe
   86734:	910043ff 	add	sp, sp, #0x10
   86738:	d65f03c0 	ret

000000000008673c <_ZN8valkyrie6kernel13SlobAllocator4Slob19set_prev_chunk_sizeEi>:
   8673c:	a9bd7bfd 	stp	x29, x30, [sp, #-48]!
   86740:	910003fd 	mov	x29, sp
   86744:	f9000fe0 	str	x0, [sp, #24]
   86748:	b90017e1 	str	w1, [sp, #20]
   8674c:	f9400fe0 	ldr	x0, [sp, #24]
   86750:	9400000b 	bl	8677c <_ZNK8valkyrie6kernel13SlobAllocator4Slob12is_allocatedEv>
   86754:	3900bfe0 	strb	w0, [sp, #47]
   86758:	f9400fe0 	ldr	x0, [sp, #24]
   8675c:	b94017e1 	ldr	w1, [sp, #20]
   86760:	b9000c01 	str	w1, [x0, #12]
   86764:	3940bfe1 	ldrb	w1, [sp, #47]
   86768:	f9400fe0 	ldr	x0, [sp, #24]
   8676c:	9400000e 	bl	867a4 <_ZN8valkyrie6kernel13SlobAllocator4Slob13set_allocatedEb>
   86770:	d503201f 	nop
   86774:	a8c37bfd 	ldp	x29, x30, [sp], #48
   86778:	d65f03c0 	ret

000000000008677c <_ZNK8valkyrie6kernel13SlobAllocator4Slob12is_allocatedEv>:
   8677c:	d10043ff 	sub	sp, sp, #0x10
   86780:	f90007e0 	str	x0, [sp, #8]
   86784:	f94007e0 	ldr	x0, [sp, #8]
   86788:	b9400c00 	ldr	w0, [x0, #12]
   8678c:	12000000 	and	w0, w0, #0x1
   86790:	7100001f 	cmp	w0, #0x0
   86794:	1a9f07e0 	cset	w0, ne  // ne = any
   86798:	12001c00 	and	w0, w0, #0xff
   8679c:	910043ff 	add	sp, sp, #0x10
   867a0:	d65f03c0 	ret

00000000000867a4 <_ZN8valkyrie6kernel13SlobAllocator4Slob13set_allocatedEb>:
   867a4:	d10043ff 	sub	sp, sp, #0x10
   867a8:	f90007e0 	str	x0, [sp, #8]
   867ac:	39001fe1 	strb	w1, [sp, #7]
   867b0:	39401fe0 	ldrb	w0, [sp, #7]
   867b4:	7100001f 	cmp	w0, #0x0
   867b8:	540000e0 	b.eq	867d4 <_ZN8valkyrie6kernel13SlobAllocator4Slob13set_allocatedEb+0x30>  // b.none
   867bc:	f94007e0 	ldr	x0, [sp, #8]
   867c0:	b9400c00 	ldr	w0, [x0, #12]
   867c4:	32000001 	orr	w1, w0, #0x1
   867c8:	f94007e0 	ldr	x0, [sp, #8]
   867cc:	b9000c01 	str	w1, [x0, #12]
   867d0:	14000006 	b	867e8 <_ZN8valkyrie6kernel13SlobAllocator4Slob13set_allocatedEb+0x44>
   867d4:	f94007e0 	ldr	x0, [sp, #8]
   867d8:	b9400c00 	ldr	w0, [x0, #12]
   867dc:	121f7801 	and	w1, w0, #0xfffffffe
   867e0:	f94007e0 	ldr	x0, [sp, #8]
   867e4:	b9000c01 	str	w1, [x0, #12]
   867e8:	d503201f 	nop
   867ec:	910043ff 	add	sp, sp, #0x10
   867f0:	d65f03c0 	ret

00000000000867f4 <_ZN8valkyrie6kernel10start_initEv>:
   867f4:	a9be7bfd 	stp	x29, x30, [sp, #-32]!
   867f8:	910003fd 	mov	x29, sp
   867fc:	f0000000 	adrp	x0, 89000 <_ZN8valkyrie6kernel8FunctionIFvvEE12CallableImplIZNS0_16__run_unit_testsEvEUlvE_E4callEv+0x5e8>
   86800:	9121a000 	add	x0, x0, #0x868
   86804:	f9000be0 	str	x0, [sp, #16]
   86808:	f9000fff 	str	xzr, [sp, #24]
   8680c:	910043e0 	add	x0, sp, #0x10
   86810:	aa0003e1 	mov	x1, x0
   86814:	f0000000 	adrp	x0, 89000 <_ZN8valkyrie6kernel8FunctionIFvvEE12CallableImplIZNS0_16__run_unit_testsEvEUlvE_E4callEv+0x5e8>
   86818:	9121a000 	add	x0, x0, #0x868
   8681c:	94000047 	bl	86938 <_ZN8valkyrie6kernel8sys_execEPKcPKS2_>
   86820:	f0000000 	adrp	x0, 89000 <_ZN8valkyrie6kernel8FunctionIFvvEE12CallableImplIZNS0_16__run_unit_testsEvEUlvE_E4callEv+0x5e8>
   86824:	9121e000 	add	x0, x0, #0x878
   86828:	94001d5d 	bl	8dd9c <_ZN8valkyrie6kernel6Kernel5panicIJEEEvPKcDpOT_>

000000000008682c <_ZN8valkyrie6kernel13sys_uart_readEPcm>:
   8682c:	a9bc7bfd 	stp	x29, x30, [sp, #-64]!
   86830:	910003fd 	mov	x29, sp
   86834:	f9000bf3 	str	x19, [sp, #16]
   86838:	f90017e0 	str	x0, [sp, #40]
   8683c:	f90013e1 	str	x1, [sp, #32]
   86840:	f9001fff 	str	xzr, [sp, #56]
   86844:	f9401fe1 	ldr	x1, [sp, #56]
   86848:	f94013e0 	ldr	x0, [sp, #32]
   8684c:	eb00003f 	cmp	x1, x0
   86850:	540001c2 	b.cs	86888 <_ZN8valkyrie6kernel13sys_uart_readEPcm+0x5c>  // b.hs, b.nlast
   86854:	97fff18d 	bl	82e88 <_ZN8valkyrie6kernel8MiniUART12get_instanceEv>
   86858:	aa0003e2 	mov	x2, x0
   8685c:	f94017e1 	ldr	x1, [sp, #40]
   86860:	f9401fe0 	ldr	x0, [sp, #56]
   86864:	8b000033 	add	x19, x1, x0
   86868:	aa0203e0 	mov	x0, x2
   8686c:	97fff206 	bl	83084 <_ZN8valkyrie6kernel8MiniUART7getcharEv>
   86870:	12001c00 	and	w0, w0, #0xff
   86874:	39000260 	strb	w0, [x19]
   86878:	f9401fe0 	ldr	x0, [sp, #56]
   8687c:	91000400 	add	x0, x0, #0x1
   86880:	f9001fe0 	str	x0, [sp, #56]
   86884:	17fffff0 	b	86844 <_ZN8valkyrie6kernel13sys_uart_readEPcm+0x18>
   86888:	f94013e0 	ldr	x0, [sp, #32]
   8688c:	f9400bf3 	ldr	x19, [sp, #16]
   86890:	a8c47bfd 	ldp	x29, x30, [sp], #64
   86894:	d65f03c0 	ret

0000000000086898 <_ZN8valkyrie6kernel14sys_uart_writeEPKcm>:
   86898:	a9bd7bfd 	stp	x29, x30, [sp, #-48]!
   8689c:	910003fd 	mov	x29, sp
   868a0:	f9000fe0 	str	x0, [sp, #24]
   868a4:	f9000be1 	str	x1, [sp, #16]
   868a8:	f90017ff 	str	xzr, [sp, #40]
   868ac:	f94017e1 	ldr	x1, [sp, #40]
   868b0:	f9400be0 	ldr	x0, [sp, #16]
   868b4:	eb00003f 	cmp	x1, x0
   868b8:	540001c2 	b.cs	868f0 <_ZN8valkyrie6kernel14sys_uart_writeEPKcm+0x58>  // b.hs, b.nlast
   868bc:	97fff173 	bl	82e88 <_ZN8valkyrie6kernel8MiniUART12get_instanceEv>
   868c0:	aa0003e2 	mov	x2, x0
   868c4:	f9400fe1 	ldr	x1, [sp, #24]
   868c8:	f94017e0 	ldr	x0, [sp, #40]
   868cc:	8b000020 	add	x0, x1, x0
   868d0:	39400000 	ldrb	w0, [x0]
   868d4:	2a0003e1 	mov	w1, w0
   868d8:	aa0203e0 	mov	x0, x2
   868dc:	97fff204 	bl	830ec <_ZN8valkyrie6kernel8MiniUART7putcharEc>
   868e0:	f94017e0 	ldr	x0, [sp, #40]
   868e4:	91000400 	add	x0, x0, #0x1
   868e8:	f90017e0 	str	x0, [sp, #40]
   868ec:	17fffff0 	b	868ac <_ZN8valkyrie6kernel14sys_uart_writeEPKcm+0x14>
   868f0:	f9400be0 	ldr	x0, [sp, #16]
   868f4:	a8c37bfd 	ldp	x29, x30, [sp], #48
   868f8:	d65f03c0 	ret

00000000000868fc <_ZN8valkyrie6kernel16sys_uart_putcharEc>:
   868fc:	a9be7bfd 	stp	x29, x30, [sp, #-32]!
   86900:	910003fd 	mov	x29, sp
   86904:	39007fe0 	strb	w0, [sp, #31]
   86908:	97fff160 	bl	82e88 <_ZN8valkyrie6kernel8MiniUART12get_instanceEv>
   8690c:	39407fe1 	ldrb	w1, [sp, #31]
   86910:	97fff1f7 	bl	830ec <_ZN8valkyrie6kernel8MiniUART7putcharEc>
   86914:	d503201f 	nop
   86918:	a8c27bfd 	ldp	x29, x30, [sp], #32
   8691c:	d65f03c0 	ret

0000000000086920 <_ZN8valkyrie6kernel8sys_forkEv>:
   86920:	a9bf7bfd 	stp	x29, x30, [sp, #-16]!
   86924:	910003fd 	mov	x29, sp
   86928:	94000031 	bl	869ec <_ZN8valkyrie6kernel4Task11get_currentEv>
   8692c:	940000bf 	bl	86c28 <_ZN8valkyrie6kernel4Task4forkEv>
   86930:	a8c17bfd 	ldp	x29, x30, [sp], #16
   86934:	d65f03c0 	ret

0000000000086938 <_ZN8valkyrie6kernel8sys_execEPKcPKS2_>:
   86938:	a9be7bfd 	stp	x29, x30, [sp, #-32]!
   8693c:	910003fd 	mov	x29, sp
   86940:	f9000fe0 	str	x0, [sp, #24]
   86944:	f9000be1 	str	x1, [sp, #16]
   86948:	94000029 	bl	869ec <_ZN8valkyrie6kernel4Task11get_currentEv>
   8694c:	f9400be2 	ldr	x2, [sp, #16]
   86950:	f9400fe1 	ldr	x1, [sp, #24]
   86954:	940001b3 	bl	87020 <_ZN8valkyrie6kernel4Task4execEPKcPKS3_>
   86958:	a8c27bfd 	ldp	x29, x30, [sp], #32
   8695c:	d65f03c0 	ret

0000000000086960 <_ZN8valkyrie6kernel8sys_exitEv>:
   86960:	a9bf7bfd 	stp	x29, x30, [sp, #-16]!
   86964:	910003fd 	mov	x29, sp
   86968:	94000021 	bl	869ec <_ZN8valkyrie6kernel4Task11get_currentEv>
   8696c:	940002f6 	bl	87544 <_ZN8valkyrie6kernel4Task4exitEv>
   86970:	d503201f 	nop
   86974:	a8c17bfd 	ldp	x29, x30, [sp], #16
   86978:	d65f03c0 	ret

000000000008697c <_ZN8valkyrie6kernel10sys_getpidEv>:
   8697c:	a9bf7bfd 	stp	x29, x30, [sp, #-16]!
   86980:	910003fd 	mov	x29, sp
   86984:	9400001a 	bl	869ec <_ZN8valkyrie6kernel4Task11get_currentEv>
   86988:	940024ed 	bl	8fd3c <_ZNK8valkyrie6kernel4Task7get_pidEv>
   8698c:	a8c17bfd 	ldp	x29, x30, [sp], #16
   86990:	d65f03c0 	ret

0000000000086994 <_ZN8valkyrie6kernel20sys_timer_irq_enableEv>:
   86994:	a9bf7bfd 	stp	x29, x30, [sp, #-16]!
   86998:	910003fd 	mov	x29, sp
   8699c:	f0000000 	adrp	x0, 89000 <_ZN8valkyrie6kernel8FunctionIFvvEE12CallableImplIZNS0_16__run_unit_testsEvEUlvE_E4callEv+0x5e8>
   869a0:	91238000 	add	x0, x0, #0x8e0
   869a4:	94001d5d 	bl	8df18 <_Z6printkIJEEvPKcDpOT_>
   869a8:	9400056a 	bl	87f50 <_ZN8valkyrie6kernel16TimerMultiplexer12get_instanceEv>
   869ac:	940005f2 	bl	88174 <_ZN8valkyrie6kernel16TimerMultiplexer18get_arm_core_timerEv>
   869b0:	94000608 	bl	881d0 <_ZN8valkyrie6kernel12ARMCoreTimer6enableEv>
   869b4:	d503201f 	nop
   869b8:	a8c17bfd 	ldp	x29, x30, [sp], #16
   869bc:	d65f03c0 	ret

00000000000869c0 <_ZN8valkyrie6kernel21sys_timer_irq_disableEv>:
   869c0:	a9bf7bfd 	stp	x29, x30, [sp, #-16]!
   869c4:	910003fd 	mov	x29, sp
   869c8:	f0000000 	adrp	x0, 89000 <_ZN8valkyrie6kernel8FunctionIFvvEE12CallableImplIZNS0_16__run_unit_testsEvEUlvE_E4callEv+0x5e8>
   869cc:	91240000 	add	x0, x0, #0x900
   869d0:	94001d52 	bl	8df18 <_Z6printkIJEEvPKcDpOT_>
   869d4:	9400055f 	bl	87f50 <_ZN8valkyrie6kernel16TimerMultiplexer12get_instanceEv>
   869d8:	940005e7 	bl	88174 <_ZN8valkyrie6kernel16TimerMultiplexer18get_arm_core_timerEv>
   869dc:	94000616 	bl	88234 <_ZN8valkyrie6kernel12ARMCoreTimer7disableEv>
   869e0:	d503201f 	nop
   869e4:	a8c17bfd 	ldp	x29, x30, [sp], #16
   869e8:	d65f03c0 	ret

00000000000869ec <_ZN8valkyrie6kernel4Task11get_currentEv>:
   869ec:	d10043ff 	sub	sp, sp, #0x10
   869f0:	d538d080 	mrs	x0, tpidr_el1
   869f4:	f90007e0 	str	x0, [sp, #8]
   869f8:	f94007e0 	ldr	x0, [sp, #8]
   869fc:	910043ff 	add	sp, sp, #0x10
   86a00:	d65f03c0 	ret

0000000000086a04 <_ZN8valkyrie6kernel4Task11set_currentEPKS1_>:
   86a04:	d10043ff 	sub	sp, sp, #0x10
   86a08:	f90007e0 	str	x0, [sp, #8]
   86a0c:	f94007e0 	ldr	x0, [sp, #8]
   86a10:	d518d080 	msr	tpidr_el1, x0
   86a14:	d503201f 	nop
   86a18:	910043ff 	add	sp, sp, #0x10
   86a1c:	d65f03c0 	ret

0000000000086a20 <_ZN8valkyrie6kernel4TaskC1EPS1_PvPKc>:
   86a20:	a9bb7bfd 	stp	x29, x30, [sp, #-80]!
   86a24:	910003fd 	mov	x29, sp
   86a28:	f9000bf3 	str	x19, [sp, #16]
   86a2c:	f9001fe0 	str	x0, [sp, #56]
   86a30:	f9001be1 	str	x1, [sp, #48]
   86a34:	f90017e2 	str	x2, [sp, #40]
   86a38:	f90013e3 	str	x3, [sp, #32]
   86a3c:	f9401fe0 	ldr	x0, [sp, #56]
   86a40:	f900001f 	str	xzr, [x0]
   86a44:	f9401fe0 	ldr	x0, [sp, #56]
   86a48:	f900041f 	str	xzr, [x0, #8]
   86a4c:	f9401fe0 	ldr	x0, [sp, #56]
   86a50:	f900081f 	str	xzr, [x0, #16]
   86a54:	f9401fe0 	ldr	x0, [sp, #56]
   86a58:	f9000c1f 	str	xzr, [x0, #24]
   86a5c:	f9401fe0 	ldr	x0, [sp, #56]
   86a60:	f900101f 	str	xzr, [x0, #32]
   86a64:	f9401fe0 	ldr	x0, [sp, #56]
   86a68:	f900141f 	str	xzr, [x0, #40]
   86a6c:	f9401fe0 	ldr	x0, [sp, #56]
   86a70:	f900181f 	str	xzr, [x0, #48]
   86a74:	f9401fe0 	ldr	x0, [sp, #56]
   86a78:	f9001c1f 	str	xzr, [x0, #56]
   86a7c:	f9401fe0 	ldr	x0, [sp, #56]
   86a80:	f900201f 	str	xzr, [x0, #64]
   86a84:	f9401fe0 	ldr	x0, [sp, #56]
   86a88:	f900241f 	str	xzr, [x0, #72]
   86a8c:	f9401fe0 	ldr	x0, [sp, #56]
   86a90:	f900281f 	str	xzr, [x0, #80]
   86a94:	f9401fe0 	ldr	x0, [sp, #56]
   86a98:	f9002c1f 	str	xzr, [x0, #88]
   86a9c:	f9401fe0 	ldr	x0, [sp, #56]
   86aa0:	f900301f 	str	xzr, [x0, #96]
   86aa4:	f9401fe0 	ldr	x0, [sp, #56]
   86aa8:	f9401be1 	ldr	x1, [sp, #48]
   86aac:	f9003401 	str	x1, [x0, #104]
   86ab0:	f9401fe0 	ldr	x0, [sp, #56]
   86ab4:	b900701f 	str	wzr, [x0, #112]
   86ab8:	90000060 	adrp	x0, 92000 <_Z6printkIJPKN8valkyrie6kernel8FunctionIFvvEEEEEvPKcDpOT_+0x18>
   86abc:	913cc000 	add	x0, x0, #0xf30
   86ac0:	b9400000 	ldr	w0, [x0]
   86ac4:	11000402 	add	w2, w0, #0x1
   86ac8:	90000061 	adrp	x1, 92000 <_Z6printkIJPKN8valkyrie6kernel8FunctionIFvvEEEEEvPKcDpOT_+0x18>
   86acc:	913cc021 	add	x1, x1, #0xf30
   86ad0:	b9000022 	str	w2, [x1]
   86ad4:	f9401fe1 	ldr	x1, [sp, #56]
   86ad8:	b9007420 	str	w0, [x1, #116]
   86adc:	f9401fe0 	ldr	x0, [sp, #56]
   86ae0:	52800061 	mov	w1, #0x3                   	// #3
   86ae4:	b9007801 	str	w1, [x0, #120]
   86ae8:	f9401fe0 	ldr	x0, [sp, #56]
   86aec:	f94017e1 	ldr	x1, [sp, #40]
   86af0:	f9004001 	str	x1, [x0, #128]
   86af4:	940024b6 	bl	8fdcc <get_free_page>
   86af8:	aa0003e1 	mov	x1, x0
   86afc:	f9401fe0 	ldr	x0, [sp, #56]
   86b00:	f9004401 	str	x1, [x0, #136]
   86b04:	940024b2 	bl	8fdcc <get_free_page>
   86b08:	aa0003e1 	mov	x1, x0
   86b0c:	f9401fe0 	ldr	x0, [sp, #56]
   86b10:	f9004801 	str	x1, [x0, #144]
   86b14:	f9401fe0 	ldr	x0, [sp, #56]
   86b18:	91028001 	add	x1, x0, #0xa0
   86b1c:	d28001e0 	mov	x0, #0xf                   	// #15
   86b20:	f100001f 	cmp	x0, #0x0
   86b24:	540000ab 	b.lt	86b38 <_ZN8valkyrie6kernel4TaskC1EPS1_PvPKc+0x118>  // b.tstop
   86b28:	3900003f 	strb	wzr, [x1]
   86b2c:	91000421 	add	x1, x1, #0x1
   86b30:	d1000400 	sub	x0, x0, #0x1
   86b34:	17fffffb 	b	86b20 <_ZN8valkyrie6kernel4TaskC1EPS1_PvPKc+0x100>
   86b38:	f94017e1 	ldr	x1, [sp, #40]
   86b3c:	f9401fe0 	ldr	x0, [sp, #56]
   86b40:	f9002c01 	str	x1, [x0, #88]
   86b44:	f9401fe0 	ldr	x0, [sp, #56]
   86b48:	f9404400 	ldr	x0, [x0, #136]
   86b4c:	aa0003f3 	mov	x19, x0
   86b50:	97fff4d5 	bl	83ea4 <_ZN8valkyrie6kernel18PageFrameAllocator21get_block_header_sizeEv>
   86b54:	cb000260 	sub	x0, x19, x0
   86b58:	91400401 	add	x1, x0, #0x1, lsl #12
   86b5c:	f9401fe0 	ldr	x0, [sp, #56]
   86b60:	f9003001 	str	x1, [x0, #96]
   86b64:	f9401fe0 	ldr	x0, [sp, #56]
   86b68:	91028000 	add	x0, x0, #0xa0
   86b6c:	f94013e1 	ldr	x1, [sp, #32]
   86b70:	97ffe780 	bl	80970 <strcpy>
   86b74:	f9401fe0 	ldr	x0, [sp, #56]
   86b78:	f90027e0 	str	x0, [sp, #72]
   86b7c:	f9401fe0 	ldr	x0, [sp, #56]
   86b80:	91028001 	add	x1, x0, #0xa0
   86b84:	f9401fe0 	ldr	x0, [sp, #56]
   86b88:	9101d002 	add	x2, x0, #0x74
   86b8c:	f9401fe0 	ldr	x0, [sp, #56]
   86b90:	91020003 	add	x3, x0, #0x80
   86b94:	910123e0 	add	x0, sp, #0x48
   86b98:	aa0303e4 	mov	x4, x3
   86b9c:	aa0203e3 	mov	x3, x2
   86ba0:	aa0103e2 	mov	x2, x1
   86ba4:	aa0003e1 	mov	x1, x0
   86ba8:	f0000000 	adrp	x0, 89000 <_ZN8valkyrie6kernel8FunctionIFvvEE12CallableImplIZNS0_16__run_unit_testsEvEUlvE_E4callEv+0x5e8>
   86bac:	9124c000 	add	x0, x0, #0x930
   86bb0:	94002492 	bl	8fdf8 <_Z6printkIJPN8valkyrie6kernel4TaskERA16_cRjRPvEEvPKcDpOT_>
   86bb4:	d503201f 	nop
   86bb8:	f9400bf3 	ldr	x19, [sp, #16]
   86bbc:	a8c57bfd 	ldp	x29, x30, [sp], #80
   86bc0:	d65f03c0 	ret

0000000000086bc4 <_ZN8valkyrie6kernel4TaskD1Ev>:
   86bc4:	a9bd7bfd 	stp	x29, x30, [sp, #-48]!
   86bc8:	910003fd 	mov	x29, sp
   86bcc:	f9000fe0 	str	x0, [sp, #24]
   86bd0:	f9400fe0 	ldr	x0, [sp, #24]
   86bd4:	f90017e0 	str	x0, [sp, #40]
   86bd8:	f9400fe0 	ldr	x0, [sp, #24]
   86bdc:	91028001 	add	x1, x0, #0xa0
   86be0:	f9400fe0 	ldr	x0, [sp, #24]
   86be4:	9101d002 	add	x2, x0, #0x74
   86be8:	9100a3e0 	add	x0, sp, #0x28
   86bec:	aa0203e3 	mov	x3, x2
   86bf0:	aa0103e2 	mov	x2, x1
   86bf4:	aa0003e1 	mov	x1, x0
   86bf8:	f0000000 	adrp	x0, 89000 <_ZN8valkyrie6kernel8FunctionIFvvEE12CallableImplIZNS0_16__run_unit_testsEvEUlvE_E4callEv+0x5e8>
   86bfc:	9125a000 	add	x0, x0, #0x968
   86c00:	940024bd 	bl	8fef4 <_Z6printkIJPN8valkyrie6kernel4TaskERA16_cRjEEvPKcDpOT_>
   86c04:	f9400fe0 	ldr	x0, [sp, #24]
   86c08:	f9404400 	ldr	x0, [x0, #136]
   86c0c:	94002111 	bl	8f050 <kfree>
   86c10:	f9400fe0 	ldr	x0, [sp, #24]
   86c14:	f9404800 	ldr	x0, [x0, #144]
   86c18:	9400210e 	bl	8f050 <kfree>
   86c1c:	d503201f 	nop
   86c20:	a8c37bfd 	ldp	x29, x30, [sp], #48
   86c24:	d65f03c0 	ret

0000000000086c28 <_ZN8valkyrie6kernel4Task4forkEv>:
   86c28:	a9b67bfd 	stp	x29, x30, [sp, #-160]!
   86c2c:	910003fd 	mov	x29, sp
   86c30:	a90153f3 	stp	x19, x20, [sp, #16]
   86c34:	f90017e0 	str	x0, [sp, #40]
   86c38:	f9002bff 	str	xzr, [sp, #80]
   86c3c:	d5384100 	mrs	x0, sp_el0
   86c40:	f90027e0 	str	x0, [sp, #72]
   86c44:	f94027e0 	ldr	x0, [sp, #72]
   86c48:	f94017e1 	ldr	x1, [sp, #40]
   86c4c:	f9404821 	ldr	x1, [x1, #144]
   86c50:	cb010000 	sub	x0, x0, x1
   86c54:	f9004fe0 	str	x0, [sp, #152]
   86c58:	f94017e0 	ldr	x0, [sp, #40]
   86c5c:	f9404c00 	ldr	x0, [x0, #152]
   86c60:	aa0003e1 	mov	x1, x0
   86c64:	f94017e0 	ldr	x0, [sp, #40]
   86c68:	f9404400 	ldr	x0, [x0, #136]
   86c6c:	cb000020 	sub	x0, x1, x0
   86c70:	f9004be0 	str	x0, [sp, #144]
   86c74:	f0000000 	adrp	x0, 89000 <_ZN8valkyrie6kernel8FunctionIFvvEE12CallableImplIZNS0_16__run_unit_testsEvEUlvE_E4callEv+0x5e8>
   86c78:	91266000 	add	x0, x0, #0x998
   86c7c:	94001ca7 	bl	8df18 <_Z6printkIJEEvPKcDpOT_>
   86c80:	94002435 	bl	8fd54 <_ZN8valkyrie6kernel4Task12save_contextEv>
   86c84:	f0000000 	adrp	x0, 89000 <_ZN8valkyrie6kernel8FunctionIFvvEE12CallableImplIZNS0_16__run_unit_testsEvEUlvE_E4callEv+0x5e8>
   86c88:	91270000 	add	x0, x0, #0x9c0
   86c8c:	94001ca3 	bl	8df18 <_Z6printkIJEEvPKcDpOT_>
   86c90:	f94017e0 	ldr	x0, [sp, #40]
   86c94:	f9002fe0 	str	x0, [sp, #88]
   86c98:	f94017e0 	ldr	x0, [sp, #40]
   86c9c:	91020001 	add	x1, x0, #0x80
   86ca0:	f94017e0 	ldr	x0, [sp, #40]
   86ca4:	91028002 	add	x2, x0, #0xa0
   86ca8:	910163e0 	add	x0, sp, #0x58
   86cac:	910103e3 	add	x3, sp, #0x40
   86cb0:	aa0303e8 	mov	x8, x3
   86cb4:	940024d2 	bl	8fffc <_ZN8valkyrie6kernel11make_uniqueINS0_4TaskEJPS2_RPvRA16_cEEENS0_9_UniqueIfIT_E13_SingleObjectEDpOT0_>
   86cb8:	f94017f3 	ldr	x19, [sp, #40]
   86cbc:	910103e0 	add	x0, sp, #0x40
   86cc0:	940024fb 	bl	900ac <_ZNK8valkyrie6kernel9UniquePtrINS0_4TaskEEptEv>
   86cc4:	f9003413 	str	x19, [x0, #104]
   86cc8:	910103e0 	add	x0, sp, #0x40
   86ccc:	940024f8 	bl	900ac <_ZNK8valkyrie6kernel9UniquePtrINS0_4TaskEEptEv>
   86cd0:	f9404400 	ldr	x0, [x0, #136]
   86cd4:	aa0003e1 	mov	x1, x0
   86cd8:	f9404be0 	ldr	x0, [sp, #144]
   86cdc:	8b010000 	add	x0, x0, x1
   86ce0:	f90047e0 	str	x0, [sp, #136]
   86ce4:	f94047f3 	ldr	x19, [sp, #136]
   86ce8:	910103e0 	add	x0, sp, #0x40
   86cec:	940024f0 	bl	900ac <_ZNK8valkyrie6kernel9UniquePtrINS0_4TaskEEptEv>
   86cf0:	f9004c13 	str	x19, [x0, #152]
   86cf4:	910103e0 	add	x0, sp, #0x40
   86cf8:	940024ed 	bl	900ac <_ZNK8valkyrie6kernel9UniquePtrINS0_4TaskEEptEv>
   86cfc:	91026000 	add	x0, x0, #0x98
   86d00:	aa0003e1 	mov	x1, x0
   86d04:	f0000000 	adrp	x0, 89000 <_ZN8valkyrie6kernel8FunctionIFvvEE12CallableImplIZNS0_16__run_unit_testsEvEUlvE_E4callEv+0x5e8>
   86d08:	91278000 	add	x0, x0, #0x9e0
   86d0c:	940024ef 	bl	900c8 <_Z6printkIJRPN8valkyrie6kernel9TrapFrameEEEvPKcDpOT_>
   86d10:	910103e0 	add	x0, sp, #0x40
   86d14:	940024e6 	bl	900ac <_ZNK8valkyrie6kernel9UniquePtrINS0_4TaskEEptEv>
   86d18:	91022013 	add	x19, x0, #0x88
   86d1c:	f94017e0 	ldr	x0, [sp, #40]
   86d20:	91022014 	add	x20, x0, #0x88
   86d24:	97fff460 	bl	83ea4 <_ZN8valkyrie6kernel18PageFrameAllocator21get_block_header_sizeEv>
   86d28:	aa0003e1 	mov	x1, x0
   86d2c:	d2820000 	mov	x0, #0x1000                	// #4096
   86d30:	cb010000 	sub	x0, x0, x1
   86d34:	f90033e0 	str	x0, [sp, #96]
   86d38:	910183e0 	add	x0, sp, #0x60
   86d3c:	aa0003e3 	mov	x3, x0
   86d40:	aa1403e2 	mov	x2, x20
   86d44:	aa1303e1 	mov	x1, x19
   86d48:	f0000000 	adrp	x0, 89000 <_ZN8valkyrie6kernel8FunctionIFvvEE12CallableImplIZNS0_16__run_unit_testsEvEUlvE_E4callEv+0x5e8>
   86d4c:	91280000 	add	x0, x0, #0xa00
   86d50:	94002517 	bl	901ac <_Z6printkIJRPvS1_mEEvPKcDpOT_>
   86d54:	910103e0 	add	x0, sp, #0x40
   86d58:	940024d5 	bl	900ac <_ZNK8valkyrie6kernel9UniquePtrINS0_4TaskEEptEv>
   86d5c:	f9404413 	ldr	x19, [x0, #136]
   86d60:	f94017e0 	ldr	x0, [sp, #40]
   86d64:	f9404414 	ldr	x20, [x0, #136]
   86d68:	97fff44f 	bl	83ea4 <_ZN8valkyrie6kernel18PageFrameAllocator21get_block_header_sizeEv>
   86d6c:	aa0003e1 	mov	x1, x0
   86d70:	d2820000 	mov	x0, #0x1000                	// #4096
   86d74:	cb010000 	sub	x0, x0, x1
   86d78:	aa0003e2 	mov	x2, x0
   86d7c:	aa1403e1 	mov	x1, x20
   86d80:	aa1303e0 	mov	x0, x19
   86d84:	97ffe63e 	bl	8067c <memcpy>
   86d88:	910103e0 	add	x0, sp, #0x40
   86d8c:	940024c8 	bl	900ac <_ZNK8valkyrie6kernel9UniquePtrINS0_4TaskEEptEv>
   86d90:	91024013 	add	x19, x0, #0x90
   86d94:	f94017e0 	ldr	x0, [sp, #40]
   86d98:	91024014 	add	x20, x0, #0x90
   86d9c:	97fff442 	bl	83ea4 <_ZN8valkyrie6kernel18PageFrameAllocator21get_block_header_sizeEv>
   86da0:	aa0003e1 	mov	x1, x0
   86da4:	d2820000 	mov	x0, #0x1000                	// #4096
   86da8:	cb010000 	sub	x0, x0, x1
   86dac:	f90037e0 	str	x0, [sp, #104]
   86db0:	9101a3e0 	add	x0, sp, #0x68
   86db4:	aa0003e3 	mov	x3, x0
   86db8:	aa1403e2 	mov	x2, x20
   86dbc:	aa1303e1 	mov	x1, x19
   86dc0:	f0000000 	adrp	x0, 89000 <_ZN8valkyrie6kernel8FunctionIFvvEE12CallableImplIZNS0_16__run_unit_testsEvEUlvE_E4callEv+0x5e8>
   86dc4:	9128e000 	add	x0, x0, #0xa38
   86dc8:	940024f9 	bl	901ac <_Z6printkIJRPvS1_mEEvPKcDpOT_>
   86dcc:	910103e0 	add	x0, sp, #0x40
   86dd0:	940024b7 	bl	900ac <_ZNK8valkyrie6kernel9UniquePtrINS0_4TaskEEptEv>
   86dd4:	f9404813 	ldr	x19, [x0, #144]
   86dd8:	f94017e0 	ldr	x0, [sp, #40]
   86ddc:	f9404814 	ldr	x20, [x0, #144]
   86de0:	97fff431 	bl	83ea4 <_ZN8valkyrie6kernel18PageFrameAllocator21get_block_header_sizeEv>
   86de4:	aa0003e1 	mov	x1, x0
   86de8:	d2820000 	mov	x0, #0x1000                	// #4096
   86dec:	cb010000 	sub	x0, x0, x1
   86df0:	aa0003e2 	mov	x2, x0
   86df4:	aa1403e1 	mov	x1, x20
   86df8:	aa1303e0 	mov	x0, x19
   86dfc:	97ffe620 	bl	8067c <memcpy>
   86e00:	910103e0 	add	x0, sp, #0x40
   86e04:	940024aa 	bl	900ac <_ZNK8valkyrie6kernel9UniquePtrINS0_4TaskEEptEv>
   86e08:	b9407400 	ldr	w0, [x0, #116]
   86e0c:	2a0003e0 	mov	w0, w0
   86e10:	f9002be0 	str	x0, [sp, #80]
   86e14:	910103e0 	add	x0, sp, #0x40
   86e18:	940024a5 	bl	900ac <_ZNK8valkyrie6kernel9UniquePtrINS0_4TaskEEptEv>
   86e1c:	f9404400 	ldr	x0, [x0, #136]
   86e20:	aa0003e1 	mov	x1, x0
   86e24:	f94017e0 	ldr	x0, [sp, #40]
   86e28:	f9403000 	ldr	x0, [x0, #96]
   86e2c:	8b000020 	add	x0, x1, x0
   86e30:	f94017e1 	ldr	x1, [sp, #40]
   86e34:	f9404421 	ldr	x1, [x1, #136]
   86e38:	cb010000 	sub	x0, x0, x1
   86e3c:	f90043e0 	str	x0, [sp, #128]
   86e40:	f94017e0 	ldr	x0, [sp, #40]
   86e44:	f9400013 	ldr	x19, [x0]
   86e48:	910103e0 	add	x0, sp, #0x40
   86e4c:	94002498 	bl	900ac <_ZNK8valkyrie6kernel9UniquePtrINS0_4TaskEEptEv>
   86e50:	f9000013 	str	x19, [x0]
   86e54:	f94017e0 	ldr	x0, [sp, #40]
   86e58:	f9400413 	ldr	x19, [x0, #8]
   86e5c:	910103e0 	add	x0, sp, #0x40
   86e60:	94002493 	bl	900ac <_ZNK8valkyrie6kernel9UniquePtrINS0_4TaskEEptEv>
   86e64:	f9000413 	str	x19, [x0, #8]
   86e68:	f94017e0 	ldr	x0, [sp, #40]
   86e6c:	f9400813 	ldr	x19, [x0, #16]
   86e70:	910103e0 	add	x0, sp, #0x40
   86e74:	9400248e 	bl	900ac <_ZNK8valkyrie6kernel9UniquePtrINS0_4TaskEEptEv>
   86e78:	f9000813 	str	x19, [x0, #16]
   86e7c:	f94017e0 	ldr	x0, [sp, #40]
   86e80:	f9400c13 	ldr	x19, [x0, #24]
   86e84:	910103e0 	add	x0, sp, #0x40
   86e88:	94002489 	bl	900ac <_ZNK8valkyrie6kernel9UniquePtrINS0_4TaskEEptEv>
   86e8c:	f9000c13 	str	x19, [x0, #24]
   86e90:	f94017e0 	ldr	x0, [sp, #40]
   86e94:	f9401013 	ldr	x19, [x0, #32]
   86e98:	910103e0 	add	x0, sp, #0x40
   86e9c:	94002484 	bl	900ac <_ZNK8valkyrie6kernel9UniquePtrINS0_4TaskEEptEv>
   86ea0:	f9001013 	str	x19, [x0, #32]
   86ea4:	f94017e0 	ldr	x0, [sp, #40]
   86ea8:	f9401413 	ldr	x19, [x0, #40]
   86eac:	910103e0 	add	x0, sp, #0x40
   86eb0:	9400247f 	bl	900ac <_ZNK8valkyrie6kernel9UniquePtrINS0_4TaskEEptEv>
   86eb4:	f9001413 	str	x19, [x0, #40]
   86eb8:	f94017e0 	ldr	x0, [sp, #40]
   86ebc:	f9401813 	ldr	x19, [x0, #48]
   86ec0:	910103e0 	add	x0, sp, #0x40
   86ec4:	9400247a 	bl	900ac <_ZNK8valkyrie6kernel9UniquePtrINS0_4TaskEEptEv>
   86ec8:	f9001813 	str	x19, [x0, #48]
   86ecc:	f94017e0 	ldr	x0, [sp, #40]
   86ed0:	f9401c13 	ldr	x19, [x0, #56]
   86ed4:	910103e0 	add	x0, sp, #0x40
   86ed8:	94002475 	bl	900ac <_ZNK8valkyrie6kernel9UniquePtrINS0_4TaskEEptEv>
   86edc:	f9001c13 	str	x19, [x0, #56]
   86ee0:	f94017e0 	ldr	x0, [sp, #40]
   86ee4:	f9402013 	ldr	x19, [x0, #64]
   86ee8:	910103e0 	add	x0, sp, #0x40
   86eec:	94002470 	bl	900ac <_ZNK8valkyrie6kernel9UniquePtrINS0_4TaskEEptEv>
   86ef0:	f9002013 	str	x19, [x0, #64]
   86ef4:	f94017e0 	ldr	x0, [sp, #40]
   86ef8:	f9402413 	ldr	x19, [x0, #72]
   86efc:	910103e0 	add	x0, sp, #0x40
   86f00:	9400246b 	bl	900ac <_ZNK8valkyrie6kernel9UniquePtrINS0_4TaskEEptEv>
   86f04:	f9002413 	str	x19, [x0, #72]
   86f08:	f94017e0 	ldr	x0, [sp, #40]
   86f0c:	f9402813 	ldr	x19, [x0, #80]
   86f10:	910103e0 	add	x0, sp, #0x40
   86f14:	94002466 	bl	900ac <_ZNK8valkyrie6kernel9UniquePtrINS0_4TaskEEptEv>
   86f18:	f9002813 	str	x19, [x0, #80]
   86f1c:	910103e0 	add	x0, sp, #0x40
   86f20:	94002463 	bl	900ac <_ZNK8valkyrie6kernel9UniquePtrINS0_4TaskEEptEv>
   86f24:	aa0003e1 	mov	x1, x0
   86f28:	90000000 	adrp	x0, 86000 <_ZNK8valkyrie6kernel13SlobAllocator14dump_slob_infoEv+0x1c8>
   86f2c:	913e0000 	add	x0, x0, #0xf80
   86f30:	f9002c20 	str	x0, [x1, #88]
   86f34:	f94043f3 	ldr	x19, [sp, #128]
   86f38:	910103e0 	add	x0, sp, #0x40
   86f3c:	9400245c 	bl	900ac <_ZNK8valkyrie6kernel9UniquePtrINS0_4TaskEEptEv>
   86f40:	f9003013 	str	x19, [x0, #96]
   86f44:	94000193 	bl	87590 <_ZN8valkyrie6kernel13TaskScheduler12get_instanceEv>
   86f48:	aa0003f3 	mov	x19, x0
   86f4c:	910103e0 	add	x0, sp, #0x40
   86f50:	940024d4 	bl	902a0 <_ZN8valkyrie6kernel4moveIRNS0_9UniquePtrINS0_4TaskEEEEEONS0_16_RemoveReferenceIT_E4TypeEOS7_>
   86f54:	aa0003e1 	mov	x1, x0
   86f58:	9101c3e0 	add	x0, sp, #0x70
   86f5c:	940024d6 	bl	902b4 <_ZN8valkyrie6kernel9UniquePtrINS0_4TaskEEC1EOS3_>
   86f60:	9101c3e0 	add	x0, sp, #0x70
   86f64:	aa0003e1 	mov	x1, x0
   86f68:	aa1303e0 	mov	x0, x19
   86f6c:	940001de 	bl	876e4 <_ZN8valkyrie6kernel13TaskScheduler12enqueue_taskENS0_9UniquePtrINS0_4TaskEEE>
   86f70:	9101c3e0 	add	x0, sp, #0x70
   86f74:	94002445 	bl	90088 <_ZN8valkyrie6kernel9UniquePtrINS0_4TaskEED1Ev>
   86f78:	910103e0 	add	x0, sp, #0x40
   86f7c:	94002443 	bl	90088 <_ZN8valkyrie6kernel9UniquePtrINS0_4TaskEED1Ev>
   86f80:	f9402be0 	ldr	x0, [sp, #80]
   86f84:	f100001f 	cmp	x0, #0x0
   86f88:	540003a1 	b.ne	86ffc <_ZN8valkyrie6kernel4Task4forkEv+0x3d4>  // b.any
   86f8c:	97fffe98 	bl	869ec <_ZN8valkyrie6kernel4Task11get_currentEv>
   86f90:	f9003fe0 	str	x0, [sp, #120]
   86f94:	f9403fe0 	ldr	x0, [sp, #120]
   86f98:	f9404800 	ldr	x0, [x0, #144]
   86f9c:	aa0003e1 	mov	x1, x0
   86fa0:	f9404fe0 	ldr	x0, [sp, #152]
   86fa4:	8b000020 	add	x0, x1, x0
   86fa8:	f9001fe0 	str	x0, [sp, #56]
   86fac:	910123e0 	add	x0, sp, #0x48
   86fb0:	aa0003e1 	mov	x1, x0
   86fb4:	f0000000 	adrp	x0, 89000 <_ZN8valkyrie6kernel8FunctionIFvvEE12CallableImplIZNS0_16__run_unit_testsEvEUlvE_E4callEv+0x5e8>
   86fb8:	9129c000 	add	x0, x0, #0xa70
   86fbc:	94002058 	bl	8f11c <_Z6printkIJRmEEvPKcDpOT_>
   86fc0:	f9403fe0 	ldr	x0, [sp, #120]
   86fc4:	91024000 	add	x0, x0, #0x90
   86fc8:	9100e3e1 	add	x1, sp, #0x38
   86fcc:	aa0103e2 	mov	x2, x1
   86fd0:	aa0003e1 	mov	x1, x0
   86fd4:	f0000000 	adrp	x0, 89000 <_ZN8valkyrie6kernel8FunctionIFvvEE12CallableImplIZNS0_16__run_unit_testsEvEUlvE_E4callEv+0x5e8>
   86fd8:	912a2000 	add	x0, x0, #0xa88
   86fdc:	940024c2 	bl	902e4 <_Z6printkIJRPvRmEEvPKcDpOT_>
   86fe0:	9100e3e0 	add	x0, sp, #0x38
   86fe4:	aa0003e1 	mov	x1, x0
   86fe8:	f0000000 	adrp	x0, 89000 <_ZN8valkyrie6kernel8FunctionIFvvEE12CallableImplIZNS0_16__run_unit_testsEvEUlvE_E4callEv+0x5e8>
   86fec:	912ac000 	add	x0, x0, #0xab0
   86ff0:	9400204b 	bl	8f11c <_Z6printkIJRmEEvPKcDpOT_>
   86ff4:	f9401fe0 	ldr	x0, [sp, #56]
   86ff8:	d5184100 	msr	sp_el0, x0
   86ffc:	910143e0 	add	x0, sp, #0x50
   87000:	aa0003e1 	mov	x1, x0
   87004:	d0000000 	adrp	x0, 89000 <_ZN8valkyrie6kernel8FunctionIFvvEE12CallableImplIZNS0_16__run_unit_testsEvEUlvE_E4callEv+0x5e8>
   87008:	912b4000 	add	x0, x0, #0xad0
   8700c:	94002044 	bl	8f11c <_Z6printkIJRmEEvPKcDpOT_>
   87010:	f9402be0 	ldr	x0, [sp, #80]
   87014:	a94153f3 	ldp	x19, x20, [sp, #16]
   87018:	a8ca7bfd 	ldp	x29, x30, [sp], #160
   8701c:	d65f03c0 	ret

0000000000087020 <_ZN8valkyrie6kernel4Task4execEPKcPKS3_>:
   87020:	a9aa7bfd 	stp	x29, x30, [sp, #-352]!
   87024:	910003fd 	mov	x29, sp
   87028:	a90153f3 	stp	x19, x20, [sp, #16]
   8702c:	a9025bf5 	stp	x21, x22, [sp, #32]
   87030:	a90363f7 	stp	x23, x24, [sp, #48]
   87034:	a9046bf9 	stp	x25, x26, [sp, #64]
   87038:	a90573fb 	stp	x27, x28, [sp, #80]
   8703c:	f9005fa0 	str	x0, [x29, #184]
   87040:	f9005ba1 	str	x1, [x29, #176]
   87044:	f90057a2 	str	x2, [x29, #168]
   87048:	910003e0 	mov	x0, sp
   8704c:	aa0003fc 	mov	x28, x0
   87050:	f9405fa0 	ldr	x0, [x29, #184]
   87054:	f9404400 	ldr	x0, [x0, #136]
   87058:	aa0003f3 	mov	x19, x0
   8705c:	97fff392 	bl	83ea4 <_ZN8valkyrie6kernel18PageFrameAllocator21get_block_header_sizeEv>
   87060:	cb000260 	sub	x0, x19, x0
   87064:	91400400 	add	x0, x0, #0x1, lsl #12
   87068:	f9009ba0 	str	x0, [x29, #304]
   8706c:	f9405fa0 	ldr	x0, [x29, #184]
   87070:	f9404800 	ldr	x0, [x0, #144]
   87074:	aa0003f3 	mov	x19, x0
   87078:	97fff38b 	bl	83ea4 <_ZN8valkyrie6kernel18PageFrameAllocator21get_block_header_sizeEv>
   8707c:	cb000260 	sub	x0, x19, x0
   87080:	91400400 	add	x0, x0, #0x1, lsl #12
   87084:	f9009fa0 	str	x0, [x29, #312]
   87088:	b90147bf 	str	wzr, [x29, #324]
   8708c:	f94057a0 	ldr	x0, [x29, #168]
   87090:	f9400000 	ldr	x0, [x0]
   87094:	f900a7a0 	str	x0, [x29, #328]
   87098:	f940a7a0 	ldr	x0, [x29, #328]
   8709c:	f100001f 	cmp	x0, #0x0
   870a0:	54000160 	b.eq	870cc <_ZN8valkyrie6kernel4Task4execEPKcPKS3_+0xac>  // b.none
   870a4:	f94057a1 	ldr	x1, [x29, #168]
   870a8:	b94147a0 	ldr	w0, [x29, #324]
   870ac:	11000400 	add	w0, w0, #0x1
   870b0:	b90147a0 	str	w0, [x29, #324]
   870b4:	b98147a0 	ldrsw	x0, [x29, #324]
   870b8:	d37df000 	lsl	x0, x0, #3
   870bc:	8b000020 	add	x0, x1, x0
   870c0:	f9400000 	ldr	x0, [x0]
   870c4:	f900a7a0 	str	x0, [x29, #328]
   870c8:	17fffff4 	b	87098 <_ZN8valkyrie6kernel4Task4execEPKcPKS3_+0x78>
   870cc:	b98147a0 	ldrsw	x0, [x29, #324]
   870d0:	d1000413 	sub	x19, x0, #0x1
   870d4:	f90097b3 	str	x19, [x29, #296]
   870d8:	aa1303e0 	mov	x0, x19
   870dc:	91000400 	add	x0, x0, #0x1
   870e0:	f9004ba0 	str	x0, [x29, #144]
   870e4:	f9004fbf 	str	xzr, [x29, #152]
   870e8:	a9490fa2 	ldp	x2, x3, [x29, #144]
   870ec:	aa0203e0 	mov	x0, x2
   870f0:	d37afc00 	lsr	x0, x0, #58
   870f4:	aa0303e1 	mov	x1, x3
   870f8:	d37ae43b 	lsl	x27, x1, #6
   870fc:	aa1b001b 	orr	x27, x0, x27
   87100:	aa0203e0 	mov	x0, x2
   87104:	d37ae41a 	lsl	x26, x0, #6
   87108:	aa1303e0 	mov	x0, x19
   8710c:	91000400 	add	x0, x0, #0x1
   87110:	f90043a0 	str	x0, [x29, #128]
   87114:	f90047bf 	str	xzr, [x29, #136]
   87118:	a9480fa2 	ldp	x2, x3, [x29, #128]
   8711c:	aa0203e0 	mov	x0, x2
   87120:	d37afc00 	lsr	x0, x0, #58
   87124:	aa0303e1 	mov	x1, x3
   87128:	d37ae439 	lsl	x25, x1, #6
   8712c:	aa190019 	orr	x25, x0, x25
   87130:	aa0203e0 	mov	x0, x2
   87134:	d37ae418 	lsl	x24, x0, #6
   87138:	aa1303e0 	mov	x0, x19
   8713c:	91000400 	add	x0, x0, #0x1
   87140:	d37df000 	lsl	x0, x0, #3
   87144:	91003c00 	add	x0, x0, #0xf
   87148:	d344fc00 	lsr	x0, x0, #4
   8714c:	d37cec00 	lsl	x0, x0, #4
   87150:	cb2063ff 	sub	sp, sp, x0
   87154:	910003e0 	mov	x0, sp
   87158:	91001c00 	add	x0, x0, #0x7
   8715c:	d343fc00 	lsr	x0, x0, #3
   87160:	d37df000 	lsl	x0, x0, #3
   87164:	f90093a0 	str	x0, [x29, #288]
   87168:	f94093a0 	ldr	x0, [x29, #288]
   8716c:	aa1303f8 	mov	x24, x19
   87170:	aa0003f9 	mov	x25, x0
   87174:	f100031f 	cmp	x24, #0x0
   87178:	540000cb 	b.lt	87190 <_ZN8valkyrie6kernel4Task4execEPKcPKS3_+0x170>  // b.tstop
   8717c:	aa1903e0 	mov	x0, x25
   87180:	940022fd 	bl	8fd74 <_ZN8valkyrie6kernel6StringC1Ev>
   87184:	91002339 	add	x25, x25, #0x8
   87188:	d1000718 	sub	x24, x24, #0x1
   8718c:	17fffffa 	b	87174 <_ZN8valkyrie6kernel4Task4execEPKcPKS3_+0x154>
   87190:	b90157bf 	str	wzr, [x29, #340]
   87194:	b94157a1 	ldr	w1, [x29, #340]
   87198:	b94147a0 	ldr	w0, [x29, #324]
   8719c:	6b00003f 	cmp	w1, w0
   871a0:	5400028a 	b.ge	871f0 <_ZN8valkyrie6kernel4Task4execEPKcPKS3_+0x1d0>  // b.tcont
   871a4:	b98157a0 	ldrsw	x0, [x29, #340]
   871a8:	d37df000 	lsl	x0, x0, #3
   871ac:	f94057a1 	ldr	x1, [x29, #168]
   871b0:	8b000020 	add	x0, x1, x0
   871b4:	f9400001 	ldr	x1, [x0]
   871b8:	910363a0 	add	x0, x29, #0xd8
   871bc:	9400208b 	bl	8f3e8 <_ZN8valkyrie6kernel6StringC1EPKc>
   871c0:	b98157a0 	ldrsw	x0, [x29, #340]
   871c4:	d37df000 	lsl	x0, x0, #3
   871c8:	f94093a1 	ldr	x1, [x29, #288]
   871cc:	8b000020 	add	x0, x1, x0
   871d0:	910363a1 	add	x1, x29, #0xd8
   871d4:	940022f2 	bl	8fd9c <_ZN8valkyrie6kernel6StringaSEOS1_>
   871d8:	910363a0 	add	x0, x29, #0xd8
   871dc:	940020bc 	bl	8f4cc <_ZN8valkyrie6kernel6StringD1Ev>
   871e0:	b94157a0 	ldr	w0, [x29, #340]
   871e4:	11000400 	add	w0, w0, #0x1
   871e8:	b90157a0 	str	w0, [x29, #340]
   871ec:	17ffffea 	b	87194 <_ZN8valkyrie6kernel4Task4execEPKcPKS3_+0x174>
   871f0:	b98147a0 	ldrsw	x0, [x29, #324]
   871f4:	d1000400 	sub	x0, x0, #0x1
   871f8:	f9008fa0 	str	x0, [x29, #280]
   871fc:	aa0003e1 	mov	x1, x0
   87200:	91000421 	add	x1, x1, #0x1
   87204:	f9003ba1 	str	x1, [x29, #112]
   87208:	f9003fbf 	str	xzr, [x29, #120]
   8720c:	a9470fa2 	ldp	x2, x3, [x29, #112]
   87210:	aa0203e1 	mov	x1, x2
   87214:	d37afc21 	lsr	x1, x1, #58
   87218:	aa0303e4 	mov	x4, x3
   8721c:	d37ae497 	lsl	x23, x4, #6
   87220:	aa170037 	orr	x23, x1, x23
   87224:	aa0203e1 	mov	x1, x2
   87228:	d37ae436 	lsl	x22, x1, #6
   8722c:	aa0003e1 	mov	x1, x0
   87230:	91000421 	add	x1, x1, #0x1
   87234:	f90033a1 	str	x1, [x29, #96]
   87238:	f90037bf 	str	xzr, [x29, #104]
   8723c:	a9460fa2 	ldp	x2, x3, [x29, #96]
   87240:	aa0203e1 	mov	x1, x2
   87244:	d37afc21 	lsr	x1, x1, #58
   87248:	aa0303e4 	mov	x4, x3
   8724c:	d37ae495 	lsl	x21, x4, #6
   87250:	aa150035 	orr	x21, x1, x21
   87254:	aa0203e1 	mov	x1, x2
   87258:	d37ae434 	lsl	x20, x1, #6
   8725c:	91000400 	add	x0, x0, #0x1
   87260:	d37df000 	lsl	x0, x0, #3
   87264:	91003c00 	add	x0, x0, #0xf
   87268:	d344fc00 	lsr	x0, x0, #4
   8726c:	d37cec00 	lsl	x0, x0, #4
   87270:	cb2063ff 	sub	sp, sp, x0
   87274:	910003e0 	mov	x0, sp
   87278:	91001c00 	add	x0, x0, #0x7
   8727c:	d343fc00 	lsr	x0, x0, #3
   87280:	d37df000 	lsl	x0, x0, #3
   87284:	f9008ba0 	str	x0, [x29, #272]
   87288:	b94147a0 	ldr	w0, [x29, #324]
   8728c:	51000400 	sub	w0, w0, #0x1
   87290:	b9015ba0 	str	w0, [x29, #344]
   87294:	b9415ba0 	ldr	w0, [x29, #344]
   87298:	7100001f 	cmp	w0, #0x0
   8729c:	540004eb 	b.lt	87338 <_ZN8valkyrie6kernel4Task4execEPKcPKS3_+0x318>  // b.tstop
   872a0:	b9815ba0 	ldrsw	x0, [x29, #344]
   872a4:	d37df000 	lsl	x0, x0, #3
   872a8:	f94093a1 	ldr	x1, [x29, #288]
   872ac:	8b000020 	add	x0, x1, x0
   872b0:	9400208f 	bl	8f4ec <_ZNK8valkyrie6kernel6String4sizeEv>
   872b4:	91000400 	add	x0, x0, #0x1
   872b8:	f90087a0 	str	x0, [x29, #264]
   872bc:	f94087a0 	ldr	x0, [x29, #264]
   872c0:	97ffee3b 	bl	82bac <_ZN8valkyrie6kernel26round_up_to_multiple_of_16Em>
   872c4:	f90087a0 	str	x0, [x29, #264]
   872c8:	f9409fa1 	ldr	x1, [x29, #312]
   872cc:	f94087a0 	ldr	x0, [x29, #264]
   872d0:	cb000020 	sub	x0, x1, x0
   872d4:	f9009fa0 	str	x0, [x29, #312]
   872d8:	f9409fa0 	ldr	x0, [x29, #312]
   872dc:	f90063a0 	str	x0, [x29, #192]
   872e0:	f94063b4 	ldr	x20, [x29, #192]
   872e4:	b9815ba0 	ldrsw	x0, [x29, #344]
   872e8:	d37df000 	lsl	x0, x0, #3
   872ec:	f94093a1 	ldr	x1, [x29, #288]
   872f0:	8b000020 	add	x0, x1, x0
   872f4:	9400208d 	bl	8f528 <_ZNK8valkyrie6kernel6String5c_strEv>
   872f8:	aa0003e1 	mov	x1, x0
   872fc:	aa1403e0 	mov	x0, x20
   87300:	97ffe59c 	bl	80970 <strcpy>
   87304:	f94063a2 	ldr	x2, [x29, #192]
   87308:	f9408ba0 	ldr	x0, [x29, #272]
   8730c:	b9815ba1 	ldrsw	x1, [x29, #344]
   87310:	f8217802 	str	x2, [x0, x1, lsl #3]
   87314:	910303a0 	add	x0, x29, #0xc0
   87318:	aa0003e1 	mov	x1, x0
   8731c:	d0000000 	adrp	x0, 89000 <_ZN8valkyrie6kernel8FunctionIFvvEE12CallableImplIZNS0_16__run_unit_testsEvEUlvE_E4callEv+0x5e8>
   87320:	912b8000 	add	x0, x0, #0xae0
   87324:	9400242b 	bl	903d0 <_Z6printfIJRPcEEvPKcDpOT_>
   87328:	b9415ba0 	ldr	w0, [x29, #344]
   8732c:	51000400 	sub	w0, w0, #0x1
   87330:	b9015ba0 	str	w0, [x29, #344]
   87334:	17ffffd8 	b	87294 <_ZN8valkyrie6kernel4Task4execEPKcPKS3_+0x274>
   87338:	b94147a0 	ldr	w0, [x29, #324]
   8733c:	11000800 	add	w0, w0, #0x2
   87340:	93407c00 	sxtw	x0, w0
   87344:	d37df000 	lsl	x0, x0, #3
   87348:	97ffee19 	bl	82bac <_ZN8valkyrie6kernel26round_up_to_multiple_of_16Em>
   8734c:	aa0003e1 	mov	x1, x0
   87350:	f9409fa0 	ldr	x0, [x29, #312]
   87354:	cb010000 	sub	x0, x0, x1
   87358:	f9009fa0 	str	x0, [x29, #312]
   8735c:	f9409fa0 	ldr	x0, [x29, #312]
   87360:	f90083a0 	str	x0, [x29, #256]
   87364:	b9015fbf 	str	wzr, [x29, #348]
   87368:	b9415fa1 	ldr	w1, [x29, #348]
   8736c:	b94147a0 	ldr	w0, [x29, #324]
   87370:	6b00003f 	cmp	w1, w0
   87374:	540001aa 	b.ge	873a8 <_ZN8valkyrie6kernel4Task4execEPKcPKS3_+0x388>  // b.tcont
   87378:	b9815fa0 	ldrsw	x0, [x29, #348]
   8737c:	d37df000 	lsl	x0, x0, #3
   87380:	f94083a1 	ldr	x1, [x29, #256]
   87384:	8b000020 	add	x0, x1, x0
   87388:	f9408ba1 	ldr	x1, [x29, #272]
   8738c:	b9815fa2 	ldrsw	x2, [x29, #348]
   87390:	f8627821 	ldr	x1, [x1, x2, lsl #3]
   87394:	f9000001 	str	x1, [x0]
   87398:	b9415fa0 	ldr	w0, [x29, #348]
   8739c:	11000400 	add	w0, w0, #0x1
   873a0:	b9015fa0 	str	w0, [x29, #348]
   873a4:	17fffff1 	b	87368 <_ZN8valkyrie6kernel4Task4execEPKcPKS3_+0x348>
   873a8:	b98147a0 	ldrsw	x0, [x29, #324]
   873ac:	d37df000 	lsl	x0, x0, #3
   873b0:	f94083a1 	ldr	x1, [x29, #256]
   873b4:	8b000020 	add	x0, x1, x0
   873b8:	f900001f 	str	xzr, [x0]
   873bc:	f9409fa0 	ldr	x0, [x29, #312]
   873c0:	d1002000 	sub	x0, x0, #0x8
   873c4:	f9009fa0 	str	x0, [x29, #312]
   873c8:	f9409fa0 	ldr	x0, [x29, #312]
   873cc:	f9007fa0 	str	x0, [x29, #248]
   873d0:	f9407fa0 	ldr	x0, [x29, #248]
   873d4:	f94083a1 	ldr	x1, [x29, #256]
   873d8:	f9000001 	str	x1, [x0]
   873dc:	f9409fa0 	ldr	x0, [x29, #312]
   873e0:	d1002000 	sub	x0, x0, #0x8
   873e4:	f9009fa0 	str	x0, [x29, #312]
   873e8:	f9409fa0 	ldr	x0, [x29, #312]
   873ec:	f9007ba0 	str	x0, [x29, #240]
   873f0:	f9407ba0 	ldr	x0, [x29, #240]
   873f4:	b94147a1 	ldr	w1, [x29, #324]
   873f8:	b9000001 	str	w1, [x0]
   873fc:	f9405fa0 	ldr	x0, [x29, #184]
   87400:	f9409fa1 	ldr	x1, [x29, #312]
   87404:	f9003001 	str	x1, [x0, #96]
   87408:	97ffebec 	bl	823b8 <_ZN8valkyrie6kernel9Initramfs12get_instanceEv>
   8740c:	aa0003e2 	mov	x2, x0
   87410:	f9405ba0 	ldr	x0, [x29, #176]
   87414:	aa0003e1 	mov	x1, x0
   87418:	aa0203e0 	mov	x0, x2
   8741c:	97ffec03 	bl	82428 <_ZNK8valkyrie6kernel9Initramfs4readEPKc>
   87420:	910323a3 	add	x3, x29, #0xc8
   87424:	aa0103e2 	mov	x2, x1
   87428:	aa0003e1 	mov	x1, x0
   8742c:	aa0303e0 	mov	x0, x3
   87430:	97ffe70a 	bl	81058 <_ZN8valkyrie6kernel3ELFC1ENS0_4PairIPKcmEE>
   87434:	d2a40000 	mov	x0, #0x20000000            	// #536870912
   87438:	f90077a0 	str	x0, [x29, #232]
   8743c:	f94077a0 	ldr	x0, [x29, #232]
   87440:	f90073a0 	str	x0, [x29, #224]
   87444:	910323a0 	add	x0, x29, #0xc8
   87448:	97ffe710 	bl	81088 <_ZNK8valkyrie6kernel3ELF8is_validEv>
   8744c:	12001c00 	and	w0, w0, #0xff
   87450:	52000000 	eor	w0, w0, #0x1
   87454:	12001c00 	and	w0, w0, #0xff
   87458:	7100001f 	cmp	w0, #0x0
   8745c:	540003a1 	b.ne	874d0 <_ZN8valkyrie6kernel4Task4execEPKcPKS3_+0x4b0>  // b.any
   87460:	910323a0 	add	x0, x29, #0xc8
   87464:	f94073a1 	ldr	x1, [x29, #224]
   87468:	97ffe718 	bl	810c8 <_ZNK8valkyrie6kernel3ELF7load_atEPv>
   8746c:	f9405fa0 	ldr	x0, [x29, #184]
   87470:	91022001 	add	x1, x0, #0x88
   87474:	f9405fa0 	ldr	x0, [x29, #184]
   87478:	91024002 	add	x2, x0, #0x90
   8747c:	9102c3a0 	add	x0, x29, #0xb0
   87480:	aa0203e3 	mov	x3, x2
   87484:	aa0103e2 	mov	x2, x1
   87488:	aa0003e1 	mov	x1, x0
   8748c:	d0000000 	adrp	x0, 89000 <_ZN8valkyrie6kernel8FunctionIFvvEE12CallableImplIZNS0_16__run_unit_testsEvEUlvE_E4callEv+0x5e8>
   87490:	912bc000 	add	x0, x0, #0xaf0
   87494:	940023db 	bl	90400 <_Z6printkIJRPKcRPvS4_EEvS1_DpOT_>
   87498:	97ffeabb 	bl	81f84 <_ZN8valkyrie6kernel16ExceptionManager12get_instanceEv>
   8749c:	aa0003f4 	mov	x20, x0
   874a0:	910323a0 	add	x0, x29, #0xc8
   874a4:	f94073a1 	ldr	x1, [x29, #224]
   874a8:	97ffe725 	bl	8113c <_ZNK8valkyrie6kernel3ELF15get_entry_pointEPKv>
   874ac:	aa0003e2 	mov	x2, x0
   874b0:	f9409ba0 	ldr	x0, [x29, #304]
   874b4:	f9409fa1 	ldr	x1, [x29, #312]
   874b8:	aa0103e4 	mov	x4, x1
   874bc:	aa0003e3 	mov	x3, x0
   874c0:	52800001 	mov	w1, #0x0                   	// #0
   874c4:	aa1403e0 	mov	x0, x20
   874c8:	97ffeb6b 	bl	82274 <_ZN8valkyrie6kernel16ExceptionManager25downgrade_exception_levelEhPvS2_S2_>
   874cc:	14000002 	b	874d4 <_ZN8valkyrie6kernel4Task4execEPKcPKS3_+0x4b4>
   874d0:	d503201f 	nop
   874d4:	9102c3a0 	add	x0, x29, #0xb0
   874d8:	aa0003e1 	mov	x1, x0
   874dc:	d0000000 	adrp	x0, 89000 <_ZN8valkyrie6kernel8FunctionIFvvEE12CallableImplIZNS0_16__run_unit_testsEvEUlvE_E4callEv+0x5e8>
   874e0:	912ce000 	add	x0, x0, #0xb38
   874e4:	94002404 	bl	904f4 <_Z6printkIJRPKcEEvS1_DpOT_>
   874e8:	12800014 	mov	w20, #0xffffffff            	// #-1
   874ec:	aa1303e0 	mov	x0, x19
   874f0:	91000400 	add	x0, x0, #0x1
   874f4:	d37df000 	lsl	x0, x0, #3
   874f8:	f94093a1 	ldr	x1, [x29, #288]
   874fc:	8b000033 	add	x19, x1, x0
   87500:	f94093a0 	ldr	x0, [x29, #288]
   87504:	eb13001f 	cmp	x0, x19
   87508:	540000a0 	b.eq	8751c <_ZN8valkyrie6kernel4Task4execEPKcPKS3_+0x4fc>  // b.none
   8750c:	d1002273 	sub	x19, x19, #0x8
   87510:	aa1303e0 	mov	x0, x19
   87514:	94001fee 	bl	8f4cc <_ZN8valkyrie6kernel6StringD1Ev>
   87518:	17fffffa 	b	87500 <_ZN8valkyrie6kernel4Task4execEPKcPKS3_+0x4e0>
   8751c:	9100039f 	mov	sp, x28
   87520:	2a1403e0 	mov	w0, w20
   87524:	910003bf 	mov	sp, x29
   87528:	a94153f3 	ldp	x19, x20, [sp, #16]
   8752c:	a9425bf5 	ldp	x21, x22, [sp, #32]
   87530:	a94363f7 	ldp	x23, x24, [sp, #48]
   87534:	a9446bf9 	ldp	x25, x26, [sp, #64]
   87538:	a94573fb 	ldp	x27, x28, [sp, #80]
   8753c:	a8d67bfd 	ldp	x29, x30, [sp], #352
   87540:	d65f03c0 	ret

0000000000087544 <_ZN8valkyrie6kernel4Task4exitEv>:
   87544:	a9bd7bfd 	stp	x29, x30, [sp, #-48]!
   87548:	910003fd 	mov	x29, sp
   8754c:	f9000fe0 	str	x0, [sp, #24]
   87550:	94000010 	bl	87590 <_ZN8valkyrie6kernel13TaskScheduler12get_instanceEv>
   87554:	f90017e0 	str	x0, [sp, #40]
   87558:	f9400fe1 	ldr	x1, [sp, #24]
   8755c:	f94017e0 	ldr	x0, [sp, #40]
   87560:	94000108 	bl	87980 <_ZN8valkyrie6kernel13TaskScheduler15mark_terminatedERNS0_4TaskE>
   87564:	f94017e0 	ldr	x0, [sp, #40]
   87568:	940000cf 	bl	878a4 <_ZN8valkyrie6kernel13TaskScheduler8scheduleEv>
   8756c:	d503201f 	nop
   87570:	a8c37bfd 	ldp	x29, x30, [sp], #48
   87574:	d65f03c0 	ret

0000000000087578 <_ZN8valkyrie6kernel4Task20construct_argv_chainEPKPKc>:
   87578:	d10043ff 	sub	sp, sp, #0x10
   8757c:	f90007e0 	str	x0, [sp, #8]
   87580:	f90003e1 	str	x1, [sp]
   87584:	d503201f 	nop
   87588:	910043ff 	add	sp, sp, #0x10
   8758c:	d65f03c0 	ret

0000000000087590 <_ZN8valkyrie6kernel13TaskScheduler12get_instanceEv>:
   87590:	a9bf7bfd 	stp	x29, x30, [sp, #-16]!
   87594:	910003fd 	mov	x29, sp
   87598:	d0000060 	adrp	x0, 95000 <_ZZN8valkyrie6kernel13MemoryManager12get_instanceEvE8instance+0x1e58>
   8759c:	91200000 	add	x0, x0, #0x800
   875a0:	f9400000 	ldr	x0, [x0]
   875a4:	92400000 	and	x0, x0, #0x1
   875a8:	f100001f 	cmp	x0, #0x0
   875ac:	540001e1 	b.ne	875e8 <_ZN8valkyrie6kernel13TaskScheduler12get_instanceEv+0x58>  // b.any
   875b0:	d0000060 	adrp	x0, 95000 <_ZZN8valkyrie6kernel13MemoryManager12get_instanceEvE8instance+0x1e58>
   875b4:	911f8000 	add	x0, x0, #0x7e0
   875b8:	94000010 	bl	875f8 <_ZN8valkyrie6kernel13TaskSchedulerC1Ev>
   875bc:	d0000060 	adrp	x0, 95000 <_ZZN8valkyrie6kernel13MemoryManager12get_instanceEvE8instance+0x1e58>
   875c0:	91200000 	add	x0, x0, #0x800
   875c4:	d2800021 	mov	x1, #0x1                   	// #1
   875c8:	f9000001 	str	x1, [x0]
   875cc:	b0ffffc0 	adrp	x0, 80000 <_start>
   875d0:	91097002 	add	x2, x0, #0x25c
   875d4:	d0000060 	adrp	x0, 95000 <_ZZN8valkyrie6kernel13MemoryManager12get_instanceEvE8instance+0x1e58>
   875d8:	911f8001 	add	x1, x0, #0x7e0
   875dc:	b0000040 	adrp	x0, 90000 <_ZN8valkyrie6kernel11make_uniqueINS0_4TaskEJPS2_RPvRA16_cEEENS0_9_UniqueIfIT_E13_SingleObjectEDpOT0_+0x4>
   875e0:	91228000 	add	x0, x0, #0x8a0
   875e4:	97ffe31c 	bl	80254 <__cxa_atexit>
   875e8:	d0000060 	adrp	x0, 95000 <_ZZN8valkyrie6kernel13MemoryManager12get_instanceEvE8instance+0x1e58>
   875ec:	911f8000 	add	x0, x0, #0x7e0
   875f0:	a8c17bfd 	ldp	x29, x30, [sp], #16
   875f4:	d65f03c0 	ret

00000000000875f8 <_ZN8valkyrie6kernel13TaskSchedulerC1Ev>:
   875f8:	a9be7bfd 	stp	x29, x30, [sp, #-32]!
   875fc:	910003fd 	mov	x29, sp
   87600:	f9000fe0 	str	x0, [sp, #24]
   87604:	f9400fe0 	ldr	x0, [sp, #24]
   87608:	940024e7 	bl	909a4 <_ZN8valkyrie6kernel16DoublyLinkedListINS0_9UniquePtrINS0_4TaskEEEEC1Ev>
   8760c:	f9400fe0 	ldr	x0, [sp, #24]
   87610:	91004000 	add	x0, x0, #0x10
   87614:	940024e4 	bl	909a4 <_ZN8valkyrie6kernel16DoublyLinkedListINS0_9UniquePtrINS0_4TaskEEEEC1Ev>
   87618:	d503201f 	nop
   8761c:	a8c27bfd 	ldp	x29, x30, [sp], #32
   87620:	d65f03c0 	ret

0000000000087624 <_ZN8valkyrie6kernel13TaskScheduler3runEv>:
   87624:	a9bb7bfd 	stp	x29, x30, [sp, #-80]!
   87628:	910003fd 	mov	x29, sp
   8762c:	f9000fe0 	str	x0, [sp, #24]
   87630:	f90017ff 	str	xzr, [sp, #40]
   87634:	f0000040 	adrp	x0, 92000 <_Z6printkIJPKN8valkyrie6kernel8FunctionIFvvEEEEEvPKcDpOT_+0x18>
   87638:	f947b000 	ldr	x0, [x0, #3936]
   8763c:	f9001be0 	str	x0, [sp, #48]
   87640:	9100c3e1 	add	x1, sp, #0x30
   87644:	9100a3e3 	add	x3, sp, #0x28
   87648:	910083e0 	add	x0, sp, #0x20
   8764c:	aa0003e8 	mov	x8, x0
   87650:	d0000000 	adrp	x0, 89000 <_ZN8valkyrie6kernel8FunctionIFvvEE12CallableImplIZNS0_16__run_unit_testsEvEUlvE_E4callEv+0x5e8>
   87654:	912d8002 	add	x2, x0, #0xb60
   87658:	aa0303e0 	mov	x0, x3
   8765c:	940024e2 	bl	909e4 <_ZN8valkyrie6kernel11make_uniqueINS0_4TaskEJDnPvRA5_KcEEENS0_9_UniqueIfIT_E13_SingleObjectEDpOT0_>
   87660:	910083e0 	add	x0, sp, #0x20
   87664:	aa0003e1 	mov	x1, x0
   87668:	f9400fe0 	ldr	x0, [sp, #24]
   8766c:	9400001e 	bl	876e4 <_ZN8valkyrie6kernel13TaskScheduler12enqueue_taskENS0_9UniquePtrINS0_4TaskEEE>
   87670:	910083e0 	add	x0, sp, #0x20
   87674:	94002285 	bl	90088 <_ZN8valkyrie6kernel9UniquePtrINS0_4TaskEED1Ev>
   87678:	f90023ff 	str	xzr, [sp, #64]
   8767c:	f0000040 	adrp	x0, 92000 <_Z6printkIJPKN8valkyrie6kernel8FunctionIFvvEEEEEvPKcDpOT_+0x18>
   87680:	f947a800 	ldr	x0, [x0, #3920]
   87684:	f90027e0 	str	x0, [sp, #72]
   87688:	910123e1 	add	x1, sp, #0x48
   8768c:	910103e3 	add	x3, sp, #0x40
   87690:	9100e3e0 	add	x0, sp, #0x38
   87694:	aa0003e8 	mov	x8, x0
   87698:	d0000000 	adrp	x0, 89000 <_ZN8valkyrie6kernel8FunctionIFvvEE12CallableImplIZNS0_16__run_unit_testsEvEUlvE_E4callEv+0x5e8>
   8769c:	912da002 	add	x2, x0, #0xb68
   876a0:	aa0303e0 	mov	x0, x3
   876a4:	940024d0 	bl	909e4 <_ZN8valkyrie6kernel11make_uniqueINS0_4TaskEJDnPvRA5_KcEEENS0_9_UniqueIfIT_E13_SingleObjectEDpOT0_>
   876a8:	9100e3e0 	add	x0, sp, #0x38
   876ac:	aa0003e1 	mov	x1, x0
   876b0:	f9400fe0 	ldr	x0, [sp, #24]
   876b4:	9400000c 	bl	876e4 <_ZN8valkyrie6kernel13TaskScheduler12enqueue_taskENS0_9UniquePtrINS0_4TaskEEE>
   876b8:	9100e3e0 	add	x0, sp, #0x38
   876bc:	94002273 	bl	90088 <_ZN8valkyrie6kernel9UniquePtrINS0_4TaskEED1Ev>
   876c0:	f9400fe0 	ldr	x0, [sp, #24]
   876c4:	940024eb 	bl	90a70 <_ZN8valkyrie6kernel16DoublyLinkedListINS0_9UniquePtrINS0_4TaskEEEE5frontEv>
   876c8:	94002418 	bl	90728 <_ZNK8valkyrie6kernel9UniquePtrINS0_4TaskEE3getEv>
   876cc:	aa0003e1 	mov	x1, x0
   876d0:	d2800000 	mov	x0, #0x0                   	// #0
   876d4:	97ffe649 	bl	80ff8 <switch_to>
   876d8:	d503201f 	nop
   876dc:	a8c57bfd 	ldp	x29, x30, [sp], #80
   876e0:	d65f03c0 	ret

00000000000876e4 <_ZN8valkyrie6kernel13TaskScheduler12enqueue_taskENS0_9UniquePtrINS0_4TaskEEE>:
   876e4:	a9bb7bfd 	stp	x29, x30, [sp, #-80]!
   876e8:	910003fd 	mov	x29, sp
   876ec:	f9000bf3 	str	x19, [sp, #16]
   876f0:	f90017e0 	str	x0, [sp, #40]
   876f4:	f90013e1 	str	x1, [sp, #32]
   876f8:	f94013e0 	ldr	x0, [sp, #32]
   876fc:	940024e6 	bl	90a94 <_ZNK8valkyrie6kernel9UniquePtrINS0_4TaskEEcvbEv>
   87700:	12001c00 	and	w0, w0, #0xff
   87704:	52000000 	eor	w0, w0, #0x1
   87708:	12001c00 	and	w0, w0, #0xff
   8770c:	92401c00 	and	x0, x0, #0xff
   87710:	f100001f 	cmp	x0, #0x0
   87714:	1a9f07e0 	cset	w0, ne  // ne = any
   87718:	12001c00 	and	w0, w0, #0xff
   8771c:	7100001f 	cmp	w0, #0x0
   87720:	54000080 	b.eq	87730 <_ZN8valkyrie6kernel13TaskScheduler12enqueue_taskENS0_9UniquePtrINS0_4TaskEEE+0x4c>  // b.none
   87724:	d0000000 	adrp	x0, 89000 <_ZN8valkyrie6kernel8FunctionIFvvEE12CallableImplIZNS0_16__run_unit_testsEvEUlvE_E4callEv+0x5e8>
   87728:	912dc000 	add	x0, x0, #0xb70
   8772c:	9400199c 	bl	8dd9c <_ZN8valkyrie6kernel6Kernel5panicIJEEEvPKcDpOT_>
   87730:	f94013e0 	ldr	x0, [sp, #32]
   87734:	940023fd 	bl	90728 <_ZNK8valkyrie6kernel9UniquePtrINS0_4TaskEE3getEv>
   87738:	f9001fe0 	str	x0, [sp, #56]
   8773c:	f94013e0 	ldr	x0, [sp, #32]
   87740:	9400225b 	bl	900ac <_ZNK8valkyrie6kernel9UniquePtrINS0_4TaskEEptEv>
   87744:	94002451 	bl	90888 <_ZNK8valkyrie6kernel4Task8get_nameEv>
   87748:	f90023e0 	str	x0, [sp, #64]
   8774c:	f94013e0 	ldr	x0, [sp, #32]
   87750:	94002257 	bl	900ac <_ZNK8valkyrie6kernel9UniquePtrINS0_4TaskEEptEv>
   87754:	9400217a 	bl	8fd3c <_ZNK8valkyrie6kernel4Task7get_pidEv>
   87758:	b9004fe0 	str	w0, [sp, #76]
   8775c:	910133e2 	add	x2, sp, #0x4c
   87760:	910103e1 	add	x1, sp, #0x40
   87764:	9100e3e0 	add	x0, sp, #0x38
   87768:	aa0203e3 	mov	x3, x2
   8776c:	aa0103e2 	mov	x2, x1
   87770:	aa0003e1 	mov	x1, x0
   87774:	d0000000 	adrp	x0, 89000 <_ZN8valkyrie6kernel8FunctionIFvvEE12CallableImplIZNS0_16__run_unit_testsEvEUlvE_E4callEv+0x5e8>
   87778:	912e2000 	add	x0, x0, #0xb88
   8777c:	940024d0 	bl	90abc <_Z6printkIJPN8valkyrie6kernel4TaskEPKcjEEvS5_DpOT_>
   87780:	f94013e0 	ldr	x0, [sp, #32]
   87784:	9400224a 	bl	900ac <_ZNK8valkyrie6kernel9UniquePtrINS0_4TaskEEptEv>
   87788:	52800021 	mov	w1, #0x1                   	// #1
   8778c:	94002436 	bl	90864 <_ZN8valkyrie6kernel4Task9set_stateENS1_5StateE>
   87790:	f94017f3 	ldr	x19, [sp, #40]
   87794:	f94013e0 	ldr	x0, [sp, #32]
   87798:	940022c2 	bl	902a0 <_ZN8valkyrie6kernel4moveIRNS0_9UniquePtrINS0_4TaskEEEEEONS0_16_RemoveReferenceIT_E4TypeEOS7_>
   8779c:	aa0003e1 	mov	x1, x0
   877a0:	aa1303e0 	mov	x0, x19
   877a4:	94002503 	bl	90bb0 <_ZN8valkyrie6kernel16DoublyLinkedListINS0_9UniquePtrINS0_4TaskEEEE9push_backIS4_EEvOT_>
   877a8:	d503201f 	nop
   877ac:	f9400bf3 	ldr	x19, [sp, #16]
   877b0:	a8c57bfd 	ldp	x29, x30, [sp], #80
   877b4:	d65f03c0 	ret

00000000000877b8 <_ZN8valkyrie6kernel13TaskScheduler11remove_taskERKNS0_4TaskE>:
   877b8:	a9b97bfd 	stp	x29, x30, [sp, #-112]!
   877bc:	910003fd 	mov	x29, sp
   877c0:	a90153f3 	stp	x19, x20, [sp, #16]
   877c4:	a9025bf5 	stp	x21, x22, [sp, #32]
   877c8:	aa0803f3 	mov	x19, x8
   877cc:	f9001fe0 	str	x0, [sp, #56]
   877d0:	f9001be1 	str	x1, [sp, #48]
   877d4:	f9401be0 	ldr	x0, [sp, #48]
   877d8:	f90027e0 	str	x0, [sp, #72]
   877dc:	f9401be0 	ldr	x0, [sp, #48]
   877e0:	9400242a 	bl	90888 <_ZNK8valkyrie6kernel4Task8get_nameEv>
   877e4:	f9002be0 	str	x0, [sp, #80]
   877e8:	f9401be0 	ldr	x0, [sp, #48]
   877ec:	94002154 	bl	8fd3c <_ZNK8valkyrie6kernel4Task7get_pidEv>
   877f0:	b9005fe0 	str	w0, [sp, #92]
   877f4:	910173e2 	add	x2, sp, #0x5c
   877f8:	910143e1 	add	x1, sp, #0x50
   877fc:	910123e0 	add	x0, sp, #0x48
   87800:	aa0203e3 	mov	x3, x2
   87804:	aa0103e2 	mov	x2, x1
   87808:	aa0003e1 	mov	x1, x0
   8780c:	d0000000 	adrp	x0, 89000 <_ZN8valkyrie6kernel8FunctionIFvvEE12CallableImplIZNS0_16__run_unit_testsEvEUlvE_E4callEv+0x5e8>
   87810:	912f2000 	add	x0, x0, #0xbc8
   87814:	94002504 	bl	90c24 <_Z6printkIJPKN8valkyrie6kernel4TaskEPKcjEEvS6_DpOT_>
   87818:	aa1303e0 	mov	x0, x19
   8781c:	9400253f 	bl	90d18 <_ZN8valkyrie6kernel9UniquePtrINS0_4TaskEEC1Ev>
   87820:	f9401ff6 	ldr	x22, [sp, #56]
   87824:	aa1303f4 	mov	x20, x19
   87828:	f9401bf5 	ldr	x21, [sp, #48]
   8782c:	910183e0 	add	x0, sp, #0x60
   87830:	aa1403e1 	mov	x1, x20
   87834:	aa1503e2 	mov	x2, x21
   87838:	94000085 	bl	87a4c <_ZN8valkyrie6kernel8FunctionIFbRNS0_9UniquePtrINS0_4TaskEEEEEC1IZNS0_13TaskScheduler11remove_taskERKS3_EUlRT_E_EESC_>
   8783c:	910183e0 	add	x0, sp, #0x60
   87840:	aa0003e1 	mov	x1, x0
   87844:	aa1603e0 	mov	x0, x22
   87848:	94002543 	bl	90d54 <_ZN8valkyrie6kernel16DoublyLinkedListINS0_9UniquePtrINS0_4TaskEEEE9remove_ifENS0_8FunctionIFbRS4_EEE>
   8784c:	910183e0 	add	x0, sp, #0x60
   87850:	9400241f 	bl	908cc <_ZN8valkyrie6kernel8FunctionIFbRNS0_9UniquePtrINS0_4TaskEEEEED1Ev>
   87854:	aa1303e0 	mov	x0, x19
   87858:	9400248f 	bl	90a94 <_ZNK8valkyrie6kernel9UniquePtrINS0_4TaskEEcvbEv>
   8785c:	12001c00 	and	w0, w0, #0xff
   87860:	52000000 	eor	w0, w0, #0x1
   87864:	12001c00 	and	w0, w0, #0xff
   87868:	92401c00 	and	x0, x0, #0xff
   8786c:	f100001f 	cmp	x0, #0x0
   87870:	1a9f07e0 	cset	w0, ne  // ne = any
   87874:	12001c00 	and	w0, w0, #0xff
   87878:	7100001f 	cmp	w0, #0x0
   8787c:	54000080 	b.eq	8788c <_ZN8valkyrie6kernel13TaskScheduler11remove_taskERKNS0_4TaskE+0xd4>  // b.none
   87880:	d0000000 	adrp	x0, 89000 <_ZN8valkyrie6kernel8FunctionIFvvEE12CallableImplIZNS0_16__run_unit_testsEvEUlvE_E4callEv+0x5e8>
   87884:	91302000 	add	x0, x0, #0xc08
   87888:	94001945 	bl	8dd9c <_ZN8valkyrie6kernel6Kernel5panicIJEEEvPKcDpOT_>
   8788c:	d503201f 	nop
   87890:	aa1303e0 	mov	x0, x19
   87894:	a94153f3 	ldp	x19, x20, [sp, #16]
   87898:	a9425bf5 	ldp	x21, x22, [sp, #32]
   8789c:	a8c77bfd 	ldp	x29, x30, [sp], #112
   878a0:	d65f03c0 	ret

00000000000878a4 <_ZN8valkyrie6kernel13TaskScheduler8scheduleEv>:
   878a4:	a9bc7bfd 	stp	x29, x30, [sp, #-64]!
   878a8:	910003fd 	mov	x29, sp
   878ac:	f9000bf3 	str	x19, [sp, #16]
   878b0:	f90017e0 	str	x0, [sp, #40]
   878b4:	f94017e0 	ldr	x0, [sp, #40]
   878b8:	9400254a 	bl	90de0 <_ZNK8valkyrie6kernel16DoublyLinkedListINS0_9UniquePtrINS0_4TaskEEEE5emptyEv>
   878bc:	12001c00 	and	w0, w0, #0xff
   878c0:	92401c00 	and	x0, x0, #0xff
   878c4:	f100001f 	cmp	x0, #0x0
   878c8:	1a9f07e0 	cset	w0, ne  // ne = any
   878cc:	12001c00 	and	w0, w0, #0xff
   878d0:	7100001f 	cmp	w0, #0x0
   878d4:	54000080 	b.eq	878e4 <_ZN8valkyrie6kernel13TaskScheduler8scheduleEv+0x40>  // b.none
   878d8:	d0000000 	adrp	x0, 89000 <_ZN8valkyrie6kernel8FunctionIFvvEE12CallableImplIZNS0_16__run_unit_testsEvEUlvE_E4callEv+0x5e8>
   878dc:	9130a000 	add	x0, x0, #0xc28
   878e0:	9400192f 	bl	8dd9c <_ZN8valkyrie6kernel6Kernel5panicIJEEEvPKcDpOT_>
   878e4:	f94017e0 	ldr	x0, [sp, #40]
   878e8:	9400254d 	bl	90e1c <_ZNK8valkyrie6kernel16DoublyLinkedListINS0_9UniquePtrINS0_4TaskEEEE4sizeEv>
   878ec:	f100041f 	cmp	x0, #0x1
   878f0:	1a9f97e0 	cset	w0, hi  // hi = pmore
   878f4:	12001c00 	and	w0, w0, #0xff
   878f8:	92401c00 	and	x0, x0, #0xff
   878fc:	f100001f 	cmp	x0, #0x0
   87900:	1a9f07e0 	cset	w0, ne  // ne = any
   87904:	12001c00 	and	w0, w0, #0xff
   87908:	7100001f 	cmp	w0, #0x0
   8790c:	54000220 	b.eq	87950 <_ZN8valkyrie6kernel13TaskScheduler8scheduleEv+0xac>  // b.none
   87910:	f94017e0 	ldr	x0, [sp, #40]
   87914:	94002457 	bl	90a70 <_ZN8valkyrie6kernel16DoublyLinkedListINS0_9UniquePtrINS0_4TaskEEEE5frontEv>
   87918:	94002262 	bl	902a0 <_ZN8valkyrie6kernel4moveIRNS0_9UniquePtrINS0_4TaskEEEEEONS0_16_RemoveReferenceIT_E4TypeEOS7_>
   8791c:	aa0003e1 	mov	x1, x0
   87920:	9100e3e0 	add	x0, sp, #0x38
   87924:	94002264 	bl	902b4 <_ZN8valkyrie6kernel9UniquePtrINS0_4TaskEEC1EOS3_>
   87928:	f94017e0 	ldr	x0, [sp, #40]
   8792c:	94002542 	bl	90e34 <_ZN8valkyrie6kernel16DoublyLinkedListINS0_9UniquePtrINS0_4TaskEEEE9pop_frontEv>
   87930:	f94017f3 	ldr	x19, [sp, #40]
   87934:	9100e3e0 	add	x0, sp, #0x38
   87938:	9400225a 	bl	902a0 <_ZN8valkyrie6kernel4moveIRNS0_9UniquePtrINS0_4TaskEEEEEONS0_16_RemoveReferenceIT_E4TypeEOS7_>
   8793c:	aa0003e1 	mov	x1, x0
   87940:	aa1303e0 	mov	x0, x19
   87944:	9400249b 	bl	90bb0 <_ZN8valkyrie6kernel16DoublyLinkedListINS0_9UniquePtrINS0_4TaskEEEE9push_backIS4_EEvOT_>
   87948:	9100e3e0 	add	x0, sp, #0x38
   8794c:	940021cf 	bl	90088 <_ZN8valkyrie6kernel9UniquePtrINS0_4TaskEED1Ev>
   87950:	97fffc27 	bl	869ec <_ZN8valkyrie6kernel4Task11get_currentEv>
   87954:	aa0003f3 	mov	x19, x0
   87958:	f94017e0 	ldr	x0, [sp, #40]
   8795c:	94002445 	bl	90a70 <_ZN8valkyrie6kernel16DoublyLinkedListINS0_9UniquePtrINS0_4TaskEEEE5frontEv>
   87960:	94002372 	bl	90728 <_ZNK8valkyrie6kernel9UniquePtrINS0_4TaskEE3getEv>
   87964:	aa0003e1 	mov	x1, x0
   87968:	aa1303e0 	mov	x0, x19
   8796c:	97ffe5a3 	bl	80ff8 <switch_to>
   87970:	d503201f 	nop
   87974:	f9400bf3 	ldr	x19, [sp, #16]
   87978:	a8c47bfd 	ldp	x29, x30, [sp], #64
   8797c:	d65f03c0 	ret

0000000000087980 <_ZN8valkyrie6kernel13TaskScheduler15mark_terminatedERNS0_4TaskE>:
   87980:	a9bc7bfd 	stp	x29, x30, [sp, #-64]!
   87984:	910003fd 	mov	x29, sp
   87988:	f9000bf3 	str	x19, [sp, #16]
   8798c:	f90017e0 	str	x0, [sp, #40]
   87990:	f90013e1 	str	x1, [sp, #32]
   87994:	52800061 	mov	w1, #0x3                   	// #3
   87998:	f94013e0 	ldr	x0, [sp, #32]
   8799c:	940023b2 	bl	90864 <_ZN8valkyrie6kernel4Task9set_stateENS1_5StateE>
   879a0:	f94017e0 	ldr	x0, [sp, #40]
   879a4:	91004013 	add	x19, x0, #0x10
   879a8:	9100e3e0 	add	x0, sp, #0x38
   879ac:	aa0003e8 	mov	x8, x0
   879b0:	f94013e1 	ldr	x1, [sp, #32]
   879b4:	f94017e0 	ldr	x0, [sp, #40]
   879b8:	97ffff80 	bl	877b8 <_ZN8valkyrie6kernel13TaskScheduler11remove_taskERKNS0_4TaskE>
   879bc:	9100e3e0 	add	x0, sp, #0x38
   879c0:	aa0003e1 	mov	x1, x0
   879c4:	aa1303e0 	mov	x0, x19
   879c8:	9400247a 	bl	90bb0 <_ZN8valkyrie6kernel16DoublyLinkedListINS0_9UniquePtrINS0_4TaskEEEE9push_backIS4_EEvOT_>
   879cc:	9100e3e0 	add	x0, sp, #0x38
   879d0:	940021ae 	bl	90088 <_ZN8valkyrie6kernel9UniquePtrINS0_4TaskEED1Ev>
   879d4:	d503201f 	nop
   879d8:	f9400bf3 	ldr	x19, [sp, #16]
   879dc:	a8c47bfd 	ldp	x29, x30, [sp], #64
   879e0:	d65f03c0 	ret

00000000000879e4 <_ZN8valkyrie6kernel13TaskScheduler12reap_zombiesEv>:
   879e4:	a9bd7bfd 	stp	x29, x30, [sp, #-48]!
   879e8:	910003fd 	mov	x29, sp
   879ec:	f9000fe0 	str	x0, [sp, #24]
   879f0:	f9400fe0 	ldr	x0, [sp, #24]
   879f4:	91004000 	add	x0, x0, #0x10
   879f8:	940024fa 	bl	90de0 <_ZNK8valkyrie6kernel16DoublyLinkedListINS0_9UniquePtrINS0_4TaskEEEE5emptyEv>
   879fc:	12001c00 	and	w0, w0, #0xff
   87a00:	52000000 	eor	w0, w0, #0x1
   87a04:	12001c00 	and	w0, w0, #0xff
   87a08:	7100001f 	cmp	w0, #0x0
   87a0c:	540001a0 	b.eq	87a40 <_ZN8valkyrie6kernel13TaskScheduler12reap_zombiesEv+0x5c>  // b.none
   87a10:	f9400fe0 	ldr	x0, [sp, #24]
   87a14:	91004000 	add	x0, x0, #0x10
   87a18:	94002501 	bl	90e1c <_ZNK8valkyrie6kernel16DoublyLinkedListINS0_9UniquePtrINS0_4TaskEEEE4sizeEv>
   87a1c:	f90017e0 	str	x0, [sp, #40]
   87a20:	9100a3e0 	add	x0, sp, #0x28
   87a24:	aa0003e1 	mov	x1, x0
   87a28:	d0000000 	adrp	x0, 89000 <_ZN8valkyrie6kernel8FunctionIFvvEE12CallableImplIZNS0_16__run_unit_testsEvEUlvE_E4callEv+0x5e8>
   87a2c:	91312000 	add	x0, x0, #0xc48
   87a30:	9400250d 	bl	90e64 <_Z6printkIJmEEvPKcDpOT_>
   87a34:	f9400fe0 	ldr	x0, [sp, #24]
   87a38:	91004000 	add	x0, x0, #0x10
   87a3c:	94002543 	bl	90f48 <_ZN8valkyrie6kernel16DoublyLinkedListINS0_9UniquePtrINS0_4TaskEEEE5clearEv>
   87a40:	d503201f 	nop
   87a44:	a8c37bfd 	ldp	x29, x30, [sp], #48
   87a48:	d65f03c0 	ret

0000000000087a4c <_ZN8valkyrie6kernel8FunctionIFbRNS0_9UniquePtrINS0_4TaskEEEEEC1IZNS0_13TaskScheduler11remove_taskERKS3_EUlRT_E_EESC_>:
   87a4c:	a9bd7bfd 	stp	x29, x30, [sp, #-48]!
   87a50:	910003fd 	mov	x29, sp
   87a54:	f90017e0 	str	x0, [sp, #40]
   87a58:	a9018be1 	stp	x1, x2, [sp, #24]
   87a5c:	f94017e0 	ldr	x0, [sp, #40]
   87a60:	940025dc 	bl	911d0 <_ZN8valkyrie6kernel9SharedPtrINS0_8FunctionIFbRNS0_9UniquePtrINS0_4TaskEEEEE13CallableIfaceEEC1Ev>
   87a64:	a9418be1 	ldp	x1, x2, [sp, #24]
   87a68:	f94017e0 	ldr	x0, [sp, #40]
   87a6c:	94000004 	bl	87a7c <_ZN8valkyrie6kernel8FunctionIFbRNS0_9UniquePtrINS0_4TaskEEEEEaSIZNS0_13TaskScheduler11remove_taskERKS3_EUlRT_E_EERS7_SC_>
   87a70:	d503201f 	nop
   87a74:	a8c37bfd 	ldp	x29, x30, [sp], #48
   87a78:	d65f03c0 	ret

0000000000087a7c <_ZN8valkyrie6kernel8FunctionIFbRNS0_9UniquePtrINS0_4TaskEEEEEaSIZNS0_13TaskScheduler11remove_taskERKS3_EUlRT_E_EERS7_SC_>:
   87a7c:	a9bb7bfd 	stp	x29, x30, [sp, #-80]!
   87a80:	910003fd 	mov	x29, sp
   87a84:	f90017e0 	str	x0, [sp, #40]
   87a88:	a9018be1 	stp	x1, x2, [sp, #24]
   87a8c:	910063e0 	add	x0, sp, #0x18
   87a90:	910103e1 	add	x1, sp, #0x40
   87a94:	aa0103e8 	mov	x8, x1
   87a98:	9400000f 	bl	87ad4 <_ZN8valkyrie6kernel11make_sharedINS0_8FunctionIFbRNS0_9UniquePtrINS0_4TaskEEEEE12CallableImplIZNS0_13TaskScheduler11remove_taskERKS4_EUlRT_E_EEJRSF_EEENS0_9_SharedIfISD_E13_SingleObjectEDpOT0_>
   87a9c:	910103e0 	add	x0, sp, #0x40
   87aa0:	9100c3e1 	add	x1, sp, #0x30
   87aa4:	aa0103e8 	mov	x8, x1
   87aa8:	9400002a 	bl	87b50 <_ZNK8valkyrie6kernel9SharedPtrINS0_8FunctionIFbRNS0_9UniquePtrINS0_4TaskEEEEE12CallableImplIZNS0_13TaskScheduler11remove_taskERKS4_EUlRT_E_EEEcvNS1_ISD_EEINS8_13CallableIfaceEEEv>
   87aac:	f94017e0 	ldr	x0, [sp, #40]
   87ab0:	9100c3e1 	add	x1, sp, #0x30
   87ab4:	940026a7 	bl	91550 <_ZN8valkyrie6kernel9SharedPtrINS0_8FunctionIFbRNS0_9UniquePtrINS0_4TaskEEEEE13CallableIfaceEEaSEOSA_>
   87ab8:	9100c3e0 	add	x0, sp, #0x30
   87abc:	9400249e 	bl	90d34 <_ZN8valkyrie6kernel9SharedPtrINS0_8FunctionIFbRNS0_9UniquePtrINS0_4TaskEEEEE13CallableIfaceEED1Ev>
   87ac0:	910103e0 	add	x0, sp, #0x40
   87ac4:	9400001b 	bl	87b30 <_ZN8valkyrie6kernel9SharedPtrINS0_8FunctionIFbRNS0_9UniquePtrINS0_4TaskEEEEE12CallableImplIZNS0_13TaskScheduler11remove_taskERKS4_EUlRT_E_EEED1Ev>
   87ac8:	f94017e0 	ldr	x0, [sp, #40]
   87acc:	a8c57bfd 	ldp	x29, x30, [sp], #80
   87ad0:	d65f03c0 	ret

0000000000087ad4 <_ZN8valkyrie6kernel11make_sharedINS0_8FunctionIFbRNS0_9UniquePtrINS0_4TaskEEEEE12CallableImplIZNS0_13TaskScheduler11remove_taskERKS4_EUlRT_E_EEJRSF_EEENS0_9_SharedIfISD_E13_SingleObjectEDpOT0_>:
   87ad4:	a9bc7bfd 	stp	x29, x30, [sp, #-64]!
   87ad8:	910003fd 	mov	x29, sp
   87adc:	a90153f3 	stp	x19, x20, [sp, #16]
   87ae0:	f90013f5 	str	x21, [sp, #32]
   87ae4:	aa0803f3 	mov	x19, x8
   87ae8:	f9001fe0 	str	x0, [sp, #56]
   87aec:	f9401fe0 	ldr	x0, [sp, #56]
   87af0:	94000024 	bl	87b80 <_ZN8valkyrie6kernel7forwardIRZNS0_13TaskScheduler11remove_taskERKNS0_4TaskEEUlRT_E_EEOS6_RNS0_16_RemoveReferenceIS6_E4TypeE>
   87af4:	aa0003f5 	mov	x21, x0
   87af8:	d2800300 	mov	x0, #0x18                  	// #24
   87afc:	97ffecb3 	bl	82dc8 <_Znwm>
   87b00:	aa0003f4 	mov	x20, x0
   87b04:	aa1503e1 	mov	x1, x21
   87b08:	aa1403e0 	mov	x0, x20
   87b0c:	94000022 	bl	87b94 <_ZN8valkyrie6kernel8FunctionIFbRNS0_9UniquePtrINS0_4TaskEEEEE12CallableImplIZNS0_13TaskScheduler11remove_taskERKS3_EUlRT_E_EC1ERKSE_>
   87b10:	aa1403e1 	mov	x1, x20
   87b14:	aa1303e0 	mov	x0, x19
   87b18:	94000030 	bl	87bd8 <_ZN8valkyrie6kernel9SharedPtrINS0_8FunctionIFbRNS0_9UniquePtrINS0_4TaskEEEEE12CallableImplIZNS0_13TaskScheduler11remove_taskERKS4_EUlRT_E_EEEC1EPSG_>
   87b1c:	aa1303e0 	mov	x0, x19
   87b20:	a94153f3 	ldp	x19, x20, [sp, #16]
   87b24:	f94013f5 	ldr	x21, [sp, #32]
   87b28:	a8c47bfd 	ldp	x29, x30, [sp], #64
   87b2c:	d65f03c0 	ret

0000000000087b30 <_ZN8valkyrie6kernel9SharedPtrINS0_8FunctionIFbRNS0_9UniquePtrINS0_4TaskEEEEE12CallableImplIZNS0_13TaskScheduler11remove_taskERKS4_EUlRT_E_EEED1Ev>:
   87b30:	a9be7bfd 	stp	x29, x30, [sp, #-32]!
   87b34:	910003fd 	mov	x29, sp
   87b38:	f9000fe0 	str	x0, [sp, #24]
   87b3c:	f9400fe0 	ldr	x0, [sp, #24]
   87b40:	94000050 	bl	87c80 <_ZN8valkyrie6kernel9SharedPtrINS0_8FunctionIFbRNS0_9UniquePtrINS0_4TaskEEEEE12CallableImplIZNS0_13TaskScheduler11remove_taskERKS4_EUlRT_E_EEE13dec_use_countEv>
   87b44:	d503201f 	nop
   87b48:	a8c27bfd 	ldp	x29, x30, [sp], #32
   87b4c:	d65f03c0 	ret

0000000000087b50 <_ZNK8valkyrie6kernel9SharedPtrINS0_8FunctionIFbRNS0_9UniquePtrINS0_4TaskEEEEE12CallableImplIZNS0_13TaskScheduler11remove_taskERKS4_EUlRT_E_EEEcvNS1_ISD_EEINS8_13CallableIfaceEEEv>:
   87b50:	a9bd7bfd 	stp	x29, x30, [sp, #-48]!
   87b54:	910003fd 	mov	x29, sp
   87b58:	f9000bf3 	str	x19, [sp, #16]
   87b5c:	aa0803f3 	mov	x19, x8
   87b60:	f90017e0 	str	x0, [sp, #40]
   87b64:	aa1303e8 	mov	x8, x19
   87b68:	f94017e0 	ldr	x0, [sp, #40]
   87b6c:	94000070 	bl	87d2c <_ZN8valkyrie6kernel20dynamic_pointer_castINS0_8FunctionIFbRNS0_9UniquePtrINS0_4TaskEEEEE13CallableIfaceENS8_12CallableImplIZNS0_13TaskScheduler11remove_taskERKS4_EUlRT_E_EEEENS0_9SharedPtrISE_EERKNSI_IT0_EE>
   87b70:	aa1303e0 	mov	x0, x19
   87b74:	f9400bf3 	ldr	x19, [sp, #16]
   87b78:	a8c37bfd 	ldp	x29, x30, [sp], #48
   87b7c:	d65f03c0 	ret

0000000000087b80 <_ZN8valkyrie6kernel7forwardIRZNS0_13TaskScheduler11remove_taskERKNS0_4TaskEEUlRT_E_EEOS6_RNS0_16_RemoveReferenceIS6_E4TypeE>:
   87b80:	d10043ff 	sub	sp, sp, #0x10
   87b84:	f90007e0 	str	x0, [sp, #8]
   87b88:	f94007e0 	ldr	x0, [sp, #8]
   87b8c:	910043ff 	add	sp, sp, #0x10
   87b90:	d65f03c0 	ret

0000000000087b94 <_ZN8valkyrie6kernel8FunctionIFbRNS0_9UniquePtrINS0_4TaskEEEEE12CallableImplIZNS0_13TaskScheduler11remove_taskERKS3_EUlRT_E_EC1ERKSE_>:
   87b94:	a9be7bfd 	stp	x29, x30, [sp, #-32]!
   87b98:	910003fd 	mov	x29, sp
   87b9c:	f9000fe0 	str	x0, [sp, #24]
   87ba0:	f9000be1 	str	x1, [sp, #16]
   87ba4:	f9400fe0 	ldr	x0, [sp, #24]
   87ba8:	9400270e 	bl	917e0 <_ZN8valkyrie6kernel8FunctionIFbRNS0_9UniquePtrINS0_4TaskEEEEE13CallableIfaceC1Ev>
   87bac:	f0000040 	adrp	x0, 92000 <_Z6printkIJPKN8valkyrie6kernel8FunctionIFvvEEEEEvPKcDpOT_+0x18>
   87bb0:	913fe001 	add	x1, x0, #0xff8
   87bb4:	f9400fe0 	ldr	x0, [sp, #24]
   87bb8:	f9000001 	str	x1, [x0]
   87bbc:	f9400fe2 	ldr	x2, [sp, #24]
   87bc0:	f9400be0 	ldr	x0, [sp, #16]
   87bc4:	a9400400 	ldp	x0, x1, [x0]
   87bc8:	a9008440 	stp	x0, x1, [x2, #8]
   87bcc:	d503201f 	nop
   87bd0:	a8c27bfd 	ldp	x29, x30, [sp], #32
   87bd4:	d65f03c0 	ret

0000000000087bd8 <_ZN8valkyrie6kernel9SharedPtrINS0_8FunctionIFbRNS0_9UniquePtrINS0_4TaskEEEEE12CallableImplIZNS0_13TaskScheduler11remove_taskERKS4_EUlRT_E_EEEC1EPSG_>:
   87bd8:	a9bd7bfd 	stp	x29, x30, [sp, #-48]!
   87bdc:	910003fd 	mov	x29, sp
   87be0:	f9000bf3 	str	x19, [sp, #16]
   87be4:	f90017e0 	str	x0, [sp, #40]
   87be8:	f90013e1 	str	x1, [sp, #32]
   87bec:	d2800200 	mov	x0, #0x10                  	// #16
   87bf0:	97ffec76 	bl	82dc8 <_Znwm>
   87bf4:	aa0003f3 	mov	x19, x0
   87bf8:	52800022 	mov	w2, #0x1                   	// #1
   87bfc:	f94013e1 	ldr	x1, [sp, #32]
   87c00:	aa1303e0 	mov	x0, x19
   87c04:	94000060 	bl	87d84 <_ZN8valkyrie6kernel9SharedPtrINS0_8FunctionIFbRNS0_9UniquePtrINS0_4TaskEEEEE12CallableImplIZNS0_13TaskScheduler11remove_taskERKS4_EUlRT_E_EEE12ControlBlockC1EPSG_i>
   87c08:	f94017e0 	ldr	x0, [sp, #40]
   87c0c:	f9000013 	str	x19, [x0]
   87c10:	f94017e0 	ldr	x0, [sp, #40]
   87c14:	f900041f 	str	xzr, [x0, #8]
   87c18:	d503201f 	nop
   87c1c:	f9400bf3 	ldr	x19, [sp, #16]
   87c20:	a8c37bfd 	ldp	x29, x30, [sp], #48
   87c24:	d65f03c0 	ret

0000000000087c28 <_ZN8valkyrie6kernel8FunctionIFbRNS0_9UniquePtrINS0_4TaskEEEEE12CallableImplIZNS0_13TaskScheduler11remove_taskERKS3_EUlRT_E_ED1Ev>:
   87c28:	a9be7bfd 	stp	x29, x30, [sp, #-32]!
   87c2c:	910003fd 	mov	x29, sp
   87c30:	f9000fe0 	str	x0, [sp, #24]
   87c34:	f0000040 	adrp	x0, 92000 <_Z6printkIJPKN8valkyrie6kernel8FunctionIFvvEEEEEvPKcDpOT_+0x18>
   87c38:	913fe001 	add	x1, x0, #0xff8
   87c3c:	f9400fe0 	ldr	x0, [sp, #24]
   87c40:	f9000001 	str	x1, [x0]
   87c44:	f9400fe0 	ldr	x0, [sp, #24]
   87c48:	9400256b 	bl	911f4 <_ZN8valkyrie6kernel8FunctionIFbRNS0_9UniquePtrINS0_4TaskEEEEE13CallableIfaceD1Ev>
   87c4c:	d503201f 	nop
   87c50:	a8c27bfd 	ldp	x29, x30, [sp], #32
   87c54:	d65f03c0 	ret

0000000000087c58 <_ZN8valkyrie6kernel8FunctionIFbRNS0_9UniquePtrINS0_4TaskEEEEE12CallableImplIZNS0_13TaskScheduler11remove_taskERKS3_EUlRT_E_ED0Ev>:
   87c58:	a9be7bfd 	stp	x29, x30, [sp, #-32]!
   87c5c:	910003fd 	mov	x29, sp
   87c60:	f9000fe0 	str	x0, [sp, #24]
   87c64:	f9400fe0 	ldr	x0, [sp, #24]
   87c68:	97fffff0 	bl	87c28 <_ZN8valkyrie6kernel8FunctionIFbRNS0_9UniquePtrINS0_4TaskEEEEE12CallableImplIZNS0_13TaskScheduler11remove_taskERKS3_EUlRT_E_ED1Ev>
   87c6c:	d2800301 	mov	x1, #0x18                  	// #24
   87c70:	f9400fe0 	ldr	x0, [sp, #24]
   87c74:	97ffec73 	bl	82e40 <_ZdlPvm>
   87c78:	a8c27bfd 	ldp	x29, x30, [sp], #32
   87c7c:	d65f03c0 	ret

0000000000087c80 <_ZN8valkyrie6kernel9SharedPtrINS0_8FunctionIFbRNS0_9UniquePtrINS0_4TaskEEEEE12CallableImplIZNS0_13TaskScheduler11remove_taskERKS4_EUlRT_E_EEE13dec_use_countEv>:
   87c80:	a9be7bfd 	stp	x29, x30, [sp, #-32]!
   87c84:	910003fd 	mov	x29, sp
   87c88:	f9000fe0 	str	x0, [sp, #24]
   87c8c:	f9400fe0 	ldr	x0, [sp, #24]
   87c90:	9400004a 	bl	87db8 <_ZNK8valkyrie6kernel9SharedPtrINS0_8FunctionIFbRNS0_9UniquePtrINS0_4TaskEEEEE12CallableImplIZNS0_13TaskScheduler11remove_taskERKS4_EUlRT_E_EEE8is_validEv>
   87c94:	12001c00 	and	w0, w0, #0xff
   87c98:	7100001f 	cmp	w0, #0x0
   87c9c:	54000420 	b.eq	87d20 <_ZN8valkyrie6kernel9SharedPtrINS0_8FunctionIFbRNS0_9UniquePtrINS0_4TaskEEEEE12CallableImplIZNS0_13TaskScheduler11remove_taskERKS4_EUlRT_E_EEE13dec_use_countEv+0xa0>  // b.none
   87ca0:	f9400fe0 	ldr	x0, [sp, #24]
   87ca4:	f9400000 	ldr	x0, [x0]
   87ca8:	b9400801 	ldr	w1, [x0, #8]
   87cac:	51000421 	sub	w1, w1, #0x1
   87cb0:	b9000801 	str	w1, [x0, #8]
   87cb4:	f9400fe0 	ldr	x0, [sp, #24]
   87cb8:	94000050 	bl	87df8 <_ZNK8valkyrie6kernel9SharedPtrINS0_8FunctionIFbRNS0_9UniquePtrINS0_4TaskEEEEE12CallableImplIZNS0_13TaskScheduler11remove_taskERKS4_EUlRT_E_EEE9use_countEv>
   87cbc:	7100001f 	cmp	w0, #0x0
   87cc0:	1a9f17e0 	cset	w0, eq  // eq = none
   87cc4:	12001c00 	and	w0, w0, #0xff
   87cc8:	7100001f 	cmp	w0, #0x0
   87ccc:	540002a0 	b.eq	87d20 <_ZN8valkyrie6kernel9SharedPtrINS0_8FunctionIFbRNS0_9UniquePtrINS0_4TaskEEEEE12CallableImplIZNS0_13TaskScheduler11remove_taskERKS4_EUlRT_E_EEE13dec_use_countEv+0xa0>  // b.none
   87cd0:	f9400fe0 	ldr	x0, [sp, #24]
   87cd4:	f9400000 	ldr	x0, [x0]
   87cd8:	f9400000 	ldr	x0, [x0]
   87cdc:	f100001f 	cmp	x0, #0x0
   87ce0:	540000a0 	b.eq	87cf4 <_ZN8valkyrie6kernel9SharedPtrINS0_8FunctionIFbRNS0_9UniquePtrINS0_4TaskEEEEE12CallableImplIZNS0_13TaskScheduler11remove_taskERKS4_EUlRT_E_EEE13dec_use_countEv+0x74>  // b.none
   87ce4:	f9400001 	ldr	x1, [x0]
   87ce8:	91002021 	add	x1, x1, #0x8
   87cec:	f9400021 	ldr	x1, [x1]
   87cf0:	d63f0020 	blr	x1
   87cf4:	f9400fe0 	ldr	x0, [sp, #24]
   87cf8:	f9400000 	ldr	x0, [x0]
   87cfc:	f100001f 	cmp	x0, #0x0
   87d00:	54000060 	b.eq	87d0c <_ZN8valkyrie6kernel9SharedPtrINS0_8FunctionIFbRNS0_9UniquePtrINS0_4TaskEEEEE12CallableImplIZNS0_13TaskScheduler11remove_taskERKS4_EUlRT_E_EEE13dec_use_countEv+0x8c>  // b.none
   87d04:	d2800201 	mov	x1, #0x10                  	// #16
   87d08:	97ffec4e 	bl	82e40 <_ZdlPvm>
   87d0c:	f9400fe0 	ldr	x0, [sp, #24]
   87d10:	f9400000 	ldr	x0, [x0]
   87d14:	f900001f 	str	xzr, [x0]
   87d18:	f9400fe0 	ldr	x0, [sp, #24]
   87d1c:	f900001f 	str	xzr, [x0]
   87d20:	d503201f 	nop
   87d24:	a8c27bfd 	ldp	x29, x30, [sp], #32
   87d28:	d65f03c0 	ret

0000000000087d2c <_ZN8valkyrie6kernel20dynamic_pointer_castINS0_8FunctionIFbRNS0_9UniquePtrINS0_4TaskEEEEE13CallableIfaceENS8_12CallableImplIZNS0_13TaskScheduler11remove_taskERKS4_EUlRT_E_EEEENS0_9SharedPtrISE_EERKNSI_IT0_EE>:
   87d2c:	a9bc7bfd 	stp	x29, x30, [sp, #-64]!
   87d30:	910003fd 	mov	x29, sp
   87d34:	f9000bf3 	str	x19, [sp, #16]
   87d38:	aa0803f3 	mov	x19, x8
   87d3c:	f90017e0 	str	x0, [sp, #40]
   87d40:	f94017e0 	ldr	x0, [sp, #40]
   87d44:	9400003c 	bl	87e34 <_ZNK8valkyrie6kernel9SharedPtrINS0_8FunctionIFbRNS0_9UniquePtrINS0_4TaskEEEEE12CallableImplIZNS0_13TaskScheduler11remove_taskERKS4_EUlRT_E_EEE3getEv>
   87d48:	f9001fe0 	str	x0, [sp, #56]
   87d4c:	f9401fe0 	ldr	x0, [sp, #56]
   87d50:	f100001f 	cmp	x0, #0x0
   87d54:	540000c0 	b.eq	87d6c <_ZN8valkyrie6kernel20dynamic_pointer_castINS0_8FunctionIFbRNS0_9UniquePtrINS0_4TaskEEEEE13CallableIfaceENS8_12CallableImplIZNS0_13TaskScheduler11remove_taskERKS4_EUlRT_E_EEEENS0_9SharedPtrISE_EERKNSI_IT0_EE+0x40>  // b.none
   87d58:	f9401fe2 	ldr	x2, [sp, #56]
   87d5c:	f94017e1 	ldr	x1, [sp, #40]
   87d60:	aa1303e0 	mov	x0, x19
   87d64:	94000049 	bl	87e88 <_ZN8valkyrie6kernel9SharedPtrINS0_8FunctionIFbRNS0_9UniquePtrINS0_4TaskEEEEE13CallableIfaceEEC1INS8_12CallableImplIZNS0_13TaskScheduler11remove_taskERKS4_EUlRT_E_EEEERKNS1_ISG_EEPS9_>
   87d68:	14000003 	b	87d74 <_ZN8valkyrie6kernel20dynamic_pointer_castINS0_8FunctionIFbRNS0_9UniquePtrINS0_4TaskEEEEE13CallableIfaceENS8_12CallableImplIZNS0_13TaskScheduler11remove_taskERKS4_EUlRT_E_EEEENS0_9SharedPtrISE_EERKNSI_IT0_EE+0x48>
   87d6c:	aa1303e0 	mov	x0, x19
   87d70:	94002518 	bl	911d0 <_ZN8valkyrie6kernel9SharedPtrINS0_8FunctionIFbRNS0_9UniquePtrINS0_4TaskEEEEE13CallableIfaceEEC1Ev>
   87d74:	aa1303e0 	mov	x0, x19
   87d78:	f9400bf3 	ldr	x19, [sp, #16]
   87d7c:	a8c47bfd 	ldp	x29, x30, [sp], #64
   87d80:	d65f03c0 	ret

0000000000087d84 <_ZN8valkyrie6kernel9SharedPtrINS0_8FunctionIFbRNS0_9UniquePtrINS0_4TaskEEEEE12CallableImplIZNS0_13TaskScheduler11remove_taskERKS4_EUlRT_E_EEE12ControlBlockC1EPSG_i>:
   87d84:	d10083ff 	sub	sp, sp, #0x20
   87d88:	f9000fe0 	str	x0, [sp, #24]
   87d8c:	f9000be1 	str	x1, [sp, #16]
   87d90:	b9000fe2 	str	w2, [sp, #12]
   87d94:	f9400fe0 	ldr	x0, [sp, #24]
   87d98:	f9400be1 	ldr	x1, [sp, #16]
   87d9c:	f9000001 	str	x1, [x0]
   87da0:	f9400fe0 	ldr	x0, [sp, #24]
   87da4:	b9400fe1 	ldr	w1, [sp, #12]
   87da8:	b9000801 	str	w1, [x0, #8]
   87dac:	d503201f 	nop
   87db0:	910083ff 	add	sp, sp, #0x20
   87db4:	d65f03c0 	ret

0000000000087db8 <_ZNK8valkyrie6kernel9SharedPtrINS0_8FunctionIFbRNS0_9UniquePtrINS0_4TaskEEEEE12CallableImplIZNS0_13TaskScheduler11remove_taskERKS4_EUlRT_E_EEE8is_validEv>:
   87db8:	d10043ff 	sub	sp, sp, #0x10
   87dbc:	f90007e0 	str	x0, [sp, #8]
   87dc0:	f94007e0 	ldr	x0, [sp, #8]
   87dc4:	f9400000 	ldr	x0, [x0]
   87dc8:	f100001f 	cmp	x0, #0x0
   87dcc:	54000100 	b.eq	87dec <_ZNK8valkyrie6kernel9SharedPtrINS0_8FunctionIFbRNS0_9UniquePtrINS0_4TaskEEEEE12CallableImplIZNS0_13TaskScheduler11remove_taskERKS4_EUlRT_E_EEE8is_validEv+0x34>  // b.none
   87dd0:	f94007e0 	ldr	x0, [sp, #8]
   87dd4:	f9400000 	ldr	x0, [x0]
   87dd8:	b9400800 	ldr	w0, [x0, #8]
   87ddc:	7100001f 	cmp	w0, #0x0
   87de0:	5400006d 	b.le	87dec <_ZNK8valkyrie6kernel9SharedPtrINS0_8FunctionIFbRNS0_9UniquePtrINS0_4TaskEEEEE12CallableImplIZNS0_13TaskScheduler11remove_taskERKS4_EUlRT_E_EEE8is_validEv+0x34>
   87de4:	52800020 	mov	w0, #0x1                   	// #1
   87de8:	14000002 	b	87df0 <_ZNK8valkyrie6kernel9SharedPtrINS0_8FunctionIFbRNS0_9UniquePtrINS0_4TaskEEEEE12CallableImplIZNS0_13TaskScheduler11remove_taskERKS4_EUlRT_E_EEE8is_validEv+0x38>
   87dec:	52800000 	mov	w0, #0x0                   	// #0
   87df0:	910043ff 	add	sp, sp, #0x10
   87df4:	d65f03c0 	ret

0000000000087df8 <_ZNK8valkyrie6kernel9SharedPtrINS0_8FunctionIFbRNS0_9UniquePtrINS0_4TaskEEEEE12CallableImplIZNS0_13TaskScheduler11remove_taskERKS4_EUlRT_E_EEE9use_countEv>:
   87df8:	a9be7bfd 	stp	x29, x30, [sp, #-32]!
   87dfc:	910003fd 	mov	x29, sp
   87e00:	f9000fe0 	str	x0, [sp, #24]
   87e04:	f9400fe0 	ldr	x0, [sp, #24]
   87e08:	97ffffec 	bl	87db8 <_ZNK8valkyrie6kernel9SharedPtrINS0_8FunctionIFbRNS0_9UniquePtrINS0_4TaskEEEEE12CallableImplIZNS0_13TaskScheduler11remove_taskERKS4_EUlRT_E_EEE8is_validEv>
   87e0c:	12001c00 	and	w0, w0, #0xff
   87e10:	7100001f 	cmp	w0, #0x0
   87e14:	540000a0 	b.eq	87e28 <_ZNK8valkyrie6kernel9SharedPtrINS0_8FunctionIFbRNS0_9UniquePtrINS0_4TaskEEEEE12CallableImplIZNS0_13TaskScheduler11remove_taskERKS4_EUlRT_E_EEE9use_countEv+0x30>  // b.none
   87e18:	f9400fe0 	ldr	x0, [sp, #24]
   87e1c:	f9400000 	ldr	x0, [x0]
   87e20:	b9400800 	ldr	w0, [x0, #8]
   87e24:	14000002 	b	87e2c <_ZNK8valkyrie6kernel9SharedPtrINS0_8FunctionIFbRNS0_9UniquePtrINS0_4TaskEEEEE12CallableImplIZNS0_13TaskScheduler11remove_taskERKS4_EUlRT_E_EEE9use_countEv+0x34>
   87e28:	52800000 	mov	w0, #0x0                   	// #0
   87e2c:	a8c27bfd 	ldp	x29, x30, [sp], #32
   87e30:	d65f03c0 	ret

0000000000087e34 <_ZNK8valkyrie6kernel9SharedPtrINS0_8FunctionIFbRNS0_9UniquePtrINS0_4TaskEEEEE12CallableImplIZNS0_13TaskScheduler11remove_taskERKS4_EUlRT_E_EEE3getEv>:
   87e34:	d10043ff 	sub	sp, sp, #0x10
   87e38:	f90007e0 	str	x0, [sp, #8]
   87e3c:	f94007e0 	ldr	x0, [sp, #8]
   87e40:	f9400400 	ldr	x0, [x0, #8]
   87e44:	f100001f 	cmp	x0, #0x0
   87e48:	54000080 	b.eq	87e58 <_ZNK8valkyrie6kernel9SharedPtrINS0_8FunctionIFbRNS0_9UniquePtrINS0_4TaskEEEEE12CallableImplIZNS0_13TaskScheduler11remove_taskERKS4_EUlRT_E_EEE3getEv+0x24>  // b.none
   87e4c:	f94007e0 	ldr	x0, [sp, #8]
   87e50:	f9400400 	ldr	x0, [x0, #8]
   87e54:	1400000b 	b	87e80 <_ZNK8valkyrie6kernel9SharedPtrINS0_8FunctionIFbRNS0_9UniquePtrINS0_4TaskEEEEE12CallableImplIZNS0_13TaskScheduler11remove_taskERKS4_EUlRT_E_EEE3getEv+0x4c>
   87e58:	f94007e0 	ldr	x0, [sp, #8]
   87e5c:	f9400000 	ldr	x0, [x0]
   87e60:	f100001f 	cmp	x0, #0x0
   87e64:	540000a0 	b.eq	87e78 <_ZNK8valkyrie6kernel9SharedPtrINS0_8FunctionIFbRNS0_9UniquePtrINS0_4TaskEEEEE12CallableImplIZNS0_13TaskScheduler11remove_taskERKS4_EUlRT_E_EEE3getEv+0x44>  // b.none
   87e68:	f94007e0 	ldr	x0, [sp, #8]
   87e6c:	f9400000 	ldr	x0, [x0]
   87e70:	f9400000 	ldr	x0, [x0]
   87e74:	14000002 	b	87e7c <_ZNK8valkyrie6kernel9SharedPtrINS0_8FunctionIFbRNS0_9UniquePtrINS0_4TaskEEEEE12CallableImplIZNS0_13TaskScheduler11remove_taskERKS4_EUlRT_E_EEE3getEv+0x48>
   87e78:	d2800000 	mov	x0, #0x0                   	// #0
   87e7c:	d503201f 	nop
   87e80:	910043ff 	add	sp, sp, #0x10
   87e84:	d65f03c0 	ret

0000000000087e88 <_ZN8valkyrie6kernel9SharedPtrINS0_8FunctionIFbRNS0_9UniquePtrINS0_4TaskEEEEE13CallableIfaceEEC1INS8_12CallableImplIZNS0_13TaskScheduler11remove_taskERKS4_EUlRT_E_EEEERKNS1_ISG_EEPS9_>:
   87e88:	a9bd7bfd 	stp	x29, x30, [sp, #-48]!
   87e8c:	910003fd 	mov	x29, sp
   87e90:	f90017e0 	str	x0, [sp, #40]
   87e94:	f90013e1 	str	x1, [sp, #32]
   87e98:	f9000fe2 	str	x2, [sp, #24]
   87e9c:	f94013e0 	ldr	x0, [sp, #32]
   87ea0:	f9400001 	ldr	x1, [x0]
   87ea4:	f94017e0 	ldr	x0, [sp, #40]
   87ea8:	f9000001 	str	x1, [x0]
   87eac:	f94017e0 	ldr	x0, [sp, #40]
   87eb0:	f9400fe1 	ldr	x1, [sp, #24]
   87eb4:	f9000401 	str	x1, [x0, #8]
   87eb8:	f94017e0 	ldr	x0, [sp, #40]
   87ebc:	94002673 	bl	91888 <_ZN8valkyrie6kernel9SharedPtrINS0_8FunctionIFbRNS0_9UniquePtrINS0_4TaskEEEEE13CallableIfaceEE13inc_use_countEv>
   87ec0:	d503201f 	nop
   87ec4:	a8c37bfd 	ldp	x29, x30, [sp], #48
   87ec8:	d65f03c0 	ret

0000000000087ecc <_ZZN8valkyrie6kernel13TaskScheduler11remove_taskERKNS0_4TaskEENKUlRT_E_clINS0_9UniquePtrIS2_EEEEDaS6_>:
   87ecc:	a9be7bfd 	stp	x29, x30, [sp, #-32]!
   87ed0:	910003fd 	mov	x29, sp
   87ed4:	f9000fe0 	str	x0, [sp, #24]
   87ed8:	f9000be1 	str	x1, [sp, #16]
   87edc:	f9400be0 	ldr	x0, [sp, #16]
   87ee0:	94002212 	bl	90728 <_ZNK8valkyrie6kernel9UniquePtrINS0_4TaskEE3getEv>
   87ee4:	aa0003e1 	mov	x1, x0
   87ee8:	f9400fe0 	ldr	x0, [sp, #24]
   87eec:	f9400400 	ldr	x0, [x0, #8]
   87ef0:	eb00003f 	cmp	x1, x0
   87ef4:	54000121 	b.ne	87f18 <_ZZN8valkyrie6kernel13TaskScheduler11remove_taskERKNS0_4TaskEENKUlRT_E_clINS0_9UniquePtrIS2_EEEEDaS6_+0x4c>  // b.any
   87ef8:	f9400be0 	ldr	x0, [sp, #16]
   87efc:	940020e9 	bl	902a0 <_ZN8valkyrie6kernel4moveIRNS0_9UniquePtrINS0_4TaskEEEEEONS0_16_RemoveReferenceIT_E4TypeEOS7_>
   87f00:	aa0003e1 	mov	x1, x0
   87f04:	f9400fe0 	ldr	x0, [sp, #24]
   87f08:	f9400000 	ldr	x0, [x0]
   87f0c:	9400266f 	bl	918c8 <_ZN8valkyrie6kernel9UniquePtrINS0_4TaskEEaSEOS3_>
   87f10:	52800020 	mov	w0, #0x1                   	// #1
   87f14:	14000002 	b	87f1c <_ZZN8valkyrie6kernel13TaskScheduler11remove_taskERKNS0_4TaskEENKUlRT_E_clINS0_9UniquePtrIS2_EEEEDaS6_+0x50>
   87f18:	52800000 	mov	w0, #0x0                   	// #0
   87f1c:	a8c27bfd 	ldp	x29, x30, [sp], #32
   87f20:	d65f03c0 	ret

0000000000087f24 <_ZN8valkyrie6kernel8FunctionIFbRNS0_9UniquePtrINS0_4TaskEEEEE12CallableImplIZNS0_13TaskScheduler11remove_taskERKS3_EUlRT_E_E4callES5_>:
   87f24:	a9be7bfd 	stp	x29, x30, [sp, #-32]!
   87f28:	910003fd 	mov	x29, sp
   87f2c:	f9000fe0 	str	x0, [sp, #24]
   87f30:	f9000be1 	str	x1, [sp, #16]
   87f34:	f9400fe0 	ldr	x0, [sp, #24]
   87f38:	91002000 	add	x0, x0, #0x8
   87f3c:	f9400be1 	ldr	x1, [sp, #16]
   87f40:	97ffffe3 	bl	87ecc <_ZZN8valkyrie6kernel13TaskScheduler11remove_taskERKNS0_4TaskEENKUlRT_E_clINS0_9UniquePtrIS2_EEEEDaS6_>
   87f44:	12001c00 	and	w0, w0, #0xff
   87f48:	a8c27bfd 	ldp	x29, x30, [sp], #32
   87f4c:	d65f03c0 	ret

0000000000087f50 <_ZN8valkyrie6kernel16TimerMultiplexer12get_instanceEv>:
   87f50:	a9bf7bfd 	stp	x29, x30, [sp, #-16]!
   87f54:	910003fd 	mov	x29, sp
   87f58:	d0000060 	adrp	x0, 95000 <_ZZN8valkyrie6kernel13MemoryManager12get_instanceEvE8instance+0x1e58>
   87f5c:	9120c000 	add	x0, x0, #0x830
   87f60:	f9400000 	ldr	x0, [x0]
   87f64:	92400000 	and	x0, x0, #0x1
   87f68:	f100001f 	cmp	x0, #0x0
   87f6c:	540001e1 	b.ne	87fa8 <_ZN8valkyrie6kernel16TimerMultiplexer12get_instanceEv+0x58>  // b.any
   87f70:	d0000060 	adrp	x0, 95000 <_ZZN8valkyrie6kernel13MemoryManager12get_instanceEvE8instance+0x1e58>
   87f74:	91202000 	add	x0, x0, #0x808
   87f78:	94000010 	bl	87fb8 <_ZN8valkyrie6kernel16TimerMultiplexerC1Ev>
   87f7c:	d0000060 	adrp	x0, 95000 <_ZZN8valkyrie6kernel13MemoryManager12get_instanceEvE8instance+0x1e58>
   87f80:	9120c000 	add	x0, x0, #0x830
   87f84:	d2800021 	mov	x1, #0x1                   	// #1
   87f88:	f9000001 	str	x1, [x0]
   87f8c:	b0ffffc0 	adrp	x0, 80000 <_start>
   87f90:	91097002 	add	x2, x0, #0x25c
   87f94:	d0000060 	adrp	x0, 95000 <_ZZN8valkyrie6kernel13MemoryManager12get_instanceEvE8instance+0x1e58>
   87f98:	91202001 	add	x1, x0, #0x808
   87f9c:	d0000040 	adrp	x0, 91000 <_ZN8valkyrie6kernel11make_uniqueINS0_16DoublyLinkedListINS0_9UniquePtrINS0_4TaskEEEE4NodeEJEEENS0_9_UniqueIfIT_E13_SingleObjectEDpOT0_+0x20>
   87fa0:	91246000 	add	x0, x0, #0x918
   87fa4:	97ffe0ac 	bl	80254 <__cxa_atexit>
   87fa8:	d0000060 	adrp	x0, 95000 <_ZZN8valkyrie6kernel13MemoryManager12get_instanceEvE8instance+0x1e58>
   87fac:	91202000 	add	x0, x0, #0x808
   87fb0:	a8c17bfd 	ldp	x29, x30, [sp], #16
   87fb4:	d65f03c0 	ret

0000000000087fb8 <_ZN8valkyrie6kernel16TimerMultiplexerC1Ev>:
   87fb8:	a9be7bfd 	stp	x29, x30, [sp, #-32]!
   87fbc:	910003fd 	mov	x29, sp
   87fc0:	f9000fe0 	str	x0, [sp, #24]
   87fc4:	f9400fe0 	ldr	x0, [sp, #24]
   87fc8:	94000070 	bl	88188 <_ZN8valkyrie6kernel12ARMCoreTimerC1Ev>
   87fcc:	f9400fe0 	ldr	x0, [sp, #24]
   87fd0:	91004000 	add	x0, x0, #0x10
   87fd4:	52800081 	mov	w1, #0x4                   	// #4
   87fd8:	9400266c 	bl	91988 <_ZN8valkyrie6kernel5DequeINS0_16TimerMultiplexer5EventEEC1Ei>
   87fdc:	d503201f 	nop
   87fe0:	a8c27bfd 	ldp	x29, x30, [sp], #32
   87fe4:	d65f03c0 	ret

0000000000087fe8 <_ZN8valkyrie6kernel16TimerMultiplexer4tickEv>:
   87fe8:	a9bc7bfd 	stp	x29, x30, [sp, #-64]!
   87fec:	910003fd 	mov	x29, sp
   87ff0:	f9000fe0 	str	x0, [sp, #24]
   87ff4:	f9400fe0 	ldr	x0, [sp, #24]
   87ff8:	940000a3 	bl	88284 <_ZN8valkyrie6kernel12ARMCoreTimer4tickEv>
   87ffc:	f9400fe0 	ldr	x0, [sp, #24]
   88000:	940000bd 	bl	882f4 <_ZNK8valkyrie6kernel12ARMCoreTimer11get_jiffiesEv>
   88004:	b9002fe0 	str	w0, [sp, #44]
   88008:	9100b3e0 	add	x0, sp, #0x2c
   8800c:	aa0003e1 	mov	x1, x0
   88010:	b0000000 	adrp	x0, 89000 <_ZN8valkyrie6kernel8FunctionIFvvEE12CallableImplIZNS0_16__run_unit_testsEvEUlvE_E4callEv+0x5e8>
   88014:	9133a000 	add	x0, x0, #0xce8
   88018:	9400266c 	bl	919c8 <_Z6printkIJjEEvPKcDpOT_>
   8801c:	f9001fff 	str	xzr, [sp, #56]
   88020:	f9400fe0 	ldr	x0, [sp, #24]
   88024:	91004000 	add	x0, x0, #0x10
   88028:	940026a1 	bl	91aac <_ZNK8valkyrie6kernel5DequeINS0_16TimerMultiplexer5EventEE4sizeEv>
   8802c:	aa0003e1 	mov	x1, x0
   88030:	f9401fe0 	ldr	x0, [sp, #56]
   88034:	eb01001f 	cmp	x0, x1
   88038:	1a9f27e0 	cset	w0, cc  // cc = lo, ul, last
   8803c:	12001c00 	and	w0, w0, #0xff
   88040:	7100001f 	cmp	w0, #0x0
   88044:	54000520 	b.eq	880e8 <_ZN8valkyrie6kernel16TimerMultiplexer4tickEv+0x100>  // b.none
   88048:	f9400fe0 	ldr	x0, [sp, #24]
   8804c:	91004000 	add	x0, x0, #0x10
   88050:	f9401fe1 	ldr	x1, [sp, #56]
   88054:	9400269c 	bl	91ac4 <_ZN8valkyrie6kernel5DequeINS0_16TimerMultiplexer5EventEEixEm>
   88058:	f9001be0 	str	x0, [sp, #48]
   8805c:	f9401be0 	ldr	x0, [sp, #48]
   88060:	b9401000 	ldr	w0, [x0, #16]
   88064:	51000402 	sub	w2, w0, #0x1
   88068:	f9401be1 	ldr	x1, [sp, #48]
   8806c:	b9001022 	str	w2, [x1, #16]
   88070:	7100001f 	cmp	w0, #0x0
   88074:	1a9f17e0 	cset	w0, eq  // eq = none
   88078:	12001c00 	and	w0, w0, #0xff
   8807c:	7100001f 	cmp	w0, #0x0
   88080:	54000160 	b.eq	880ac <_ZN8valkyrie6kernel16TimerMultiplexer4tickEv+0xc4>  // b.none
   88084:	f9401be0 	ldr	x0, [sp, #48]
   88088:	94002698 	bl	91ae8 <_ZNK8valkyrie6kernel8FunctionIFvvEEclEv>
   8808c:	f9400fe0 	ldr	x0, [sp, #24]
   88090:	91004002 	add	x2, x0, #0x10
   88094:	f9401fe0 	ldr	x0, [sp, #56]
   88098:	d1000401 	sub	x1, x0, #0x1
   8809c:	f9001fe1 	str	x1, [sp, #56]
   880a0:	2a0003e1 	mov	w1, w0
   880a4:	aa0203e0 	mov	x0, x2
   880a8:	940026bc 	bl	91b98 <_ZN8valkyrie6kernel5DequeINS0_16TimerMultiplexer5EventEE5eraseEi>
   880ac:	f9400fe0 	ldr	x0, [sp, #24]
   880b0:	91004000 	add	x0, x0, #0x10
   880b4:	940026ef 	bl	91c70 <_ZNK8valkyrie6kernel5DequeINS0_16TimerMultiplexer5EventEE5emptyEv>
   880b8:	12001c00 	and	w0, w0, #0xff
   880bc:	7100001f 	cmp	w0, #0x0
   880c0:	540000c0 	b.eq	880d8 <_ZN8valkyrie6kernel16TimerMultiplexer4tickEv+0xf0>  // b.none
   880c4:	f9400fe0 	ldr	x0, [sp, #24]
   880c8:	91004000 	add	x0, x0, #0x10
   880cc:	940026f2 	bl	91c94 <_ZN8valkyrie6kernel5DequeINS0_16TimerMultiplexer5EventEE5clearEv>
   880d0:	f9400fe0 	ldr	x0, [sp, #24]
   880d4:	94000058 	bl	88234 <_ZN8valkyrie6kernel12ARMCoreTimer7disableEv>
   880d8:	f9401fe0 	ldr	x0, [sp, #56]
   880dc:	91000400 	add	x0, x0, #0x1
   880e0:	f9001fe0 	str	x0, [sp, #56]
   880e4:	17ffffcf 	b	88020 <_ZN8valkyrie6kernel16TimerMultiplexer4tickEv+0x38>
   880e8:	d503201f 	nop
   880ec:	a8c47bfd 	ldp	x29, x30, [sp], #64
   880f0:	d65f03c0 	ret

00000000000880f4 <_ZN8valkyrie6kernel16TimerMultiplexer9add_timerENS0_8FunctionIFvvEEEj>:
   880f4:	a9ba7bfd 	stp	x29, x30, [sp, #-96]!
   880f8:	910003fd 	mov	x29, sp
   880fc:	f9000bf3 	str	x19, [sp, #16]
   88100:	f9001fe0 	str	x0, [sp, #56]
   88104:	f9001be1 	str	x1, [sp, #48]
   88108:	b9002fe2 	str	w2, [sp, #44]
   8810c:	9100b3e0 	add	x0, sp, #0x2c
   88110:	aa0003e1 	mov	x1, x0
   88114:	b0000000 	adrp	x0, 89000 <_ZN8valkyrie6kernel8FunctionIFvvEE12CallableImplIZNS0_16__run_unit_testsEvEUlvE_E4callEv+0x5e8>
   88118:	91344000 	add	x0, x0, #0xd10
   8811c:	940019dc 	bl	8e88c <_Z6printkIJRKjEEvPKcDpOT_>
   88120:	f9401fe0 	ldr	x0, [sp, #56]
   88124:	91004013 	add	x19, x0, #0x10
   88128:	f9401be0 	ldr	x0, [sp, #48]
   8812c:	940026e6 	bl	91cc4 <_ZN8valkyrie6kernel4moveIRNS0_8FunctionIFvvEEEEEONS0_16_RemoveReferenceIT_E4TypeEOS7_>
   88130:	aa0003e1 	mov	x1, x0
   88134:	910123e0 	add	x0, sp, #0x48
   88138:	940026e8 	bl	91cd8 <_ZN8valkyrie6kernel8FunctionIFvvEEC1EOS3_>
   8813c:	b9402fe0 	ldr	w0, [sp, #44]
   88140:	b9005be0 	str	w0, [sp, #88]
   88144:	910123e0 	add	x0, sp, #0x48
   88148:	aa0003e1 	mov	x1, x0
   8814c:	aa1303e0 	mov	x0, x19
   88150:	940026f0 	bl	91d10 <_ZN8valkyrie6kernel5DequeINS0_16TimerMultiplexer5EventEE9push_backIS3_EEvOT_>
   88154:	910123e0 	add	x0, sp, #0x48
   88158:	940025f9 	bl	9193c <_ZN8valkyrie6kernel16TimerMultiplexer5EventD1Ev>
   8815c:	f9401fe0 	ldr	x0, [sp, #56]
   88160:	9400001c 	bl	881d0 <_ZN8valkyrie6kernel12ARMCoreTimer6enableEv>
   88164:	d503201f 	nop
   88168:	f9400bf3 	ldr	x19, [sp, #16]
   8816c:	a8c67bfd 	ldp	x29, x30, [sp], #96
   88170:	d65f03c0 	ret

0000000000088174 <_ZN8valkyrie6kernel16TimerMultiplexer18get_arm_core_timerEv>:
   88174:	d10043ff 	sub	sp, sp, #0x10
   88178:	f90007e0 	str	x0, [sp, #8]
   8817c:	f94007e0 	ldr	x0, [sp, #8]
   88180:	910043ff 	add	sp, sp, #0x10
   88184:	d65f03c0 	ret

0000000000088188 <_ZN8valkyrie6kernel12ARMCoreTimerC1Ev>:
   88188:	d10043ff 	sub	sp, sp, #0x10
   8818c:	f90007e0 	str	x0, [sp, #8]
   88190:	f94007e0 	ldr	x0, [sp, #8]
   88194:	3900001f 	strb	wzr, [x0]
   88198:	f94007e0 	ldr	x0, [sp, #8]
   8819c:	52800021 	mov	w1, #0x1                   	// #1
   881a0:	b9000401 	str	w1, [x0, #4]
   881a4:	f94007e0 	ldr	x0, [sp, #8]
   881a8:	b900081f 	str	wzr, [x0, #8]
   881ac:	d503201f 	nop
   881b0:	910043ff 	add	sp, sp, #0x10
   881b4:	d65f03c0 	ret

00000000000881b8 <_ZNK8valkyrie6kernel12ARMCoreTimer10is_enabledEv>:
   881b8:	d10043ff 	sub	sp, sp, #0x10
   881bc:	f90007e0 	str	x0, [sp, #8]
   881c0:	f94007e0 	ldr	x0, [sp, #8]
   881c4:	39400000 	ldrb	w0, [x0]
   881c8:	910043ff 	add	sp, sp, #0x10
   881cc:	d65f03c0 	ret

00000000000881d0 <_ZN8valkyrie6kernel12ARMCoreTimer6enableEv>:
   881d0:	a9be7bfd 	stp	x29, x30, [sp, #-32]!
   881d4:	910003fd 	mov	x29, sp
   881d8:	f9000fe0 	str	x0, [sp, #24]
   881dc:	f9400fe0 	ldr	x0, [sp, #24]
   881e0:	39400000 	ldrb	w0, [x0]
   881e4:	7100001f 	cmp	w0, #0x0
   881e8:	54000201 	b.ne	88228 <_ZN8valkyrie6kernel12ARMCoreTimer6enableEv+0x58>  // b.any
   881ec:	52800020 	mov	w0, #0x1                   	// #1
   881f0:	d51be220 	msr	cntp_ctl_el0, x0
   881f4:	52800040 	mov	w0, #0x2                   	// #2
   881f8:	52800801 	mov	w1, #0x40                  	// #64
   881fc:	72a80001 	movk	w1, #0x4000, lsl #16
   88200:	f9000020 	str	x0, [x1]
   88204:	f9400fe0 	ldr	x0, [sp, #24]
   88208:	b9400400 	ldr	w0, [x0, #4]
   8820c:	2a0003e1 	mov	w1, w0
   88210:	f9400fe0 	ldr	x0, [sp, #24]
   88214:	9400002c 	bl	882c4 <_ZN8valkyrie6kernel12ARMCoreTimer28arrange_next_timer_irq_afterEj>
   88218:	f9400fe0 	ldr	x0, [sp, #24]
   8821c:	52800021 	mov	w1, #0x1                   	// #1
   88220:	39000001 	strb	w1, [x0]
   88224:	14000002 	b	8822c <_ZN8valkyrie6kernel12ARMCoreTimer6enableEv+0x5c>
   88228:	d503201f 	nop
   8822c:	a8c27bfd 	ldp	x29, x30, [sp], #32
   88230:	d65f03c0 	ret

0000000000088234 <_ZN8valkyrie6kernel12ARMCoreTimer7disableEv>:
   88234:	d10043ff 	sub	sp, sp, #0x10
   88238:	f90007e0 	str	x0, [sp, #8]
   8823c:	f94007e0 	ldr	x0, [sp, #8]
   88240:	39400000 	ldrb	w0, [x0]
   88244:	52000000 	eor	w0, w0, #0x1
   88248:	12001c00 	and	w0, w0, #0xff
   8824c:	7100001f 	cmp	w0, #0x0
   88250:	54000141 	b.ne	88278 <_ZN8valkyrie6kernel12ARMCoreTimer7disableEv+0x44>  // b.any
   88254:	52800000 	mov	w0, #0x0                   	// #0
   88258:	d51be220 	msr	cntp_ctl_el0, x0
   8825c:	52800001 	mov	w1, #0x0                   	// #0
   88260:	52800800 	mov	w0, #0x40                  	// #64
   88264:	72a80000 	movk	w0, #0x4000, lsl #16
   88268:	f9000001 	str	x1, [x0]
   8826c:	f94007e0 	ldr	x0, [sp, #8]
   88270:	3900001f 	strb	wzr, [x0]
   88274:	14000002 	b	8827c <_ZN8valkyrie6kernel12ARMCoreTimer7disableEv+0x48>
   88278:	d503201f 	nop
   8827c:	910043ff 	add	sp, sp, #0x10
   88280:	d65f03c0 	ret

0000000000088284 <_ZN8valkyrie6kernel12ARMCoreTimer4tickEv>:
   88284:	a9be7bfd 	stp	x29, x30, [sp, #-32]!
   88288:	910003fd 	mov	x29, sp
   8828c:	f9000fe0 	str	x0, [sp, #24]
   88290:	f9400fe0 	ldr	x0, [sp, #24]
   88294:	b9400400 	ldr	w0, [x0, #4]
   88298:	2a0003e1 	mov	w1, w0
   8829c:	f9400fe0 	ldr	x0, [sp, #24]
   882a0:	94000009 	bl	882c4 <_ZN8valkyrie6kernel12ARMCoreTimer28arrange_next_timer_irq_afterEj>
   882a4:	f9400fe0 	ldr	x0, [sp, #24]
   882a8:	b9400800 	ldr	w0, [x0, #8]
   882ac:	11000401 	add	w1, w0, #0x1
   882b0:	f9400fe0 	ldr	x0, [sp, #24]
   882b4:	b9000801 	str	w1, [x0, #8]
   882b8:	d503201f 	nop
   882bc:	a8c27bfd 	ldp	x29, x30, [sp], #32
   882c0:	d65f03c0 	ret

00000000000882c4 <_ZN8valkyrie6kernel12ARMCoreTimer28arrange_next_timer_irq_afterEj>:
   882c4:	d10083ff 	sub	sp, sp, #0x20
   882c8:	f90007e0 	str	x0, [sp, #8]
   882cc:	b90007e1 	str	w1, [sp, #4]
   882d0:	d53be000 	mrs	x0, cntfrq_el0
   882d4:	f9000fe0 	str	x0, [sp, #24]
   882d8:	b94007e1 	ldr	w1, [sp, #4]
   882dc:	f9400fe0 	ldr	x0, [sp, #24]
   882e0:	9b007c20 	mul	x0, x1, x0
   882e4:	d51be200 	msr	cntp_tval_el0, x0
   882e8:	d503201f 	nop
   882ec:	910083ff 	add	sp, sp, #0x20
   882f0:	d65f03c0 	ret

00000000000882f4 <_ZNK8valkyrie6kernel12ARMCoreTimer11get_jiffiesEv>:
   882f4:	d10043ff 	sub	sp, sp, #0x10
   882f8:	f90007e0 	str	x0, [sp, #8]
   882fc:	f94007e0 	ldr	x0, [sp, #8]
   88300:	b9400800 	ldr	w0, [x0, #8]
   88304:	910043ff 	add	sp, sp, #0x10
   88308:	d65f03c0 	ret

000000000008830c <_ZZN8valkyrie6kernel16__run_unit_testsEvENKUlvE_clEv>:
   8830c:	a9bd7bfd 	stp	x29, x30, [sp, #-48]!
   88310:	910003fd 	mov	x29, sp
   88314:	f9000fe0 	str	x0, [sp, #24]
   88318:	f9400fe0 	ldr	x0, [sp, #24]
   8831c:	94001c83 	bl	8f528 <_ZNK8valkyrie6kernel6String5c_strEv>
   88320:	f90017e0 	str	x0, [sp, #40]
   88324:	9100a3e0 	add	x0, sp, #0x28
   88328:	aa0003e1 	mov	x1, x0
   8832c:	b0000000 	adrp	x0, 89000 <_ZN8valkyrie6kernel8FunctionIFvvEE12CallableImplIZNS0_16__run_unit_testsEvEUlvE_E4callEv+0x5e8>
   88330:	91380000 	add	x0, x0, #0xe00
   88334:	9400298b 	bl	92960 <_Z6printfIJPKcEEvS1_DpOT_>
   88338:	d503201f 	nop
   8833c:	a8c37bfd 	ldp	x29, x30, [sp], #48
   88340:	d65f03c0 	ret

0000000000088344 <_ZZN8valkyrie6kernel16__run_unit_testsEvENUlvE_D1Ev>:
   88344:	a9be7bfd 	stp	x29, x30, [sp, #-32]!
   88348:	910003fd 	mov	x29, sp
   8834c:	f9000fe0 	str	x0, [sp, #24]
   88350:	f9400fe0 	ldr	x0, [sp, #24]
   88354:	94001c5e 	bl	8f4cc <_ZN8valkyrie6kernel6StringD1Ev>
   88358:	d503201f 	nop
   8835c:	a8c27bfd 	ldp	x29, x30, [sp], #32
   88360:	d65f03c0 	ret

0000000000088364 <_ZN8valkyrie6kernel16__run_unit_testsEv>:
   88364:	a9b87bfd 	stp	x29, x30, [sp, #-128]!
   88368:	910003fd 	mov	x29, sp
   8836c:	9100c3e0 	add	x0, sp, #0x30
   88370:	52800081 	mov	w1, #0x4                   	// #4
   88374:	940028c1 	bl	92678 <_ZN8valkyrie6kernel5DequeINS0_9UniquePtrINS0_7DerivedEEEEC1Ei>
   88378:	9100a3e0 	add	x0, sp, #0x28
   8837c:	aa0003e8 	mov	x8, x0
   88380:	940028d9 	bl	926e4 <_ZN8valkyrie6kernel11make_uniqueINS0_7DerivedEJEEENS0_9_UniqueIfIT_E13_SingleObjectEDpOT0_>
   88384:	9100a3e0 	add	x0, sp, #0x28
   88388:	940028f0 	bl	92748 <_ZN8valkyrie6kernel4moveIRNS0_9UniquePtrINS0_7DerivedEEEEEONS0_16_RemoveReferenceIT_E4TypeEOS7_>
   8838c:	aa0003e1 	mov	x1, x0
   88390:	9100c3e0 	add	x0, sp, #0x30
   88394:	940028f2 	bl	9275c <_ZN8valkyrie6kernel5DequeINS0_9UniquePtrINS0_7DerivedEEEE9push_backIS4_EEvOT_>
   88398:	b0000000 	adrp	x0, 89000 <_ZN8valkyrie6kernel8FunctionIFvvEE12CallableImplIZNS0_16__run_unit_testsEvEUlvE_E4callEv+0x5e8>
   8839c:	91382000 	add	x0, x0, #0xe08
   883a0:	94001721 	bl	8e024 <_Z6printfIJEEvPKcDpOT_>
   883a4:	f9003fff 	str	xzr, [sp, #120]
   883a8:	9100c3e0 	add	x0, sp, #0x30
   883ac:	940028fe 	bl	927a4 <_ZNK8valkyrie6kernel5DequeINS0_9UniquePtrINS0_7DerivedEEEE4sizeEv>
   883b0:	aa0003e1 	mov	x1, x0
   883b4:	f9403fe0 	ldr	x0, [sp, #120]
   883b8:	eb01001f 	cmp	x0, x1
   883bc:	1a9f27e0 	cset	w0, cc  // cc = lo, ul, last
   883c0:	12001c00 	and	w0, w0, #0xff
   883c4:	7100001f 	cmp	w0, #0x0
   883c8:	54000200 	b.eq	88408 <_ZN8valkyrie6kernel16__run_unit_testsEv+0xa4>  // b.none
   883cc:	f9403fe0 	ldr	x0, [sp, #120]
   883d0:	2a0003e1 	mov	w1, w0
   883d4:	9100c3e0 	add	x0, sp, #0x30
   883d8:	940028f9 	bl	927bc <_ZNK8valkyrie6kernel5DequeINS0_9UniquePtrINS0_7DerivedEEEE2atEi>
   883dc:	94002904 	bl	927ec <_ZNK8valkyrie6kernel9UniquePtrINS0_7DerivedEE3getEv>
   883e0:	f9002fe0 	str	x0, [sp, #88]
   883e4:	910163e0 	add	x0, sp, #0x58
   883e8:	aa0003e1 	mov	x1, x0
   883ec:	b0000000 	adrp	x0, 89000 <_ZN8valkyrie6kernel8FunctionIFvvEE12CallableImplIZNS0_16__run_unit_testsEvEUlvE_E4callEv+0x5e8>
   883f0:	91384000 	add	x0, x0, #0xe10
   883f4:	94002904 	bl	92804 <_Z6printfIJPN8valkyrie6kernel7DerivedEEEvPKcDpOT_>
   883f8:	f9403fe0 	ldr	x0, [sp, #120]
   883fc:	91000400 	add	x0, x0, #0x1
   88400:	f9003fe0 	str	x0, [sp, #120]
   88404:	17ffffe9 	b	883a8 <_ZN8valkyrie6kernel16__run_unit_testsEv+0x44>
   88408:	b0000000 	adrp	x0, 89000 <_ZN8valkyrie6kernel8FunctionIFvvEE12CallableImplIZNS0_16__run_unit_testsEvEUlvE_E4callEv+0x5e8>
   8840c:	91386000 	add	x0, x0, #0xe18
   88410:	94001705 	bl	8e024 <_Z6printfIJEEvPKcDpOT_>
   88414:	9100c3e0 	add	x0, sp, #0x30
   88418:	d2800001 	mov	x1, #0x0                   	// #0
   8841c:	94002906 	bl	92834 <_ZN8valkyrie6kernel5DequeINS0_9UniquePtrINS0_7DerivedEEEEixEm>
   88420:	940028ca 	bl	92748 <_ZN8valkyrie6kernel4moveIRNS0_9UniquePtrINS0_7DerivedEEEEEONS0_16_RemoveReferenceIT_E4TypeEOS7_>
   88424:	aa0003e1 	mov	x1, x0
   88428:	9100a3e0 	add	x0, sp, #0x28
   8842c:	9400290b 	bl	92858 <_ZN8valkyrie6kernel9UniquePtrINS0_7DerivedEEaSEOS3_>
   88430:	9100c3e0 	add	x0, sp, #0x30
   88434:	52800001 	mov	w1, #0x0                   	// #0
   88438:	94002914 	bl	92888 <_ZN8valkyrie6kernel5DequeINS0_9UniquePtrINS0_7DerivedEEEE5eraseEi>
   8843c:	b0000000 	adrp	x0, 89000 <_ZN8valkyrie6kernel8FunctionIFvvEE12CallableImplIZNS0_16__run_unit_testsEvEUlvE_E4callEv+0x5e8>
   88440:	91382000 	add	x0, x0, #0xe08
   88444:	940016f8 	bl	8e024 <_Z6printfIJEEvPKcDpOT_>
   88448:	f9003bff 	str	xzr, [sp, #112]
   8844c:	9100c3e0 	add	x0, sp, #0x30
   88450:	940028d5 	bl	927a4 <_ZNK8valkyrie6kernel5DequeINS0_9UniquePtrINS0_7DerivedEEEE4sizeEv>
   88454:	aa0003e1 	mov	x1, x0
   88458:	f9403be0 	ldr	x0, [sp, #112]
   8845c:	eb01001f 	cmp	x0, x1
   88460:	1a9f27e0 	cset	w0, cc  // cc = lo, ul, last
   88464:	12001c00 	and	w0, w0, #0xff
   88468:	7100001f 	cmp	w0, #0x0
   8846c:	54000200 	b.eq	884ac <_ZN8valkyrie6kernel16__run_unit_testsEv+0x148>  // b.none
   88470:	f9403be0 	ldr	x0, [sp, #112]
   88474:	2a0003e1 	mov	w1, w0
   88478:	9100c3e0 	add	x0, sp, #0x30
   8847c:	940028d0 	bl	927bc <_ZNK8valkyrie6kernel5DequeINS0_9UniquePtrINS0_7DerivedEEEE2atEi>
   88480:	940028db 	bl	927ec <_ZNK8valkyrie6kernel9UniquePtrINS0_7DerivedEE3getEv>
   88484:	f90033e0 	str	x0, [sp, #96]
   88488:	910183e0 	add	x0, sp, #0x60
   8848c:	aa0003e1 	mov	x1, x0
   88490:	b0000000 	adrp	x0, 89000 <_ZN8valkyrie6kernel8FunctionIFvvEE12CallableImplIZNS0_16__run_unit_testsEvEUlvE_E4callEv+0x5e8>
   88494:	91384000 	add	x0, x0, #0xe10
   88498:	940028db 	bl	92804 <_Z6printfIJPN8valkyrie6kernel7DerivedEEEvPKcDpOT_>
   8849c:	f9403be0 	ldr	x0, [sp, #112]
   884a0:	91000400 	add	x0, x0, #0x1
   884a4:	f9003be0 	str	x0, [sp, #112]
   884a8:	17ffffe9 	b	8844c <_ZN8valkyrie6kernel16__run_unit_testsEv+0xe8>
   884ac:	b0000000 	adrp	x0, 89000 <_ZN8valkyrie6kernel8FunctionIFvvEE12CallableImplIZNS0_16__run_unit_testsEvEUlvE_E4callEv+0x5e8>
   884b0:	91386000 	add	x0, x0, #0xe18
   884b4:	940016dc 	bl	8e024 <_Z6printfIJEEvPKcDpOT_>
   884b8:	9100a3e0 	add	x0, sp, #0x28
   884bc:	9400289a 	bl	92724 <_ZN8valkyrie6kernel9UniquePtrINS0_7DerivedEED1Ev>
   884c0:	9100c3e0 	add	x0, sp, #0x30
   884c4:	94002865 	bl	92658 <_ZN8valkyrie6kernel5DequeINS0_9UniquePtrINS0_7DerivedEEEED1Ev>
   884c8:	910123e0 	add	x0, sp, #0x48
   884cc:	940027ad 	bl	92380 <_ZN8valkyrie6kernel8FunctionIFvvEEC1Ev>
   884d0:	910083e2 	add	x2, sp, #0x20
   884d4:	b0000000 	adrp	x0, 89000 <_ZN8valkyrie6kernel8FunctionIFvvEE12CallableImplIZNS0_16__run_unit_testsEvEUlvE_E4callEv+0x5e8>
   884d8:	91388001 	add	x1, x0, #0xe20
   884dc:	aa0203e0 	mov	x0, x2
   884e0:	94001bc2 	bl	8f3e8 <_ZN8valkyrie6kernel6StringC1EPKc>
   884e4:	910083e1 	add	x1, sp, #0x20
   884e8:	9101a3e0 	add	x0, sp, #0x68
   884ec:	94001bd0 	bl	8f42c <_ZN8valkyrie6kernel6StringC1ERKS1_>
   884f0:	9101a3e1 	add	x1, sp, #0x68
   884f4:	910043e0 	add	x0, sp, #0x10
   884f8:	9400001f 	bl	88574 <_ZN8valkyrie6kernel8FunctionIFvvEEC1IZNS0_16__run_unit_testsEvEUlvE_EET_>
   884fc:	9101a3e0 	add	x0, sp, #0x68
   88500:	97ffff91 	bl	88344 <_ZZN8valkyrie6kernel16__run_unit_testsEvENUlvE_D1Ev>
   88504:	910043e0 	add	x0, sp, #0x10
   88508:	94002578 	bl	91ae8 <_ZNK8valkyrie6kernel8FunctionIFvvEEclEv>
   8850c:	910043e0 	add	x0, sp, #0x10
   88510:	940025ed 	bl	91cc4 <_ZN8valkyrie6kernel4moveIRNS0_8FunctionIFvvEEEEEONS0_16_RemoveReferenceIT_E4TypeEOS7_>
   88514:	aa0003e1 	mov	x1, x0
   88518:	910123e0 	add	x0, sp, #0x48
   8851c:	940026f8 	bl	920fc <_ZN8valkyrie6kernel8FunctionIFvvEEaSEOS3_>
   88520:	910043e0 	add	x0, sp, #0x10
   88524:	94001787 	bl	8e340 <_ZN8valkyrie6kernel8FunctionIFvvEED1Ev>
   88528:	910083e0 	add	x0, sp, #0x20
   8852c:	94001be8 	bl	8f4cc <_ZN8valkyrie6kernel6StringD1Ev>
   88530:	910123e0 	add	x0, sp, #0x48
   88534:	9400256d 	bl	91ae8 <_ZNK8valkyrie6kernel8FunctionIFvvEEclEv>
   88538:	910123e0 	add	x0, sp, #0x48
   8853c:	94001781 	bl	8e340 <_ZN8valkyrie6kernel8FunctionIFvvEED1Ev>
   88540:	d503201f 	nop
   88544:	a8c87bfd 	ldp	x29, x30, [sp], #128
   88548:	d65f03c0 	ret

000000000008854c <_ZZN8valkyrie6kernel16__run_unit_testsEvENUlvE_C1ERKS1_>:
   8854c:	a9be7bfd 	stp	x29, x30, [sp, #-32]!
   88550:	910003fd 	mov	x29, sp
   88554:	f9000fe0 	str	x0, [sp, #24]
   88558:	f9000be1 	str	x1, [sp, #16]
   8855c:	f9400fe0 	ldr	x0, [sp, #24]
   88560:	f9400be1 	ldr	x1, [sp, #16]
   88564:	94001bb2 	bl	8f42c <_ZN8valkyrie6kernel6StringC1ERKS1_>
   88568:	d503201f 	nop
   8856c:	a8c27bfd 	ldp	x29, x30, [sp], #32
   88570:	d65f03c0 	ret

0000000000088574 <_ZN8valkyrie6kernel8FunctionIFvvEEC1IZNS0_16__run_unit_testsEvEUlvE_EET_>:
   88574:	a9bd7bfd 	stp	x29, x30, [sp, #-48]!
   88578:	910003fd 	mov	x29, sp
   8857c:	f9000fe0 	str	x0, [sp, #24]
   88580:	f9000be1 	str	x1, [sp, #16]
   88584:	f9400fe0 	ldr	x0, [sp, #24]
   88588:	94001ce6 	bl	8f920 <_ZN8valkyrie6kernel9SharedPtrINS0_8FunctionIFvvEE13CallableIfaceEEC1Ev>
   8858c:	9100a3e0 	add	x0, sp, #0x28
   88590:	f9400be1 	ldr	x1, [sp, #16]
   88594:	97ffffee 	bl	8854c <_ZZN8valkyrie6kernel16__run_unit_testsEvENUlvE_C1ERKS1_>
   88598:	9100a3e0 	add	x0, sp, #0x28
   8859c:	aa0003e1 	mov	x1, x0
   885a0:	f9400fe0 	ldr	x0, [sp, #24]
   885a4:	94000006 	bl	885bc <_ZN8valkyrie6kernel8FunctionIFvvEEaSIZNS0_16__run_unit_testsEvEUlvE_EERS3_T_>
   885a8:	9100a3e0 	add	x0, sp, #0x28
   885ac:	97ffff66 	bl	88344 <_ZZN8valkyrie6kernel16__run_unit_testsEvENUlvE_D1Ev>
   885b0:	d503201f 	nop
   885b4:	a8c37bfd 	ldp	x29, x30, [sp], #48
   885b8:	d65f03c0 	ret

00000000000885bc <_ZN8valkyrie6kernel8FunctionIFvvEEaSIZNS0_16__run_unit_testsEvEUlvE_EERS3_T_>:
   885bc:	a9bc7bfd 	stp	x29, x30, [sp, #-64]!
   885c0:	910003fd 	mov	x29, sp
   885c4:	f9000fe0 	str	x0, [sp, #24]
   885c8:	f9000be1 	str	x1, [sp, #16]
   885cc:	9100c3e0 	add	x0, sp, #0x30
   885d0:	aa0003e8 	mov	x8, x0
   885d4:	f9400be0 	ldr	x0, [sp, #16]
   885d8:	9400000f 	bl	88614 <_ZN8valkyrie6kernel11make_sharedINS0_8FunctionIFvvEE12CallableImplIZNS0_16__run_unit_testsEvEUlvE_EEJRS6_EEENS0_9_SharedIfIT_E13_SingleObjectEDpOT0_>
   885dc:	9100c3e0 	add	x0, sp, #0x30
   885e0:	910083e1 	add	x1, sp, #0x20
   885e4:	aa0103e8 	mov	x8, x1
   885e8:	9400002a 	bl	88690 <_ZNK8valkyrie6kernel9SharedPtrINS0_8FunctionIFvvEE12CallableImplIZNS0_16__run_unit_testsEvEUlvE_EEEcvNS1_IT_EEINS4_13CallableIfaceEEEv>
   885ec:	f9400fe0 	ldr	x0, [sp, #24]
   885f0:	910083e1 	add	x1, sp, #0x20
   885f4:	94001ce7 	bl	8f990 <_ZN8valkyrie6kernel9SharedPtrINS0_8FunctionIFvvEE13CallableIfaceEEaSEOS6_>
   885f8:	910083e0 	add	x0, sp, #0x20
   885fc:	94001789 	bl	8e420 <_ZN8valkyrie6kernel9SharedPtrINS0_8FunctionIFvvEE13CallableIfaceEED1Ev>
   88600:	9100c3e0 	add	x0, sp, #0x30
   88604:	9400001b 	bl	88670 <_ZN8valkyrie6kernel9SharedPtrINS0_8FunctionIFvvEE12CallableImplIZNS0_16__run_unit_testsEvEUlvE_EEED1Ev>
   88608:	f9400fe0 	ldr	x0, [sp, #24]
   8860c:	a8c47bfd 	ldp	x29, x30, [sp], #64
   88610:	d65f03c0 	ret

0000000000088614 <_ZN8valkyrie6kernel11make_sharedINS0_8FunctionIFvvEE12CallableImplIZNS0_16__run_unit_testsEvEUlvE_EEJRS6_EEENS0_9_SharedIfIT_E13_SingleObjectEDpOT0_>:
   88614:	a9bc7bfd 	stp	x29, x30, [sp, #-64]!
   88618:	910003fd 	mov	x29, sp
   8861c:	a90153f3 	stp	x19, x20, [sp, #16]
   88620:	f90013f5 	str	x21, [sp, #32]
   88624:	aa0803f3 	mov	x19, x8
   88628:	f9001fe0 	str	x0, [sp, #56]
   8862c:	f9401fe0 	ldr	x0, [sp, #56]
   88630:	94000024 	bl	886c0 <_ZN8valkyrie6kernel7forwardIRZNS0_16__run_unit_testsEvEUlvE_EEOT_RNS0_16_RemoveReferenceIS4_E4TypeE>
   88634:	aa0003f5 	mov	x21, x0
   88638:	d2800200 	mov	x0, #0x10                  	// #16
   8863c:	97ffe9e3 	bl	82dc8 <_Znwm>
   88640:	aa0003f4 	mov	x20, x0
   88644:	aa1503e1 	mov	x1, x21
   88648:	aa1403e0 	mov	x0, x20
   8864c:	94000022 	bl	886d4 <_ZN8valkyrie6kernel8FunctionIFvvEE12CallableImplIZNS0_16__run_unit_testsEvEUlvE_EC1ERKS5_>
   88650:	aa1403e1 	mov	x1, x20
   88654:	aa1303e0 	mov	x0, x19
   88658:	94000030 	bl	88718 <_ZN8valkyrie6kernel9SharedPtrINS0_8FunctionIFvvEE12CallableImplIZNS0_16__run_unit_testsEvEUlvE_EEEC1EPS7_>
   8865c:	aa1303e0 	mov	x0, x19
   88660:	a94153f3 	ldp	x19, x20, [sp, #16]
   88664:	f94013f5 	ldr	x21, [sp, #32]
   88668:	a8c47bfd 	ldp	x29, x30, [sp], #64
   8866c:	d65f03c0 	ret

0000000000088670 <_ZN8valkyrie6kernel9SharedPtrINS0_8FunctionIFvvEE12CallableImplIZNS0_16__run_unit_testsEvEUlvE_EEED1Ev>:
   88670:	a9be7bfd 	stp	x29, x30, [sp, #-32]!
   88674:	910003fd 	mov	x29, sp
   88678:	f9000fe0 	str	x0, [sp, #24]
   8867c:	f9400fe0 	ldr	x0, [sp, #24]
   88680:	94000053 	bl	887cc <_ZN8valkyrie6kernel9SharedPtrINS0_8FunctionIFvvEE12CallableImplIZNS0_16__run_unit_testsEvEUlvE_EEE13dec_use_countEv>
   88684:	d503201f 	nop
   88688:	a8c27bfd 	ldp	x29, x30, [sp], #32
   8868c:	d65f03c0 	ret

0000000000088690 <_ZNK8valkyrie6kernel9SharedPtrINS0_8FunctionIFvvEE12CallableImplIZNS0_16__run_unit_testsEvEUlvE_EEEcvNS1_IT_EEINS4_13CallableIfaceEEEv>:
   88690:	a9bd7bfd 	stp	x29, x30, [sp, #-48]!
   88694:	910003fd 	mov	x29, sp
   88698:	f9000bf3 	str	x19, [sp, #16]
   8869c:	aa0803f3 	mov	x19, x8
   886a0:	f90017e0 	str	x0, [sp, #40]
   886a4:	aa1303e8 	mov	x8, x19
   886a8:	f94017e0 	ldr	x0, [sp, #40]
   886ac:	94000073 	bl	88878 <_ZN8valkyrie6kernel20dynamic_pointer_castINS0_8FunctionIFvvEE13CallableIfaceENS4_12CallableImplIZNS0_16__run_unit_testsEvEUlvE_EEEENS0_9SharedPtrIT_EERKNS9_IT0_EE>
   886b0:	aa1303e0 	mov	x0, x19
   886b4:	f9400bf3 	ldr	x19, [sp, #16]
   886b8:	a8c37bfd 	ldp	x29, x30, [sp], #48
   886bc:	d65f03c0 	ret

00000000000886c0 <_ZN8valkyrie6kernel7forwardIRZNS0_16__run_unit_testsEvEUlvE_EEOT_RNS0_16_RemoveReferenceIS4_E4TypeE>:
   886c0:	d10043ff 	sub	sp, sp, #0x10
   886c4:	f90007e0 	str	x0, [sp, #8]
   886c8:	f94007e0 	ldr	x0, [sp, #8]
   886cc:	910043ff 	add	sp, sp, #0x10
   886d0:	d65f03c0 	ret

00000000000886d4 <_ZN8valkyrie6kernel8FunctionIFvvEE12CallableImplIZNS0_16__run_unit_testsEvEUlvE_EC1ERKS5_>:
   886d4:	a9be7bfd 	stp	x29, x30, [sp, #-32]!
   886d8:	910003fd 	mov	x29, sp
   886dc:	f9000fe0 	str	x0, [sp, #24]
   886e0:	f9000be1 	str	x1, [sp, #16]
   886e4:	f9400fe0 	ldr	x0, [sp, #24]
   886e8:	94001ce0 	bl	8fa68 <_ZN8valkyrie6kernel8FunctionIFvvEE13CallableIfaceC1Ev>
   886ec:	f0000040 	adrp	x0, 93000 <_ZTVN8valkyrie6kernel8FunctionIFbRNS0_9UniquePtrINS0_4TaskEEEEE12CallableImplIZNS0_13TaskScheduler11remove_taskERKS3_EUlRT_E_EE+0x18>
   886f0:	91008001 	add	x1, x0, #0x20
   886f4:	f9400fe0 	ldr	x0, [sp, #24]
   886f8:	f9000001 	str	x1, [x0]
   886fc:	f9400fe0 	ldr	x0, [sp, #24]
   88700:	91002000 	add	x0, x0, #0x8
   88704:	f9400be1 	ldr	x1, [sp, #16]
   88708:	97ffff91 	bl	8854c <_ZZN8valkyrie6kernel16__run_unit_testsEvENUlvE_C1ERKS1_>
   8870c:	d503201f 	nop
   88710:	a8c27bfd 	ldp	x29, x30, [sp], #32
   88714:	d65f03c0 	ret

0000000000088718 <_ZN8valkyrie6kernel9SharedPtrINS0_8FunctionIFvvEE12CallableImplIZNS0_16__run_unit_testsEvEUlvE_EEEC1EPS7_>:
   88718:	a9bd7bfd 	stp	x29, x30, [sp, #-48]!
   8871c:	910003fd 	mov	x29, sp
   88720:	f9000bf3 	str	x19, [sp, #16]
   88724:	f90017e0 	str	x0, [sp, #40]
   88728:	f90013e1 	str	x1, [sp, #32]
   8872c:	d2800200 	mov	x0, #0x10                  	// #16
   88730:	97ffe9a6 	bl	82dc8 <_Znwm>
   88734:	aa0003f3 	mov	x19, x0
   88738:	52800022 	mov	w2, #0x1                   	// #1
   8873c:	f94013e1 	ldr	x1, [sp, #32]
   88740:	aa1303e0 	mov	x0, x19
   88744:	94000063 	bl	888d0 <_ZN8valkyrie6kernel9SharedPtrINS0_8FunctionIFvvEE12CallableImplIZNS0_16__run_unit_testsEvEUlvE_EEE12ControlBlockC1EPS7_i>
   88748:	f94017e0 	ldr	x0, [sp, #40]
   8874c:	f9000013 	str	x19, [x0]
   88750:	f94017e0 	ldr	x0, [sp, #40]
   88754:	f900041f 	str	xzr, [x0, #8]
   88758:	d503201f 	nop
   8875c:	f9400bf3 	ldr	x19, [sp, #16]
   88760:	a8c37bfd 	ldp	x29, x30, [sp], #48
   88764:	d65f03c0 	ret

0000000000088768 <_ZN8valkyrie6kernel8FunctionIFvvEE12CallableImplIZNS0_16__run_unit_testsEvEUlvE_ED1Ev>:
   88768:	a9be7bfd 	stp	x29, x30, [sp, #-32]!
   8876c:	910003fd 	mov	x29, sp
   88770:	f9000fe0 	str	x0, [sp, #24]
   88774:	f0000040 	adrp	x0, 93000 <_ZTVN8valkyrie6kernel8FunctionIFbRNS0_9UniquePtrINS0_4TaskEEEEE12CallableImplIZNS0_13TaskScheduler11remove_taskERKS3_EUlRT_E_EE+0x18>
   88778:	91008001 	add	x1, x0, #0x20
   8877c:	f9400fe0 	ldr	x0, [sp, #24]
   88780:	f9000001 	str	x1, [x0]
   88784:	f9400fe0 	ldr	x0, [sp, #24]
   88788:	91002000 	add	x0, x0, #0x8
   8878c:	97fffeee 	bl	88344 <_ZZN8valkyrie6kernel16__run_unit_testsEvENUlvE_D1Ev>
   88790:	f9400fe0 	ldr	x0, [sp, #24]
   88794:	94001c6c 	bl	8f944 <_ZN8valkyrie6kernel8FunctionIFvvEE13CallableIfaceD1Ev>
   88798:	d503201f 	nop
   8879c:	a8c27bfd 	ldp	x29, x30, [sp], #32
   887a0:	d65f03c0 	ret

00000000000887a4 <_ZN8valkyrie6kernel8FunctionIFvvEE12CallableImplIZNS0_16__run_unit_testsEvEUlvE_ED0Ev>:
   887a4:	a9be7bfd 	stp	x29, x30, [sp, #-32]!
   887a8:	910003fd 	mov	x29, sp
   887ac:	f9000fe0 	str	x0, [sp, #24]
   887b0:	f9400fe0 	ldr	x0, [sp, #24]
   887b4:	97ffffed 	bl	88768 <_ZN8valkyrie6kernel8FunctionIFvvEE12CallableImplIZNS0_16__run_unit_testsEvEUlvE_ED1Ev>
   887b8:	d2800201 	mov	x1, #0x10                  	// #16
   887bc:	f9400fe0 	ldr	x0, [sp, #24]
   887c0:	97ffe9a0 	bl	82e40 <_ZdlPvm>
   887c4:	a8c27bfd 	ldp	x29, x30, [sp], #32
   887c8:	d65f03c0 	ret

00000000000887cc <_ZN8valkyrie6kernel9SharedPtrINS0_8FunctionIFvvEE12CallableImplIZNS0_16__run_unit_testsEvEUlvE_EEE13dec_use_countEv>:
   887cc:	a9be7bfd 	stp	x29, x30, [sp, #-32]!
   887d0:	910003fd 	mov	x29, sp
   887d4:	f9000fe0 	str	x0, [sp, #24]
   887d8:	f9400fe0 	ldr	x0, [sp, #24]
   887dc:	9400004a 	bl	88904 <_ZNK8valkyrie6kernel9SharedPtrINS0_8FunctionIFvvEE12CallableImplIZNS0_16__run_unit_testsEvEUlvE_EEE8is_validEv>
   887e0:	12001c00 	and	w0, w0, #0xff
   887e4:	7100001f 	cmp	w0, #0x0
   887e8:	54000420 	b.eq	8886c <_ZN8valkyrie6kernel9SharedPtrINS0_8FunctionIFvvEE12CallableImplIZNS0_16__run_unit_testsEvEUlvE_EEE13dec_use_countEv+0xa0>  // b.none
   887ec:	f9400fe0 	ldr	x0, [sp, #24]
   887f0:	f9400000 	ldr	x0, [x0]
   887f4:	b9400801 	ldr	w1, [x0, #8]
   887f8:	51000421 	sub	w1, w1, #0x1
   887fc:	b9000801 	str	w1, [x0, #8]
   88800:	f9400fe0 	ldr	x0, [sp, #24]
   88804:	94000050 	bl	88944 <_ZNK8valkyrie6kernel9SharedPtrINS0_8FunctionIFvvEE12CallableImplIZNS0_16__run_unit_testsEvEUlvE_EEE9use_countEv>
   88808:	7100001f 	cmp	w0, #0x0
   8880c:	1a9f17e0 	cset	w0, eq  // eq = none
   88810:	12001c00 	and	w0, w0, #0xff
   88814:	7100001f 	cmp	w0, #0x0
   88818:	540002a0 	b.eq	8886c <_ZN8valkyrie6kernel9SharedPtrINS0_8FunctionIFvvEE12CallableImplIZNS0_16__run_unit_testsEvEUlvE_EEE13dec_use_countEv+0xa0>  // b.none
   8881c:	f9400fe0 	ldr	x0, [sp, #24]
   88820:	f9400000 	ldr	x0, [x0]
   88824:	f9400000 	ldr	x0, [x0]
   88828:	f100001f 	cmp	x0, #0x0
   8882c:	540000a0 	b.eq	88840 <_ZN8valkyrie6kernel9SharedPtrINS0_8FunctionIFvvEE12CallableImplIZNS0_16__run_unit_testsEvEUlvE_EEE13dec_use_countEv+0x74>  // b.none
   88830:	f9400001 	ldr	x1, [x0]
   88834:	91002021 	add	x1, x1, #0x8
   88838:	f9400021 	ldr	x1, [x1]
   8883c:	d63f0020 	blr	x1
   88840:	f9400fe0 	ldr	x0, [sp, #24]
   88844:	f9400000 	ldr	x0, [x0]
   88848:	f100001f 	cmp	x0, #0x0
   8884c:	54000060 	b.eq	88858 <_ZN8valkyrie6kernel9SharedPtrINS0_8FunctionIFvvEE12CallableImplIZNS0_16__run_unit_testsEvEUlvE_EEE13dec_use_countEv+0x8c>  // b.none
   88850:	d2800201 	mov	x1, #0x10                  	// #16
   88854:	97ffe97b 	bl	82e40 <_ZdlPvm>
   88858:	f9400fe0 	ldr	x0, [sp, #24]
   8885c:	f9400000 	ldr	x0, [x0]
   88860:	f900001f 	str	xzr, [x0]
   88864:	f9400fe0 	ldr	x0, [sp, #24]
   88868:	f900001f 	str	xzr, [x0]
   8886c:	d503201f 	nop
   88870:	a8c27bfd 	ldp	x29, x30, [sp], #32
   88874:	d65f03c0 	ret

0000000000088878 <_ZN8valkyrie6kernel20dynamic_pointer_castINS0_8FunctionIFvvEE13CallableIfaceENS4_12CallableImplIZNS0_16__run_unit_testsEvEUlvE_EEEENS0_9SharedPtrIT_EERKNS9_IT0_EE>:
   88878:	a9bc7bfd 	stp	x29, x30, [sp, #-64]!
   8887c:	910003fd 	mov	x29, sp
   88880:	f9000bf3 	str	x19, [sp, #16]
   88884:	aa0803f3 	mov	x19, x8
   88888:	f90017e0 	str	x0, [sp, #40]
   8888c:	f94017e0 	ldr	x0, [sp, #40]
   88890:	9400003c 	bl	88980 <_ZNK8valkyrie6kernel9SharedPtrINS0_8FunctionIFvvEE12CallableImplIZNS0_16__run_unit_testsEvEUlvE_EEE3getEv>
   88894:	f9001fe0 	str	x0, [sp, #56]
   88898:	f9401fe0 	ldr	x0, [sp, #56]
   8889c:	f100001f 	cmp	x0, #0x0
   888a0:	540000c0 	b.eq	888b8 <_ZN8valkyrie6kernel20dynamic_pointer_castINS0_8FunctionIFvvEE13CallableIfaceENS4_12CallableImplIZNS0_16__run_unit_testsEvEUlvE_EEEENS0_9SharedPtrIT_EERKNS9_IT0_EE+0x40>  // b.none
   888a4:	f9401fe2 	ldr	x2, [sp, #56]
   888a8:	f94017e1 	ldr	x1, [sp, #40]
   888ac:	aa1303e0 	mov	x0, x19
   888b0:	94000049 	bl	889d4 <_ZN8valkyrie6kernel9SharedPtrINS0_8FunctionIFvvEE13CallableIfaceEEC1INS4_12CallableImplIZNS0_16__run_unit_testsEvEUlvE_EEEERKNS1_IT_EEPS5_>
   888b4:	14000003 	b	888c0 <_ZN8valkyrie6kernel20dynamic_pointer_castINS0_8FunctionIFvvEE13CallableIfaceENS4_12CallableImplIZNS0_16__run_unit_testsEvEUlvE_EEEENS0_9SharedPtrIT_EERKNS9_IT0_EE+0x48>
   888b8:	aa1303e0 	mov	x0, x19
   888bc:	94001c19 	bl	8f920 <_ZN8valkyrie6kernel9SharedPtrINS0_8FunctionIFvvEE13CallableIfaceEEC1Ev>
   888c0:	aa1303e0 	mov	x0, x19
   888c4:	f9400bf3 	ldr	x19, [sp, #16]
   888c8:	a8c47bfd 	ldp	x29, x30, [sp], #64
   888cc:	d65f03c0 	ret

00000000000888d0 <_ZN8valkyrie6kernel9SharedPtrINS0_8FunctionIFvvEE12CallableImplIZNS0_16__run_unit_testsEvEUlvE_EEE12ControlBlockC1EPS7_i>:
   888d0:	d10083ff 	sub	sp, sp, #0x20
   888d4:	f9000fe0 	str	x0, [sp, #24]
   888d8:	f9000be1 	str	x1, [sp, #16]
   888dc:	b9000fe2 	str	w2, [sp, #12]
   888e0:	f9400fe0 	ldr	x0, [sp, #24]
   888e4:	f9400be1 	ldr	x1, [sp, #16]
   888e8:	f9000001 	str	x1, [x0]
   888ec:	f9400fe0 	ldr	x0, [sp, #24]
   888f0:	b9400fe1 	ldr	w1, [sp, #12]
   888f4:	b9000801 	str	w1, [x0, #8]
   888f8:	d503201f 	nop
   888fc:	910083ff 	add	sp, sp, #0x20
   88900:	d65f03c0 	ret

0000000000088904 <_ZNK8valkyrie6kernel9SharedPtrINS0_8FunctionIFvvEE12CallableImplIZNS0_16__run_unit_testsEvEUlvE_EEE8is_validEv>:
   88904:	d10043ff 	sub	sp, sp, #0x10
   88908:	f90007e0 	str	x0, [sp, #8]
   8890c:	f94007e0 	ldr	x0, [sp, #8]
   88910:	f9400000 	ldr	x0, [x0]
   88914:	f100001f 	cmp	x0, #0x0
   88918:	54000100 	b.eq	88938 <_ZNK8valkyrie6kernel9SharedPtrINS0_8FunctionIFvvEE12CallableImplIZNS0_16__run_unit_testsEvEUlvE_EEE8is_validEv+0x34>  // b.none
   8891c:	f94007e0 	ldr	x0, [sp, #8]
   88920:	f9400000 	ldr	x0, [x0]
   88924:	b9400800 	ldr	w0, [x0, #8]
   88928:	7100001f 	cmp	w0, #0x0
   8892c:	5400006d 	b.le	88938 <_ZNK8valkyrie6kernel9SharedPtrINS0_8FunctionIFvvEE12CallableImplIZNS0_16__run_unit_testsEvEUlvE_EEE8is_validEv+0x34>
   88930:	52800020 	mov	w0, #0x1                   	// #1
   88934:	14000002 	b	8893c <_ZNK8valkyrie6kernel9SharedPtrINS0_8FunctionIFvvEE12CallableImplIZNS0_16__run_unit_testsEvEUlvE_EEE8is_validEv+0x38>
   88938:	52800000 	mov	w0, #0x0                   	// #0
   8893c:	910043ff 	add	sp, sp, #0x10
   88940:	d65f03c0 	ret

0000000000088944 <_ZNK8valkyrie6kernel9SharedPtrINS0_8FunctionIFvvEE12CallableImplIZNS0_16__run_unit_testsEvEUlvE_EEE9use_countEv>:
   88944:	a9be7bfd 	stp	x29, x30, [sp, #-32]!
   88948:	910003fd 	mov	x29, sp
   8894c:	f9000fe0 	str	x0, [sp, #24]
   88950:	f9400fe0 	ldr	x0, [sp, #24]
   88954:	97ffffec 	bl	88904 <_ZNK8valkyrie6kernel9SharedPtrINS0_8FunctionIFvvEE12CallableImplIZNS0_16__run_unit_testsEvEUlvE_EEE8is_validEv>
   88958:	12001c00 	and	w0, w0, #0xff
   8895c:	7100001f 	cmp	w0, #0x0
   88960:	540000a0 	b.eq	88974 <_ZNK8valkyrie6kernel9SharedPtrINS0_8FunctionIFvvEE12CallableImplIZNS0_16__run_unit_testsEvEUlvE_EEE9use_countEv+0x30>  // b.none
   88964:	f9400fe0 	ldr	x0, [sp, #24]
   88968:	f9400000 	ldr	x0, [x0]
   8896c:	b9400800 	ldr	w0, [x0, #8]
   88970:	14000002 	b	88978 <_ZNK8valkyrie6kernel9SharedPtrINS0_8FunctionIFvvEE12CallableImplIZNS0_16__run_unit_testsEvEUlvE_EEE9use_countEv+0x34>
   88974:	52800000 	mov	w0, #0x0                   	// #0
   88978:	a8c27bfd 	ldp	x29, x30, [sp], #32
   8897c:	d65f03c0 	ret

0000000000088980 <_ZNK8valkyrie6kernel9SharedPtrINS0_8FunctionIFvvEE12CallableImplIZNS0_16__run_unit_testsEvEUlvE_EEE3getEv>:
   88980:	d10043ff 	sub	sp, sp, #0x10
   88984:	f90007e0 	str	x0, [sp, #8]
   88988:	f94007e0 	ldr	x0, [sp, #8]
   8898c:	f9400400 	ldr	x0, [x0, #8]
   88990:	f100001f 	cmp	x0, #0x0
   88994:	54000080 	b.eq	889a4 <_ZNK8valkyrie6kernel9SharedPtrINS0_8FunctionIFvvEE12CallableImplIZNS0_16__run_unit_testsEvEUlvE_EEE3getEv+0x24>  // b.none
   88998:	f94007e0 	ldr	x0, [sp, #8]
   8899c:	f9400400 	ldr	x0, [x0, #8]
   889a0:	1400000b 	b	889cc <_ZNK8valkyrie6kernel9SharedPtrINS0_8FunctionIFvvEE12CallableImplIZNS0_16__run_unit_testsEvEUlvE_EEE3getEv+0x4c>
   889a4:	f94007e0 	ldr	x0, [sp, #8]
   889a8:	f9400000 	ldr	x0, [x0]
   889ac:	f100001f 	cmp	x0, #0x0
   889b0:	540000a0 	b.eq	889c4 <_ZNK8valkyrie6kernel9SharedPtrINS0_8FunctionIFvvEE12CallableImplIZNS0_16__run_unit_testsEvEUlvE_EEE3getEv+0x44>  // b.none
   889b4:	f94007e0 	ldr	x0, [sp, #8]
   889b8:	f9400000 	ldr	x0, [x0]
   889bc:	f9400000 	ldr	x0, [x0]
   889c0:	14000002 	b	889c8 <_ZNK8valkyrie6kernel9SharedPtrINS0_8FunctionIFvvEE12CallableImplIZNS0_16__run_unit_testsEvEUlvE_EEE3getEv+0x48>
   889c4:	d2800000 	mov	x0, #0x0                   	// #0
   889c8:	d503201f 	nop
   889cc:	910043ff 	add	sp, sp, #0x10
   889d0:	d65f03c0 	ret

00000000000889d4 <_ZN8valkyrie6kernel9SharedPtrINS0_8FunctionIFvvEE13CallableIfaceEEC1INS4_12CallableImplIZNS0_16__run_unit_testsEvEUlvE_EEEERKNS1_IT_EEPS5_>:
   889d4:	a9bd7bfd 	stp	x29, x30, [sp, #-48]!
   889d8:	910003fd 	mov	x29, sp
   889dc:	f90017e0 	str	x0, [sp, #40]
   889e0:	f90013e1 	str	x1, [sp, #32]
   889e4:	f9000fe2 	str	x2, [sp, #24]
   889e8:	f94013e0 	ldr	x0, [sp, #32]
   889ec:	f9400001 	ldr	x1, [x0]
   889f0:	f94017e0 	ldr	x0, [sp, #40]
   889f4:	f9000001 	str	x1, [x0]
   889f8:	f94017e0 	ldr	x0, [sp, #40]
   889fc:	f9400fe1 	ldr	x1, [sp, #24]
   88a00:	f9000401 	str	x1, [x0, #8]
   88a04:	f94017e0 	ldr	x0, [sp, #40]
   88a08:	94001c08 	bl	8fa28 <_ZN8valkyrie6kernel9SharedPtrINS0_8FunctionIFvvEE13CallableIfaceEE13inc_use_countEv>
   88a0c:	d503201f 	nop
   88a10:	a8c37bfd 	ldp	x29, x30, [sp], #48
   88a14:	d65f03c0 	ret

0000000000088a18 <_ZN8valkyrie6kernel8FunctionIFvvEE12CallableImplIZNS0_16__run_unit_testsEvEUlvE_E4callEv>:
   88a18:	a9be7bfd 	stp	x29, x30, [sp, #-32]!
   88a1c:	910003fd 	mov	x29, sp
   88a20:	f9000fe0 	str	x0, [sp, #24]
   88a24:	f9400fe0 	ldr	x0, [sp, #24]
   88a28:	91002000 	add	x0, x0, #0x8
   88a2c:	97fffe38 	bl	8830c <_ZZN8valkyrie6kernel16__run_unit_testsEvENKUlvE_clEv>
   88a30:	d503201f 	nop
   88a34:	a8c27bfd 	ldp	x29, x30, [sp], #32
   88a38:	d65f03c0 	ret

Disassembly of section .text._ZN8valkyrie6kernel6Kernel5panicIJEEEvPKcDpOT_:

000000000008dd9c <_ZN8valkyrie6kernel6Kernel5panicIJEEEvPKcDpOT_>:
   8dd9c:	a9bd7bfd 	stp	x29, x30, [sp, #-48]!
   8dda0:	910003fd 	mov	x29, sp
   8dda4:	f9000fe0 	str	x0, [sp, #24]
   8dda8:	910003e0 	mov	x0, sp
   8ddac:	f90017e0 	str	x0, [sp, #40]
   8ddb0:	97ffc955 	bl	80304 <_ZN8valkyrie6kernel7console11clear_colorEv>
   8ddb4:	f0ffffc0 	adrp	x0, 88000 <_ZN8valkyrie6kernel16TimerMultiplexer4tickEv+0x18>
   8ddb8:	912b2000 	add	x0, x0, #0xac8
   8ddbc:	94000057 	bl	8df18 <_Z6printkIJEEvPKcDpOT_>
   8ddc0:	52800021 	mov	w1, #0x1                   	// #1
   8ddc4:	52800020 	mov	w0, #0x1                   	// #1
   8ddc8:	97ffc941 	bl	802cc <_ZN8valkyrie6kernel7console9set_colorENS1_5ColorEb>
   8ddcc:	f0ffffc0 	adrp	x0, 88000 <_ZN8valkyrie6kernel16TimerMultiplexer4tickEv+0x18>
   8ddd0:	912b4000 	add	x0, x0, #0xad0
   8ddd4:	94000094 	bl	8e024 <_Z6printfIJEEvPKcDpOT_>
   8ddd8:	52800001 	mov	w1, #0x0                   	// #0
   8dddc:	52800060 	mov	w0, #0x3                   	// #3
   8dde0:	97ffc93b 	bl	802cc <_ZN8valkyrie6kernel7console9set_colorENS1_5ColorEb>
   8dde4:	f9400fe0 	ldr	x0, [sp, #24]
   8dde8:	9400008f 	bl	8e024 <_Z6printfIJEEvPKcDpOT_>
   8ddec:	97ffc946 	bl	80304 <_ZN8valkyrie6kernel7console11clear_colorEv>
   8ddf0:	9100a3e0 	add	x0, sp, #0x28
   8ddf4:	aa0003e1 	mov	x1, x0
   8ddf8:	f0ffffc0 	adrp	x0, 88000 <_ZN8valkyrie6kernel16TimerMultiplexer4tickEv+0x18>
   8ddfc:	912b8000 	add	x0, x0, #0xae0
   8de00:	940000a0 	bl	8e080 <_Z6printkIJRyEEvPKcDpOT_>
   8de04:	97ffd379 	bl	82be8 <_ZN8valkyrie6kernel13MemoryManager12get_instanceEv>
   8de08:	97ffd3e7 	bl	82da4 <_ZNK8valkyrie6kernel13MemoryManager24dump_slob_allocator_infoEv>
   8de0c:	f0ffffc0 	adrp	x0, 88000 <_ZN8valkyrie6kernel16TimerMultiplexer4tickEv+0x18>
   8de10:	912b2000 	add	x0, x0, #0xac8
   8de14:	94000041 	bl	8df18 <_Z6printkIJEEvPKcDpOT_>
   8de18:	52800021 	mov	w1, #0x1                   	// #1
   8de1c:	52800020 	mov	w0, #0x1                   	// #1
   8de20:	97ffc92b 	bl	802cc <_ZN8valkyrie6kernel7console9set_colorENS1_5ColorEb>
   8de24:	f0ffffc0 	adrp	x0, 88000 <_ZN8valkyrie6kernel16TimerMultiplexer4tickEv+0x18>
   8de28:	912bc000 	add	x0, x0, #0xaf0
   8de2c:	9400007e 	bl	8e024 <_Z6printfIJEEvPKcDpOT_>
   8de30:	52800001 	mov	w1, #0x0                   	// #0
   8de34:	52800060 	mov	w0, #0x3                   	// #3
   8de38:	97ffc925 	bl	802cc <_ZN8valkyrie6kernel7console9set_colorENS1_5ColorEb>
   8de3c:	f9400fe0 	ldr	x0, [sp, #24]
   8de40:	94000079 	bl	8e024 <_Z6printfIJEEvPKcDpOT_>
   8de44:	97ffc930 	bl	80304 <_ZN8valkyrie6kernel7console11clear_colorEv>
   8de48:	97ffd04f 	bl	81f84 <_ZN8valkyrie6kernel16ExceptionManager12get_instanceEv>
   8de4c:	97ffd079 	bl	82030 <_ZN8valkyrie6kernel16ExceptionManager7disableEv>
   8de50:	97ffc87d 	bl	80044 <_halt>

Disassembly of section .text._ZN8valkyrie6kernel6Kernel5panicIJRPvEEEvPKcDpOT_:

000000000008de54 <_ZN8valkyrie6kernel6Kernel5panicIJRPvEEEvPKcDpOT_>:
   8de54:	a9bd7bfd 	stp	x29, x30, [sp, #-48]!
   8de58:	910003fd 	mov	x29, sp
   8de5c:	f9000fe0 	str	x0, [sp, #24]
   8de60:	f9000be1 	str	x1, [sp, #16]
   8de64:	910003e0 	mov	x0, sp
   8de68:	f90017e0 	str	x0, [sp, #40]
   8de6c:	97ffc926 	bl	80304 <_ZN8valkyrie6kernel7console11clear_colorEv>
   8de70:	f0ffffc0 	adrp	x0, 88000 <_ZN8valkyrie6kernel16TimerMultiplexer4tickEv+0x18>
   8de74:	912b2000 	add	x0, x0, #0xac8
   8de78:	94000028 	bl	8df18 <_Z6printkIJEEvPKcDpOT_>
   8de7c:	52800021 	mov	w1, #0x1                   	// #1
   8de80:	52800020 	mov	w0, #0x1                   	// #1
   8de84:	97ffc912 	bl	802cc <_ZN8valkyrie6kernel7console9set_colorENS1_5ColorEb>
   8de88:	f0ffffc0 	adrp	x0, 88000 <_ZN8valkyrie6kernel16TimerMultiplexer4tickEv+0x18>
   8de8c:	912b4000 	add	x0, x0, #0xad0
   8de90:	94000065 	bl	8e024 <_Z6printfIJEEvPKcDpOT_>
   8de94:	52800001 	mov	w1, #0x0                   	// #0
   8de98:	52800060 	mov	w0, #0x3                   	// #3
   8de9c:	97ffc90c 	bl	802cc <_ZN8valkyrie6kernel7console9set_colorENS1_5ColorEb>
   8dea0:	f9400be1 	ldr	x1, [sp, #16]
   8dea4:	f9400fe0 	ldr	x0, [sp, #24]
   8dea8:	940000af 	bl	8e164 <_Z6printfIJRPvEEvPKcDpOT_>
   8deac:	97ffc916 	bl	80304 <_ZN8valkyrie6kernel7console11clear_colorEv>
   8deb0:	9100a3e0 	add	x0, sp, #0x28
   8deb4:	aa0003e1 	mov	x1, x0
   8deb8:	f0ffffc0 	adrp	x0, 88000 <_ZN8valkyrie6kernel16TimerMultiplexer4tickEv+0x18>
   8debc:	912b8000 	add	x0, x0, #0xae0
   8dec0:	94000070 	bl	8e080 <_Z6printkIJRyEEvPKcDpOT_>
   8dec4:	97ffd349 	bl	82be8 <_ZN8valkyrie6kernel13MemoryManager12get_instanceEv>
   8dec8:	97ffd3b7 	bl	82da4 <_ZNK8valkyrie6kernel13MemoryManager24dump_slob_allocator_infoEv>
   8decc:	f0ffffc0 	adrp	x0, 88000 <_ZN8valkyrie6kernel16TimerMultiplexer4tickEv+0x18>
   8ded0:	912b2000 	add	x0, x0, #0xac8
   8ded4:	94000011 	bl	8df18 <_Z6printkIJEEvPKcDpOT_>
   8ded8:	52800021 	mov	w1, #0x1                   	// #1
   8dedc:	52800020 	mov	w0, #0x1                   	// #1
   8dee0:	97ffc8fb 	bl	802cc <_ZN8valkyrie6kernel7console9set_colorENS1_5ColorEb>
   8dee4:	f0ffffc0 	adrp	x0, 88000 <_ZN8valkyrie6kernel16TimerMultiplexer4tickEv+0x18>
   8dee8:	912bc000 	add	x0, x0, #0xaf0
   8deec:	9400004e 	bl	8e024 <_Z6printfIJEEvPKcDpOT_>
   8def0:	52800001 	mov	w1, #0x0                   	// #0
   8def4:	52800060 	mov	w0, #0x3                   	// #3
   8def8:	97ffc8f5 	bl	802cc <_ZN8valkyrie6kernel7console9set_colorENS1_5ColorEb>
   8defc:	f9400be1 	ldr	x1, [sp, #16]
   8df00:	f9400fe0 	ldr	x0, [sp, #24]
   8df04:	94000098 	bl	8e164 <_Z6printfIJRPvEEvPKcDpOT_>
   8df08:	97ffc8ff 	bl	80304 <_ZN8valkyrie6kernel7console11clear_colorEv>
   8df0c:	97ffd01e 	bl	81f84 <_ZN8valkyrie6kernel16ExceptionManager12get_instanceEv>
   8df10:	97ffd048 	bl	82030 <_ZN8valkyrie6kernel16ExceptionManager7disableEv>
   8df14:	97ffc84c 	bl	80044 <_halt>

Disassembly of section .text._Z6printkIJEEvPKcDpOT_:

000000000008df18 <_Z6printkIJEEvPKcDpOT_>:
   8df18:	a9bb7bfd 	stp	x29, x30, [sp, #-80]!
   8df1c:	910003fd 	mov	x29, sp
   8df20:	f9000fe0 	str	x0, [sp, #24]
   8df24:	d53be020 	mrs	x0, cntpct_el0
   8df28:	f90027e0 	str	x0, [sp, #72]
   8df2c:	d53be000 	mrs	x0, cntfrq_el0
   8df30:	f90023e0 	str	x0, [sp, #64]
   8df34:	f94027e1 	ldr	x1, [sp, #72]
   8df38:	aa0103e0 	mov	x0, x1
   8df3c:	d37be800 	lsl	x0, x0, #5
   8df40:	cb010000 	sub	x0, x0, x1
   8df44:	d37ef400 	lsl	x0, x0, #2
   8df48:	8b010000 	add	x0, x0, x1
   8df4c:	d37df000 	lsl	x0, x0, #3
   8df50:	aa0003e1 	mov	x1, x0
   8df54:	f94023e0 	ldr	x0, [sp, #64]
   8df58:	9ac00820 	udiv	x0, x1, x0
   8df5c:	f9001fe0 	str	x0, [sp, #56]
   8df60:	f9401fe0 	ldr	x0, [sp, #56]
   8df64:	d343fc01 	lsr	x1, x0, #3
   8df68:	d29ef9e0 	mov	x0, #0xf7cf                	// #63439
   8df6c:	f2bc6a60 	movk	x0, #0xe353, lsl #16
   8df70:	f2d374a0 	movk	x0, #0x9ba5, lsl #32
   8df74:	f2e41880 	movk	x0, #0x20c4, lsl #48
   8df78:	9bc07c20 	umulh	x0, x1, x0
   8df7c:	d344fc00 	lsr	x0, x0, #4
   8df80:	f90017e0 	str	x0, [sp, #40]
   8df84:	f9401fe2 	ldr	x2, [sp, #56]
   8df88:	d343fc41 	lsr	x1, x2, #3
   8df8c:	d29ef9e0 	mov	x0, #0xf7cf                	// #63439
   8df90:	f2bc6a60 	movk	x0, #0xe353, lsl #16
   8df94:	f2d374a0 	movk	x0, #0x9ba5, lsl #32
   8df98:	f2e41880 	movk	x0, #0x20c4, lsl #48
   8df9c:	9bc07c20 	umulh	x0, x1, x0
   8dfa0:	d344fc01 	lsr	x1, x0, #4
   8dfa4:	aa0103e0 	mov	x0, x1
   8dfa8:	d37be800 	lsl	x0, x0, #5
   8dfac:	cb010000 	sub	x0, x0, x1
   8dfb0:	d37ef400 	lsl	x0, x0, #2
   8dfb4:	8b010000 	add	x0, x0, x1
   8dfb8:	d37df000 	lsl	x0, x0, #3
   8dfbc:	cb000041 	sub	x1, x2, x0
   8dfc0:	f9001be1 	str	x1, [sp, #48]
   8dfc4:	9100c3e1 	add	x1, sp, #0x30
   8dfc8:	9100a3e0 	add	x0, sp, #0x28
   8dfcc:	aa0103e2 	mov	x2, x1
   8dfd0:	aa0003e1 	mov	x1, x0
   8dfd4:	f0ffffc0 	adrp	x0, 88000 <_ZN8valkyrie6kernel16TimerMultiplexer4tickEv+0x18>
   8dfd8:	912c2000 	add	x0, x0, #0xb08
   8dfdc:	9400001a 	bl	8e044 <_Z6printfIJyyEEvPKcDpOT_>
   8dfe0:	f9400fe0 	ldr	x0, [sp, #24]
   8dfe4:	94000010 	bl	8e024 <_Z6printfIJEEvPKcDpOT_>
   8dfe8:	d503201f 	nop
   8dfec:	a8c57bfd 	ldp	x29, x30, [sp], #80
   8dff0:	d65f03c0 	ret

Disassembly of section .text._Z6printfIJmEEvPKcDpOT_:

000000000008dff4 <_Z6printfIJmEEvPKcDpOT_>:
   8dff4:	a9be7bfd 	stp	x29, x30, [sp, #-32]!
   8dff8:	910003fd 	mov	x29, sp
   8dffc:	f9000fe0 	str	x0, [sp, #24]
   8e000:	f9000be1 	str	x1, [sp, #16]
   8e004:	f9400be0 	ldr	x0, [sp, #16]
   8e008:	f9400000 	ldr	x0, [x0]
   8e00c:	aa0003e1 	mov	x1, x0
   8e010:	f9400fe0 	ldr	x0, [sp, #24]
   8e014:	97ffdb3b 	bl	84d00 <_Z10tfp_printfPcz>
   8e018:	d503201f 	nop
   8e01c:	a8c27bfd 	ldp	x29, x30, [sp], #32
   8e020:	d65f03c0 	ret

Disassembly of section .text._Z6printfIJEEvPKcDpOT_:

000000000008e024 <_Z6printfIJEEvPKcDpOT_>:
   8e024:	a9be7bfd 	stp	x29, x30, [sp, #-32]!
   8e028:	910003fd 	mov	x29, sp
   8e02c:	f9000fe0 	str	x0, [sp, #24]
   8e030:	f9400fe0 	ldr	x0, [sp, #24]
   8e034:	97ffdb33 	bl	84d00 <_Z10tfp_printfPcz>
   8e038:	d503201f 	nop
   8e03c:	a8c27bfd 	ldp	x29, x30, [sp], #32
   8e040:	d65f03c0 	ret

Disassembly of section .text._Z6printfIJyyEEvPKcDpOT_:

000000000008e044 <_Z6printfIJyyEEvPKcDpOT_>:
   8e044:	a9bd7bfd 	stp	x29, x30, [sp, #-48]!
   8e048:	910003fd 	mov	x29, sp
   8e04c:	f90017e0 	str	x0, [sp, #40]
   8e050:	f90013e1 	str	x1, [sp, #32]
   8e054:	f9000fe2 	str	x2, [sp, #24]
   8e058:	f94013e0 	ldr	x0, [sp, #32]
   8e05c:	f9400001 	ldr	x1, [x0]
   8e060:	f9400fe0 	ldr	x0, [sp, #24]
   8e064:	f9400000 	ldr	x0, [x0]
   8e068:	aa0003e2 	mov	x2, x0
   8e06c:	f94017e0 	ldr	x0, [sp, #40]
   8e070:	97ffdb24 	bl	84d00 <_Z10tfp_printfPcz>
   8e074:	d503201f 	nop
   8e078:	a8c37bfd 	ldp	x29, x30, [sp], #48
   8e07c:	d65f03c0 	ret

Disassembly of section .text._Z6printkIJRyEEvPKcDpOT_:

000000000008e080 <_Z6printkIJRyEEvPKcDpOT_>:
   8e080:	a9bb7bfd 	stp	x29, x30, [sp, #-80]!
   8e084:	910003fd 	mov	x29, sp
   8e088:	f9000fe0 	str	x0, [sp, #24]
   8e08c:	f9000be1 	str	x1, [sp, #16]
   8e090:	d53be020 	mrs	x0, cntpct_el0
   8e094:	f90027e0 	str	x0, [sp, #72]
   8e098:	d53be000 	mrs	x0, cntfrq_el0
   8e09c:	f90023e0 	str	x0, [sp, #64]
   8e0a0:	f94027e1 	ldr	x1, [sp, #72]
   8e0a4:	aa0103e0 	mov	x0, x1
   8e0a8:	d37be800 	lsl	x0, x0, #5
   8e0ac:	cb010000 	sub	x0, x0, x1
   8e0b0:	d37ef400 	lsl	x0, x0, #2
   8e0b4:	8b010000 	add	x0, x0, x1
   8e0b8:	d37df000 	lsl	x0, x0, #3
   8e0bc:	aa0003e1 	mov	x1, x0
   8e0c0:	f94023e0 	ldr	x0, [sp, #64]
   8e0c4:	9ac00820 	udiv	x0, x1, x0
   8e0c8:	f9001fe0 	str	x0, [sp, #56]
   8e0cc:	f9401fe0 	ldr	x0, [sp, #56]
   8e0d0:	d343fc01 	lsr	x1, x0, #3
   8e0d4:	d29ef9e0 	mov	x0, #0xf7cf                	// #63439
   8e0d8:	f2bc6a60 	movk	x0, #0xe353, lsl #16
   8e0dc:	f2d374a0 	movk	x0, #0x9ba5, lsl #32
   8e0e0:	f2e41880 	movk	x0, #0x20c4, lsl #48
   8e0e4:	9bc07c20 	umulh	x0, x1, x0
   8e0e8:	d344fc00 	lsr	x0, x0, #4
   8e0ec:	f90017e0 	str	x0, [sp, #40]
   8e0f0:	f9401fe2 	ldr	x2, [sp, #56]
   8e0f4:	d343fc41 	lsr	x1, x2, #3
   8e0f8:	d29ef9e0 	mov	x0, #0xf7cf                	// #63439
   8e0fc:	f2bc6a60 	movk	x0, #0xe353, lsl #16
   8e100:	f2d374a0 	movk	x0, #0x9ba5, lsl #32
   8e104:	f2e41880 	movk	x0, #0x20c4, lsl #48
   8e108:	9bc07c20 	umulh	x0, x1, x0
   8e10c:	d344fc01 	lsr	x1, x0, #4
   8e110:	aa0103e0 	mov	x0, x1
   8e114:	d37be800 	lsl	x0, x0, #5
   8e118:	cb010000 	sub	x0, x0, x1
   8e11c:	d37ef400 	lsl	x0, x0, #2
   8e120:	8b010000 	add	x0, x0, x1
   8e124:	d37df000 	lsl	x0, x0, #3
   8e128:	cb000041 	sub	x1, x2, x0
   8e12c:	f9001be1 	str	x1, [sp, #48]
   8e130:	9100c3e1 	add	x1, sp, #0x30
   8e134:	9100a3e0 	add	x0, sp, #0x28
   8e138:	aa0103e2 	mov	x2, x1
   8e13c:	aa0003e1 	mov	x1, x0
   8e140:	d0ffffc0 	adrp	x0, 88000 <_ZN8valkyrie6kernel16TimerMultiplexer4tickEv+0x18>
   8e144:	912c2000 	add	x0, x0, #0xb08
   8e148:	97ffffbf 	bl	8e044 <_Z6printfIJyyEEvPKcDpOT_>
   8e14c:	f9400be1 	ldr	x1, [sp, #16]
   8e150:	f9400fe0 	ldr	x0, [sp, #24]
   8e154:	94000010 	bl	8e194 <_Z6printfIJRyEEvPKcDpOT_>
   8e158:	d503201f 	nop
   8e15c:	a8c57bfd 	ldp	x29, x30, [sp], #80
   8e160:	d65f03c0 	ret

Disassembly of section .text._Z6printfIJRPvEEvPKcDpOT_:

000000000008e164 <_Z6printfIJRPvEEvPKcDpOT_>:
   8e164:	a9be7bfd 	stp	x29, x30, [sp, #-32]!
   8e168:	910003fd 	mov	x29, sp
   8e16c:	f9000fe0 	str	x0, [sp, #24]
   8e170:	f9000be1 	str	x1, [sp, #16]
   8e174:	f9400be0 	ldr	x0, [sp, #16]
   8e178:	f9400000 	ldr	x0, [x0]
   8e17c:	aa0003e1 	mov	x1, x0
   8e180:	f9400fe0 	ldr	x0, [sp, #24]
   8e184:	97ffdadf 	bl	84d00 <_Z10tfp_printfPcz>
   8e188:	d503201f 	nop
   8e18c:	a8c27bfd 	ldp	x29, x30, [sp], #32
   8e190:	d65f03c0 	ret

Disassembly of section .text._Z6printfIJRyEEvPKcDpOT_:

000000000008e194 <_Z6printfIJRyEEvPKcDpOT_>:
   8e194:	a9be7bfd 	stp	x29, x30, [sp, #-32]!
   8e198:	910003fd 	mov	x29, sp
   8e19c:	f9000fe0 	str	x0, [sp, #24]
   8e1a0:	f9000be1 	str	x1, [sp, #16]
   8e1a4:	f9400be0 	ldr	x0, [sp, #16]
   8e1a8:	f9400000 	ldr	x0, [x0]
   8e1ac:	aa0003e1 	mov	x1, x0
   8e1b0:	f9400fe0 	ldr	x0, [sp, #24]
   8e1b4:	97ffdad3 	bl	84d00 <_Z10tfp_printfPcz>
   8e1b8:	d503201f 	nop
   8e1bc:	a8c27bfd 	ldp	x29, x30, [sp], #32
   8e1c0:	d65f03c0 	ret

Disassembly of section .text._Z6printfIJRbRN8valkyrie6kernel7console5ColorEEEvPKcDpOT_:

000000000008e1c4 <_Z6printfIJRbRN8valkyrie6kernel7console5ColorEEEvPKcDpOT_>:
   8e1c4:	a9bd7bfd 	stp	x29, x30, [sp, #-48]!
   8e1c8:	910003fd 	mov	x29, sp
   8e1cc:	f90017e0 	str	x0, [sp, #40]
   8e1d0:	f90013e1 	str	x1, [sp, #32]
   8e1d4:	f9000fe2 	str	x2, [sp, #24]
   8e1d8:	f94013e0 	ldr	x0, [sp, #32]
   8e1dc:	39400000 	ldrb	w0, [x0]
   8e1e0:	2a0003e1 	mov	w1, w0
   8e1e4:	f9400fe0 	ldr	x0, [sp, #24]
   8e1e8:	b9400000 	ldr	w0, [x0]
   8e1ec:	2a0003e2 	mov	w2, w0
   8e1f0:	f94017e0 	ldr	x0, [sp, #40]
   8e1f4:	97ffdac3 	bl	84d00 <_Z10tfp_printfPcz>
   8e1f8:	d503201f 	nop
   8e1fc:	a8c37bfd 	ldp	x29, x30, [sp], #48
   8e200:	d65f03c0 	ret

Disassembly of section .text._Z6printkIJRPvRKPKN8valkyrie6kernel3ELF10FileHeaderERKmEEvPKcDpOT_:

000000000008e204 <_Z6printkIJRPvRKPKN8valkyrie6kernel3ELF10FileHeaderERKmEEvPKcDpOT_>:
   8e204:	a9ba7bfd 	stp	x29, x30, [sp, #-96]!
   8e208:	910003fd 	mov	x29, sp
   8e20c:	f90017e0 	str	x0, [sp, #40]
   8e210:	f90013e1 	str	x1, [sp, #32]
   8e214:	f9000fe2 	str	x2, [sp, #24]
   8e218:	f9000be3 	str	x3, [sp, #16]
   8e21c:	d53be020 	mrs	x0, cntpct_el0
   8e220:	f9002fe0 	str	x0, [sp, #88]
   8e224:	d53be000 	mrs	x0, cntfrq_el0
   8e228:	f9002be0 	str	x0, [sp, #80]
   8e22c:	f9402fe1 	ldr	x1, [sp, #88]
   8e230:	aa0103e0 	mov	x0, x1
   8e234:	d37be800 	lsl	x0, x0, #5
   8e238:	cb010000 	sub	x0, x0, x1
   8e23c:	d37ef400 	lsl	x0, x0, #2
   8e240:	8b010000 	add	x0, x0, x1
   8e244:	d37df000 	lsl	x0, x0, #3
   8e248:	aa0003e1 	mov	x1, x0
   8e24c:	f9402be0 	ldr	x0, [sp, #80]
   8e250:	9ac00820 	udiv	x0, x1, x0
   8e254:	f90027e0 	str	x0, [sp, #72]
   8e258:	f94027e0 	ldr	x0, [sp, #72]
   8e25c:	d343fc01 	lsr	x1, x0, #3
   8e260:	d29ef9e0 	mov	x0, #0xf7cf                	// #63439
   8e264:	f2bc6a60 	movk	x0, #0xe353, lsl #16
   8e268:	f2d374a0 	movk	x0, #0x9ba5, lsl #32
   8e26c:	f2e41880 	movk	x0, #0x20c4, lsl #48
   8e270:	9bc07c20 	umulh	x0, x1, x0
   8e274:	d344fc00 	lsr	x0, x0, #4
   8e278:	f9001fe0 	str	x0, [sp, #56]
   8e27c:	f94027e2 	ldr	x2, [sp, #72]
   8e280:	d343fc41 	lsr	x1, x2, #3
   8e284:	d29ef9e0 	mov	x0, #0xf7cf                	// #63439
   8e288:	f2bc6a60 	movk	x0, #0xe353, lsl #16
   8e28c:	f2d374a0 	movk	x0, #0x9ba5, lsl #32
   8e290:	f2e41880 	movk	x0, #0x20c4, lsl #48
   8e294:	9bc07c20 	umulh	x0, x1, x0
   8e298:	d344fc01 	lsr	x1, x0, #4
   8e29c:	aa0103e0 	mov	x0, x1
   8e2a0:	d37be800 	lsl	x0, x0, #5
   8e2a4:	cb010000 	sub	x0, x0, x1
   8e2a8:	d37ef400 	lsl	x0, x0, #2
   8e2ac:	8b010000 	add	x0, x0, x1
   8e2b0:	d37df000 	lsl	x0, x0, #3
   8e2b4:	cb000041 	sub	x1, x2, x0
   8e2b8:	f90023e1 	str	x1, [sp, #64]
   8e2bc:	910103e1 	add	x1, sp, #0x40
   8e2c0:	9100e3e0 	add	x0, sp, #0x38
   8e2c4:	aa0103e2 	mov	x2, x1
   8e2c8:	aa0003e1 	mov	x1, x0
   8e2cc:	d0ffffc0 	adrp	x0, 88000 <_ZN8valkyrie6kernel16TimerMultiplexer4tickEv+0x18>
   8e2d0:	91306000 	add	x0, x0, #0xc18
   8e2d4:	97ffff5c 	bl	8e044 <_Z6printfIJyyEEvPKcDpOT_>
   8e2d8:	f9400be3 	ldr	x3, [sp, #16]
   8e2dc:	f9400fe2 	ldr	x2, [sp, #24]
   8e2e0:	f94013e1 	ldr	x1, [sp, #32]
   8e2e4:	f94017e0 	ldr	x0, [sp, #40]
   8e2e8:	94000004 	bl	8e2f8 <_Z6printfIJRPvRKPKN8valkyrie6kernel3ELF10FileHeaderERKmEEvPKcDpOT_>
   8e2ec:	d503201f 	nop
   8e2f0:	a8c67bfd 	ldp	x29, x30, [sp], #96
   8e2f4:	d65f03c0 	ret

Disassembly of section .text._Z6printfIJRPvRKPKN8valkyrie6kernel3ELF10FileHeaderERKmEEvPKcDpOT_:

000000000008e2f8 <_Z6printfIJRPvRKPKN8valkyrie6kernel3ELF10FileHeaderERKmEEvPKcDpOT_>:
   8e2f8:	a9bd7bfd 	stp	x29, x30, [sp, #-48]!
   8e2fc:	910003fd 	mov	x29, sp
   8e300:	f90017e0 	str	x0, [sp, #40]
   8e304:	f90013e1 	str	x1, [sp, #32]
   8e308:	f9000fe2 	str	x2, [sp, #24]
   8e30c:	f9000be3 	str	x3, [sp, #16]
   8e310:	f94013e0 	ldr	x0, [sp, #32]
   8e314:	f9400001 	ldr	x1, [x0]
   8e318:	f9400fe0 	ldr	x0, [sp, #24]
   8e31c:	f9400002 	ldr	x2, [x0]
   8e320:	f9400be0 	ldr	x0, [sp, #16]
   8e324:	f9400000 	ldr	x0, [x0]
   8e328:	aa0003e3 	mov	x3, x0
   8e32c:	f94017e0 	ldr	x0, [sp, #40]
   8e330:	97ffda74 	bl	84d00 <_Z10tfp_printfPcz>
   8e334:	d503201f 	nop
   8e338:	a8c37bfd 	ldp	x29, x30, [sp], #48
   8e33c:	d65f03c0 	ret

Disassembly of section .text._ZN8valkyrie6kernel8FunctionIFvvEED2Ev:

000000000008e340 <_ZN8valkyrie6kernel8FunctionIFvvEED1Ev>:
   8e340:	a9be7bfd 	stp	x29, x30, [sp, #-32]!
   8e344:	910003fd 	mov	x29, sp
   8e348:	f9000fe0 	str	x0, [sp, #24]
   8e34c:	f9400fe0 	ldr	x0, [sp, #24]
   8e350:	94000034 	bl	8e420 <_ZN8valkyrie6kernel9SharedPtrINS0_8FunctionIFvvEE13CallableIfaceEED1Ev>
   8e354:	d503201f 	nop
   8e358:	a8c27bfd 	ldp	x29, x30, [sp], #32
   8e35c:	d65f03c0 	ret

Disassembly of section .text._ZN8valkyrie6kernel10RingBufferINS0_9UniquePtrINS0_7TaskletEEEED2Ev:

000000000008e360 <_ZN8valkyrie6kernel10RingBufferINS0_9UniquePtrINS0_7TaskletEEEED1Ev>:
   8e360:	a9be7bfd 	stp	x29, x30, [sp, #-32]!
   8e364:	910003fd 	mov	x29, sp
   8e368:	f9000fe0 	str	x0, [sp, #24]
   8e36c:	f9400fe0 	ldr	x0, [sp, #24]
   8e370:	94000048 	bl	8e490 <_ZN8valkyrie6kernel9UniquePtrIA_NS1_INS0_7TaskletEEEED1Ev>
   8e374:	d503201f 	nop
   8e378:	a8c27bfd 	ldp	x29, x30, [sp], #32
   8e37c:	d65f03c0 	ret

Disassembly of section .text._ZN8valkyrie6kernel16TaskletSchedulerC2Ev:

000000000008e380 <_ZN8valkyrie6kernel16TaskletSchedulerC1Ev>:
   8e380:	a9be7bfd 	stp	x29, x30, [sp, #-32]!
   8e384:	910003fd 	mov	x29, sp
   8e388:	f9000fe0 	str	x0, [sp, #24]
   8e38c:	f9400fe0 	ldr	x0, [sp, #24]
   8e390:	52800401 	mov	w1, #0x20                  	// #32
   8e394:	9400002b 	bl	8e440 <_ZN8valkyrie6kernel10RingBufferINS0_9UniquePtrINS0_7TaskletEEEEC1Ei>
   8e398:	d503201f 	nop
   8e39c:	a8c27bfd 	ldp	x29, x30, [sp], #32
   8e3a0:	d65f03c0 	ret

Disassembly of section .text._ZNK8valkyrie6kernel4Task14get_trap_frameEv:

000000000008e3a4 <_ZNK8valkyrie6kernel4Task14get_trap_frameEv>:
   8e3a4:	d10043ff 	sub	sp, sp, #0x10
   8e3a8:	f90007e0 	str	x0, [sp, #8]
   8e3ac:	f94007e0 	ldr	x0, [sp, #8]
   8e3b0:	f9404c00 	ldr	x0, [x0, #152]
   8e3b4:	910043ff 	add	sp, sp, #0x10
   8e3b8:	d65f03c0 	ret

Disassembly of section .text._ZN8valkyrie6kernel4Task14set_trap_frameEPNS0_9TrapFrameE:

000000000008e3bc <_ZN8valkyrie6kernel4Task14set_trap_frameEPNS0_9TrapFrameE>:
   8e3bc:	d10043ff 	sub	sp, sp, #0x10
   8e3c0:	f90007e0 	str	x0, [sp, #8]
   8e3c4:	f90003e1 	str	x1, [sp]
   8e3c8:	f94007e0 	ldr	x0, [sp, #8]
   8e3cc:	f94003e1 	ldr	x1, [sp]
   8e3d0:	f9004c01 	str	x1, [x0, #152]
   8e3d4:	d503201f 	nop
   8e3d8:	910043ff 	add	sp, sp, #0x10
   8e3dc:	d65f03c0 	ret

Disassembly of section .text._ZN8valkyrie6kernel16TaskletSchedulerD2Ev:

000000000008e3e0 <_ZN8valkyrie6kernel16TaskletSchedulerD1Ev>:
   8e3e0:	a9be7bfd 	stp	x29, x30, [sp, #-32]!
   8e3e4:	910003fd 	mov	x29, sp
   8e3e8:	f9000fe0 	str	x0, [sp, #24]
   8e3ec:	f9400fe0 	ldr	x0, [sp, #24]
   8e3f0:	97ffffdc 	bl	8e360 <_ZN8valkyrie6kernel10RingBufferINS0_9UniquePtrINS0_7TaskletEEEED1Ev>
   8e3f4:	d503201f 	nop
   8e3f8:	a8c27bfd 	ldp	x29, x30, [sp], #32
   8e3fc:	d65f03c0 	ret

Disassembly of section .text._ZN8valkyrie6kernel16ExceptionManagerD2Ev:

000000000008e400 <_ZN8valkyrie6kernel16ExceptionManagerD1Ev>:
   8e400:	a9be7bfd 	stp	x29, x30, [sp, #-32]!
   8e404:	910003fd 	mov	x29, sp
   8e408:	f9000fe0 	str	x0, [sp, #24]
   8e40c:	f9400fe0 	ldr	x0, [sp, #24]
   8e410:	97fffff4 	bl	8e3e0 <_ZN8valkyrie6kernel16TaskletSchedulerD1Ev>
   8e414:	d503201f 	nop
   8e418:	a8c27bfd 	ldp	x29, x30, [sp], #32
   8e41c:	d65f03c0 	ret

Disassembly of section .text._ZN8valkyrie6kernel9SharedPtrINS0_8FunctionIFvvEE13CallableIfaceEED2Ev:

000000000008e420 <_ZN8valkyrie6kernel9SharedPtrINS0_8FunctionIFvvEE13CallableIfaceEED1Ev>:
   8e420:	a9be7bfd 	stp	x29, x30, [sp, #-32]!
   8e424:	910003fd 	mov	x29, sp
   8e428:	f9000fe0 	str	x0, [sp, #24]
   8e42c:	f9400fe0 	ldr	x0, [sp, #24]
   8e430:	94000184 	bl	8ea40 <_ZN8valkyrie6kernel9SharedPtrINS0_8FunctionIFvvEE13CallableIfaceEE13dec_use_countEv>
   8e434:	d503201f 	nop
   8e438:	a8c27bfd 	ldp	x29, x30, [sp], #32
   8e43c:	d65f03c0 	ret

Disassembly of section .text._ZN8valkyrie6kernel10RingBufferINS0_9UniquePtrINS0_7TaskletEEEEC2Ei:

000000000008e440 <_ZN8valkyrie6kernel10RingBufferINS0_9UniquePtrINS0_7TaskletEEEEC1Ei>:
   8e440:	a9be7bfd 	stp	x29, x30, [sp, #-32]!
   8e444:	910003fd 	mov	x29, sp
   8e448:	f9000fe0 	str	x0, [sp, #24]
   8e44c:	b90017e1 	str	w1, [sp, #20]
   8e450:	b98017e0 	ldrsw	x0, [sp, #20]
   8e454:	f9400fe1 	ldr	x1, [sp, #24]
   8e458:	aa0103e8 	mov	x8, x1
   8e45c:	940001ae 	bl	8eb14 <_ZN8valkyrie6kernel11make_uniqueIA_NS0_9UniquePtrINS0_7TaskletEEEEENS0_9_UniqueIfIT_E13_UnknownBoundEm>
   8e460:	f9400fe0 	ldr	x0, [sp, #24]
   8e464:	b900081f 	str	wzr, [x0, #8]
   8e468:	f9400fe0 	ldr	x0, [sp, #24]
   8e46c:	b9000c1f 	str	wzr, [x0, #12]
   8e470:	f9400fe0 	ldr	x0, [sp, #24]
   8e474:	f900081f 	str	xzr, [x0, #16]
   8e478:	b98017e1 	ldrsw	x1, [sp, #20]
   8e47c:	f9400fe0 	ldr	x0, [sp, #24]
   8e480:	f9000c01 	str	x1, [x0, #24]
   8e484:	d503201f 	nop
   8e488:	a8c27bfd 	ldp	x29, x30, [sp], #32
   8e48c:	d65f03c0 	ret

Disassembly of section .text._ZN8valkyrie6kernel9UniquePtrIA_NS1_INS0_7TaskletEEEED2Ev:

000000000008e490 <_ZN8valkyrie6kernel9UniquePtrIA_NS1_INS0_7TaskletEEEED1Ev>:
   8e490:	a9be7bfd 	stp	x29, x30, [sp, #-32]!
   8e494:	910003fd 	mov	x29, sp
   8e498:	f9000fe0 	str	x0, [sp, #24]
   8e49c:	d2800001 	mov	x1, #0x0                   	// #0
   8e4a0:	f9400fe0 	ldr	x0, [sp, #24]
   8e4a4:	940001ca 	bl	8ebcc <_ZN8valkyrie6kernel9UniquePtrIA_NS1_INS0_7TaskletEEEE5resetEPS3_>
   8e4a8:	f9400fe0 	ldr	x0, [sp, #24]
   8e4ac:	940001bf 	bl	8eba8 <_ZN8valkyrie6kernel9UniquePtrINS1_INS0_7TaskletEEEED1Ev>
   8e4b0:	d503201f 	nop
   8e4b4:	a8c27bfd 	ldp	x29, x30, [sp], #32
   8e4b8:	d65f03c0 	ret

Disassembly of section .text._ZN8valkyrie6kernel7TaskletD2Ev:

000000000008e4bc <_ZN8valkyrie6kernel7TaskletD1Ev>:
   8e4bc:	a9be7bfd 	stp	x29, x30, [sp, #-32]!
   8e4c0:	910003fd 	mov	x29, sp
   8e4c4:	f9000fe0 	str	x0, [sp, #24]
   8e4c8:	f9400fe0 	ldr	x0, [sp, #24]
   8e4cc:	97ffff9d 	bl	8e340 <_ZN8valkyrie6kernel8FunctionIFvvEED1Ev>
   8e4d0:	d503201f 	nop
   8e4d4:	a8c27bfd 	ldp	x29, x30, [sp], #32
   8e4d8:	d65f03c0 	ret

Disassembly of section .text._ZN8valkyrie6kernel9UniquePtrINS0_7TaskletEE5resetEPS2_:

000000000008e4dc <_ZN8valkyrie6kernel9UniquePtrINS0_7TaskletEE5resetEPS2_>:
   8e4dc:	a9bd7bfd 	stp	x29, x30, [sp, #-48]!
   8e4e0:	910003fd 	mov	x29, sp
   8e4e4:	f9000bf3 	str	x19, [sp, #16]
   8e4e8:	f90017e0 	str	x0, [sp, #40]
   8e4ec:	f90013e1 	str	x1, [sp, #32]
   8e4f0:	f94017e0 	ldr	x0, [sp, #40]
   8e4f4:	f9400000 	ldr	x0, [x0]
   8e4f8:	f94013e1 	ldr	x1, [sp, #32]
   8e4fc:	eb00003f 	cmp	x1, x0
   8e500:	540001c0 	b.eq	8e538 <_ZN8valkyrie6kernel9UniquePtrINS0_7TaskletEE5resetEPS2_+0x5c>  // b.none
   8e504:	f94017e0 	ldr	x0, [sp, #40]
   8e508:	f9400013 	ldr	x19, [x0]
   8e50c:	f100027f 	cmp	x19, #0x0
   8e510:	540000c0 	b.eq	8e528 <_ZN8valkyrie6kernel9UniquePtrINS0_7TaskletEE5resetEPS2_+0x4c>  // b.none
   8e514:	aa1303e0 	mov	x0, x19
   8e518:	97ffffe9 	bl	8e4bc <_ZN8valkyrie6kernel7TaskletD1Ev>
   8e51c:	d2800201 	mov	x1, #0x10                  	// #16
   8e520:	aa1303e0 	mov	x0, x19
   8e524:	97ffd247 	bl	82e40 <_ZdlPvm>
   8e528:	f94017e0 	ldr	x0, [sp, #40]
   8e52c:	f94013e1 	ldr	x1, [sp, #32]
   8e530:	f9000001 	str	x1, [x0]
   8e534:	14000002 	b	8e53c <_ZN8valkyrie6kernel9UniquePtrINS0_7TaskletEE5resetEPS2_+0x60>
   8e538:	d503201f 	nop
   8e53c:	f9400bf3 	ldr	x19, [sp, #16]
   8e540:	a8c37bfd 	ldp	x29, x30, [sp], #48
   8e544:	d65f03c0 	ret

Disassembly of section .text._ZN8valkyrie6kernel10do_syscallIJyyyyyyEEEmyDpT_:

000000000008e548 <_ZN8valkyrie6kernel10do_syscallIJyyyyyyEEEmyDpT_>:
   8e548:	a9bb7bfd 	stp	x29, x30, [sp, #-80]!
   8e54c:	910003fd 	mov	x29, sp
   8e550:	f90027e0 	str	x0, [sp, #72]
   8e554:	f90023e1 	str	x1, [sp, #64]
   8e558:	f9001fe2 	str	x2, [sp, #56]
   8e55c:	f9001be3 	str	x3, [sp, #48]
   8e560:	f90017e4 	str	x4, [sp, #40]
   8e564:	f90013e5 	str	x5, [sp, #32]
   8e568:	f9000fe6 	str	x6, [sp, #24]
   8e56c:	f94027e0 	ldr	x0, [sp, #72]
   8e570:	f100181f 	cmp	x0, #0x6
   8e574:	1a9f97e0 	cset	w0, hi  // hi = pmore
   8e578:	12001c00 	and	w0, w0, #0xff
   8e57c:	92401c00 	and	x0, x0, #0xff
   8e580:	f100001f 	cmp	x0, #0x0
   8e584:	54000100 	b.eq	8e5a4 <_ZN8valkyrie6kernel10do_syscallIJyyyyyyEEEmyDpT_+0x5c>  // b.none
   8e588:	910123e0 	add	x0, sp, #0x48
   8e58c:	aa0003e1 	mov	x1, x0
   8e590:	d0ffffc0 	adrp	x0, 88000 <_ZN8valkyrie6kernel16TimerMultiplexer4tickEv+0x18>
   8e594:	9136e000 	add	x0, x0, #0xdb8
   8e598:	940001bf 	bl	8ec94 <_Z6printkIJRKyEEvPKcDpOT_>
   8e59c:	92800000 	mov	x0, #0xffffffffffffffff    	// #-1
   8e5a0:	1400000e 	b	8e5d8 <_ZN8valkyrie6kernel10do_syscallIJyyyyyyEEEmyDpT_+0x90>
   8e5a4:	f94027e1 	ldr	x1, [sp, #72]
   8e5a8:	90000020 	adrp	x0, 92000 <_Z6printkIJPKN8valkyrie6kernel8FunctionIFvvEEEEEvPKcDpOT_+0x18>
   8e5ac:	f947b400 	ldr	x0, [x0, #3944]
   8e5b0:	f8617800 	ldr	x0, [x0, x1, lsl #3]
   8e5b4:	aa0003e6 	mov	x6, x0
   8e5b8:	f9400fe5 	ldr	x5, [sp, #24]
   8e5bc:	f94013e4 	ldr	x4, [sp, #32]
   8e5c0:	f94017e3 	ldr	x3, [sp, #40]
   8e5c4:	f9401be2 	ldr	x2, [sp, #48]
   8e5c8:	f9401fe1 	ldr	x1, [sp, #56]
   8e5cc:	f94023e0 	ldr	x0, [sp, #64]
   8e5d0:	d63f00c0 	blr	x6
   8e5d4:	d503201f 	nop
   8e5d8:	a8c57bfd 	ldp	x29, x30, [sp], #80
   8e5dc:	d65f03c0 	ret

Disassembly of section .text._Z6printkIJhEEvPKcDpOT_:

000000000008e5e0 <_Z6printkIJhEEvPKcDpOT_>:
   8e5e0:	a9bb7bfd 	stp	x29, x30, [sp, #-80]!
   8e5e4:	910003fd 	mov	x29, sp
   8e5e8:	f9000fe0 	str	x0, [sp, #24]
   8e5ec:	f9000be1 	str	x1, [sp, #16]
   8e5f0:	d53be020 	mrs	x0, cntpct_el0
   8e5f4:	f90027e0 	str	x0, [sp, #72]
   8e5f8:	d53be000 	mrs	x0, cntfrq_el0
   8e5fc:	f90023e0 	str	x0, [sp, #64]
   8e600:	f94027e1 	ldr	x1, [sp, #72]
   8e604:	aa0103e0 	mov	x0, x1
   8e608:	d37be800 	lsl	x0, x0, #5
   8e60c:	cb010000 	sub	x0, x0, x1
   8e610:	d37ef400 	lsl	x0, x0, #2
   8e614:	8b010000 	add	x0, x0, x1
   8e618:	d37df000 	lsl	x0, x0, #3
   8e61c:	aa0003e1 	mov	x1, x0
   8e620:	f94023e0 	ldr	x0, [sp, #64]
   8e624:	9ac00820 	udiv	x0, x1, x0
   8e628:	f9001fe0 	str	x0, [sp, #56]
   8e62c:	f9401fe0 	ldr	x0, [sp, #56]
   8e630:	d343fc01 	lsr	x1, x0, #3
   8e634:	d29ef9e0 	mov	x0, #0xf7cf                	// #63439
   8e638:	f2bc6a60 	movk	x0, #0xe353, lsl #16
   8e63c:	f2d374a0 	movk	x0, #0x9ba5, lsl #32
   8e640:	f2e41880 	movk	x0, #0x20c4, lsl #48
   8e644:	9bc07c20 	umulh	x0, x1, x0
   8e648:	d344fc00 	lsr	x0, x0, #4
   8e64c:	f90017e0 	str	x0, [sp, #40]
   8e650:	f9401fe2 	ldr	x2, [sp, #56]
   8e654:	d343fc41 	lsr	x1, x2, #3
   8e658:	d29ef9e0 	mov	x0, #0xf7cf                	// #63439
   8e65c:	f2bc6a60 	movk	x0, #0xe353, lsl #16
   8e660:	f2d374a0 	movk	x0, #0x9ba5, lsl #32
   8e664:	f2e41880 	movk	x0, #0x20c4, lsl #48
   8e668:	9bc07c20 	umulh	x0, x1, x0
   8e66c:	d344fc01 	lsr	x1, x0, #4
   8e670:	aa0103e0 	mov	x0, x1
   8e674:	d37be800 	lsl	x0, x0, #5
   8e678:	cb010000 	sub	x0, x0, x1
   8e67c:	d37ef400 	lsl	x0, x0, #2
   8e680:	8b010000 	add	x0, x0, x1
   8e684:	d37df000 	lsl	x0, x0, #3
   8e688:	cb000041 	sub	x1, x2, x0
   8e68c:	f9001be1 	str	x1, [sp, #48]
   8e690:	9100c3e1 	add	x1, sp, #0x30
   8e694:	9100a3e0 	add	x0, sp, #0x28
   8e698:	aa0103e2 	mov	x2, x1
   8e69c:	aa0003e1 	mov	x1, x0
   8e6a0:	d0ffffc0 	adrp	x0, 88000 <_ZN8valkyrie6kernel16TimerMultiplexer4tickEv+0x18>
   8e6a4:	91376000 	add	x0, x0, #0xdd8
   8e6a8:	97fffe67 	bl	8e044 <_Z6printfIJyyEEvPKcDpOT_>
   8e6ac:	f9400be1 	ldr	x1, [sp, #16]
   8e6b0:	f9400fe0 	ldr	x0, [sp, #24]
   8e6b4:	940001b1 	bl	8ed78 <_Z6printfIJRhEEvPKcDpOT_>
   8e6b8:	d503201f 	nop
   8e6bc:	a8c57bfd 	ldp	x29, x30, [sp], #80
   8e6c0:	d65f03c0 	ret

Disassembly of section .text._Z6printkIJRKmEEvPKcDpOT_:

000000000008e6c4 <_Z6printkIJRKmEEvPKcDpOT_>:
   8e6c4:	a9bb7bfd 	stp	x29, x30, [sp, #-80]!
   8e6c8:	910003fd 	mov	x29, sp
   8e6cc:	f9000fe0 	str	x0, [sp, #24]
   8e6d0:	f9000be1 	str	x1, [sp, #16]
   8e6d4:	d53be020 	mrs	x0, cntpct_el0
   8e6d8:	f90027e0 	str	x0, [sp, #72]
   8e6dc:	d53be000 	mrs	x0, cntfrq_el0
   8e6e0:	f90023e0 	str	x0, [sp, #64]
   8e6e4:	f94027e1 	ldr	x1, [sp, #72]
   8e6e8:	aa0103e0 	mov	x0, x1
   8e6ec:	d37be800 	lsl	x0, x0, #5
   8e6f0:	cb010000 	sub	x0, x0, x1
   8e6f4:	d37ef400 	lsl	x0, x0, #2
   8e6f8:	8b010000 	add	x0, x0, x1
   8e6fc:	d37df000 	lsl	x0, x0, #3
   8e700:	aa0003e1 	mov	x1, x0
   8e704:	f94023e0 	ldr	x0, [sp, #64]
   8e708:	9ac00820 	udiv	x0, x1, x0
   8e70c:	f9001fe0 	str	x0, [sp, #56]
   8e710:	f9401fe0 	ldr	x0, [sp, #56]
   8e714:	d343fc01 	lsr	x1, x0, #3
   8e718:	d29ef9e0 	mov	x0, #0xf7cf                	// #63439
   8e71c:	f2bc6a60 	movk	x0, #0xe353, lsl #16
   8e720:	f2d374a0 	movk	x0, #0x9ba5, lsl #32
   8e724:	f2e41880 	movk	x0, #0x20c4, lsl #48
   8e728:	9bc07c20 	umulh	x0, x1, x0
   8e72c:	d344fc00 	lsr	x0, x0, #4
   8e730:	f90017e0 	str	x0, [sp, #40]
   8e734:	f9401fe2 	ldr	x2, [sp, #56]
   8e738:	d343fc41 	lsr	x1, x2, #3
   8e73c:	d29ef9e0 	mov	x0, #0xf7cf                	// #63439
   8e740:	f2bc6a60 	movk	x0, #0xe353, lsl #16
   8e744:	f2d374a0 	movk	x0, #0x9ba5, lsl #32
   8e748:	f2e41880 	movk	x0, #0x20c4, lsl #48
   8e74c:	9bc07c20 	umulh	x0, x1, x0
   8e750:	d344fc01 	lsr	x1, x0, #4
   8e754:	aa0103e0 	mov	x0, x1
   8e758:	d37be800 	lsl	x0, x0, #5
   8e75c:	cb010000 	sub	x0, x0, x1
   8e760:	d37ef400 	lsl	x0, x0, #2
   8e764:	8b010000 	add	x0, x0, x1
   8e768:	d37df000 	lsl	x0, x0, #3
   8e76c:	cb000041 	sub	x1, x2, x0
   8e770:	f9001be1 	str	x1, [sp, #48]
   8e774:	9100c3e1 	add	x1, sp, #0x30
   8e778:	9100a3e0 	add	x0, sp, #0x28
   8e77c:	aa0103e2 	mov	x2, x1
   8e780:	aa0003e1 	mov	x1, x0
   8e784:	d0ffffc0 	adrp	x0, 88000 <_ZN8valkyrie6kernel16TimerMultiplexer4tickEv+0x18>
   8e788:	91376000 	add	x0, x0, #0xdd8
   8e78c:	97fffe2e 	bl	8e044 <_Z6printfIJyyEEvPKcDpOT_>
   8e790:	f9400be1 	ldr	x1, [sp, #16]
   8e794:	f9400fe0 	ldr	x0, [sp, #24]
   8e798:	94000184 	bl	8eda8 <_Z6printfIJRKmEEvPKcDpOT_>
   8e79c:	d503201f 	nop
   8e7a0:	a8c57bfd 	ldp	x29, x30, [sp], #80
   8e7a4:	d65f03c0 	ret

Disassembly of section .text._Z6printkIJRKhEEvPKcDpOT_:

000000000008e7a8 <_Z6printkIJRKhEEvPKcDpOT_>:
   8e7a8:	a9bb7bfd 	stp	x29, x30, [sp, #-80]!
   8e7ac:	910003fd 	mov	x29, sp
   8e7b0:	f9000fe0 	str	x0, [sp, #24]
   8e7b4:	f9000be1 	str	x1, [sp, #16]
   8e7b8:	d53be020 	mrs	x0, cntpct_el0
   8e7bc:	f90027e0 	str	x0, [sp, #72]
   8e7c0:	d53be000 	mrs	x0, cntfrq_el0
   8e7c4:	f90023e0 	str	x0, [sp, #64]
   8e7c8:	f94027e1 	ldr	x1, [sp, #72]
   8e7cc:	aa0103e0 	mov	x0, x1
   8e7d0:	d37be800 	lsl	x0, x0, #5
   8e7d4:	cb010000 	sub	x0, x0, x1
   8e7d8:	d37ef400 	lsl	x0, x0, #2
   8e7dc:	8b010000 	add	x0, x0, x1
   8e7e0:	d37df000 	lsl	x0, x0, #3
   8e7e4:	aa0003e1 	mov	x1, x0
   8e7e8:	f94023e0 	ldr	x0, [sp, #64]
   8e7ec:	9ac00820 	udiv	x0, x1, x0
   8e7f0:	f9001fe0 	str	x0, [sp, #56]
   8e7f4:	f9401fe0 	ldr	x0, [sp, #56]
   8e7f8:	d343fc01 	lsr	x1, x0, #3
   8e7fc:	d29ef9e0 	mov	x0, #0xf7cf                	// #63439
   8e800:	f2bc6a60 	movk	x0, #0xe353, lsl #16
   8e804:	f2d374a0 	movk	x0, #0x9ba5, lsl #32
   8e808:	f2e41880 	movk	x0, #0x20c4, lsl #48
   8e80c:	9bc07c20 	umulh	x0, x1, x0
   8e810:	d344fc00 	lsr	x0, x0, #4
   8e814:	f90017e0 	str	x0, [sp, #40]
   8e818:	f9401fe2 	ldr	x2, [sp, #56]
   8e81c:	d343fc41 	lsr	x1, x2, #3
   8e820:	d29ef9e0 	mov	x0, #0xf7cf                	// #63439
   8e824:	f2bc6a60 	movk	x0, #0xe353, lsl #16
   8e828:	f2d374a0 	movk	x0, #0x9ba5, lsl #32
   8e82c:	f2e41880 	movk	x0, #0x20c4, lsl #48
   8e830:	9bc07c20 	umulh	x0, x1, x0
   8e834:	d344fc01 	lsr	x1, x0, #4
   8e838:	aa0103e0 	mov	x0, x1
   8e83c:	d37be800 	lsl	x0, x0, #5
   8e840:	cb010000 	sub	x0, x0, x1
   8e844:	d37ef400 	lsl	x0, x0, #2
   8e848:	8b010000 	add	x0, x0, x1
   8e84c:	d37df000 	lsl	x0, x0, #3
   8e850:	cb000041 	sub	x1, x2, x0
   8e854:	f9001be1 	str	x1, [sp, #48]
   8e858:	9100c3e1 	add	x1, sp, #0x30
   8e85c:	9100a3e0 	add	x0, sp, #0x28
   8e860:	aa0103e2 	mov	x2, x1
   8e864:	aa0003e1 	mov	x1, x0
   8e868:	d0ffffc0 	adrp	x0, 88000 <_ZN8valkyrie6kernel16TimerMultiplexer4tickEv+0x18>
   8e86c:	91376000 	add	x0, x0, #0xdd8
   8e870:	97fffdf5 	bl	8e044 <_Z6printfIJyyEEvPKcDpOT_>
   8e874:	f9400be1 	ldr	x1, [sp, #16]
   8e878:	f9400fe0 	ldr	x0, [sp, #24]
   8e87c:	94000157 	bl	8edd8 <_Z6printfIJRKhEEvPKcDpOT_>
   8e880:	d503201f 	nop
   8e884:	a8c57bfd 	ldp	x29, x30, [sp], #80
   8e888:	d65f03c0 	ret

Disassembly of section .text._Z6printkIJRKjEEvPKcDpOT_:

000000000008e88c <_Z6printkIJRKjEEvPKcDpOT_>:
   8e88c:	a9bb7bfd 	stp	x29, x30, [sp, #-80]!
   8e890:	910003fd 	mov	x29, sp
   8e894:	f9000fe0 	str	x0, [sp, #24]
   8e898:	f9000be1 	str	x1, [sp, #16]
   8e89c:	d53be020 	mrs	x0, cntpct_el0
   8e8a0:	f90027e0 	str	x0, [sp, #72]
   8e8a4:	d53be000 	mrs	x0, cntfrq_el0
   8e8a8:	f90023e0 	str	x0, [sp, #64]
   8e8ac:	f94027e1 	ldr	x1, [sp, #72]
   8e8b0:	aa0103e0 	mov	x0, x1
   8e8b4:	d37be800 	lsl	x0, x0, #5
   8e8b8:	cb010000 	sub	x0, x0, x1
   8e8bc:	d37ef400 	lsl	x0, x0, #2
   8e8c0:	8b010000 	add	x0, x0, x1
   8e8c4:	d37df000 	lsl	x0, x0, #3
   8e8c8:	aa0003e1 	mov	x1, x0
   8e8cc:	f94023e0 	ldr	x0, [sp, #64]
   8e8d0:	9ac00820 	udiv	x0, x1, x0
   8e8d4:	f9001fe0 	str	x0, [sp, #56]
   8e8d8:	f9401fe0 	ldr	x0, [sp, #56]
   8e8dc:	d343fc01 	lsr	x1, x0, #3
   8e8e0:	d29ef9e0 	mov	x0, #0xf7cf                	// #63439
   8e8e4:	f2bc6a60 	movk	x0, #0xe353, lsl #16
   8e8e8:	f2d374a0 	movk	x0, #0x9ba5, lsl #32
   8e8ec:	f2e41880 	movk	x0, #0x20c4, lsl #48
   8e8f0:	9bc07c20 	umulh	x0, x1, x0
   8e8f4:	d344fc00 	lsr	x0, x0, #4
   8e8f8:	f90017e0 	str	x0, [sp, #40]
   8e8fc:	f9401fe2 	ldr	x2, [sp, #56]
   8e900:	d343fc41 	lsr	x1, x2, #3
   8e904:	d29ef9e0 	mov	x0, #0xf7cf                	// #63439
   8e908:	f2bc6a60 	movk	x0, #0xe353, lsl #16
   8e90c:	f2d374a0 	movk	x0, #0x9ba5, lsl #32
   8e910:	f2e41880 	movk	x0, #0x20c4, lsl #48
   8e914:	9bc07c20 	umulh	x0, x1, x0
   8e918:	d344fc01 	lsr	x1, x0, #4
   8e91c:	aa0103e0 	mov	x0, x1
   8e920:	d37be800 	lsl	x0, x0, #5
   8e924:	cb010000 	sub	x0, x0, x1
   8e928:	d37ef400 	lsl	x0, x0, #2
   8e92c:	8b010000 	add	x0, x0, x1
   8e930:	d37df000 	lsl	x0, x0, #3
   8e934:	cb000041 	sub	x1, x2, x0
   8e938:	f9001be1 	str	x1, [sp, #48]
   8e93c:	9100c3e1 	add	x1, sp, #0x30
   8e940:	9100a3e0 	add	x0, sp, #0x28
   8e944:	aa0103e2 	mov	x2, x1
   8e948:	aa0003e1 	mov	x1, x0
   8e94c:	d0ffffc0 	adrp	x0, 88000 <_ZN8valkyrie6kernel16TimerMultiplexer4tickEv+0x18>
   8e950:	91376000 	add	x0, x0, #0xdd8
   8e954:	97fffdbc 	bl	8e044 <_Z6printfIJyyEEvPKcDpOT_>
   8e958:	f9400be1 	ldr	x1, [sp, #16]
   8e95c:	f9400fe0 	ldr	x0, [sp, #24]
   8e960:	9400012a 	bl	8ee08 <_Z6printfIJRKjEEvPKcDpOT_>
   8e964:	d503201f 	nop
   8e968:	a8c57bfd 	ldp	x29, x30, [sp], #80
   8e96c:	d65f03c0 	ret

Disassembly of section .text._ZN8valkyrie6kernel6Kernel5panicIJRKhRKjEEEvPKcDpOT_:

000000000008e970 <_ZN8valkyrie6kernel6Kernel5panicIJRKhRKjEEEvPKcDpOT_>:
   8e970:	a9bc7bfd 	stp	x29, x30, [sp, #-64]!
   8e974:	910003fd 	mov	x29, sp
   8e978:	f90017e0 	str	x0, [sp, #40]
   8e97c:	f90013e1 	str	x1, [sp, #32]
   8e980:	f9000fe2 	str	x2, [sp, #24]
   8e984:	910003e0 	mov	x0, sp
   8e988:	f9001fe0 	str	x0, [sp, #56]
   8e98c:	97ffc65e 	bl	80304 <_ZN8valkyrie6kernel7console11clear_colorEv>
   8e990:	d0ffffc0 	adrp	x0, 88000 <_ZN8valkyrie6kernel16TimerMultiplexer4tickEv+0x18>
   8e994:	9137a000 	add	x0, x0, #0xde8
   8e998:	97fffd60 	bl	8df18 <_Z6printkIJEEvPKcDpOT_>
   8e99c:	52800021 	mov	w1, #0x1                   	// #1
   8e9a0:	52800020 	mov	w0, #0x1                   	// #1
   8e9a4:	97ffc64a 	bl	802cc <_ZN8valkyrie6kernel7console9set_colorENS1_5ColorEb>
   8e9a8:	d0ffffc0 	adrp	x0, 88000 <_ZN8valkyrie6kernel16TimerMultiplexer4tickEv+0x18>
   8e9ac:	9137c000 	add	x0, x0, #0xdf0
   8e9b0:	97fffd9d 	bl	8e024 <_Z6printfIJEEvPKcDpOT_>
   8e9b4:	52800001 	mov	w1, #0x0                   	// #0
   8e9b8:	52800060 	mov	w0, #0x3                   	// #3
   8e9bc:	97ffc644 	bl	802cc <_ZN8valkyrie6kernel7console9set_colorENS1_5ColorEb>
   8e9c0:	f9400fe2 	ldr	x2, [sp, #24]
   8e9c4:	f94013e1 	ldr	x1, [sp, #32]
   8e9c8:	f94017e0 	ldr	x0, [sp, #40]
   8e9cc:	9400011b 	bl	8ee38 <_Z6printfIJRKhRKjEEvPKcDpOT_>
   8e9d0:	97ffc64d 	bl	80304 <_ZN8valkyrie6kernel7console11clear_colorEv>
   8e9d4:	9100e3e0 	add	x0, sp, #0x38
   8e9d8:	aa0003e1 	mov	x1, x0
   8e9dc:	d0ffffc0 	adrp	x0, 88000 <_ZN8valkyrie6kernel16TimerMultiplexer4tickEv+0x18>
   8e9e0:	91380000 	add	x0, x0, #0xe00
   8e9e4:	97fffda7 	bl	8e080 <_Z6printkIJRyEEvPKcDpOT_>
   8e9e8:	97ffd080 	bl	82be8 <_ZN8valkyrie6kernel13MemoryManager12get_instanceEv>
   8e9ec:	97ffd0ee 	bl	82da4 <_ZNK8valkyrie6kernel13MemoryManager24dump_slob_allocator_infoEv>
   8e9f0:	d0ffffc0 	adrp	x0, 88000 <_ZN8valkyrie6kernel16TimerMultiplexer4tickEv+0x18>
   8e9f4:	9137a000 	add	x0, x0, #0xde8
   8e9f8:	97fffd48 	bl	8df18 <_Z6printkIJEEvPKcDpOT_>
   8e9fc:	52800021 	mov	w1, #0x1                   	// #1
   8ea00:	52800020 	mov	w0, #0x1                   	// #1
   8ea04:	97ffc632 	bl	802cc <_ZN8valkyrie6kernel7console9set_colorENS1_5ColorEb>
   8ea08:	d0ffffc0 	adrp	x0, 88000 <_ZN8valkyrie6kernel16TimerMultiplexer4tickEv+0x18>
   8ea0c:	91384000 	add	x0, x0, #0xe10
   8ea10:	97fffd85 	bl	8e024 <_Z6printfIJEEvPKcDpOT_>
   8ea14:	52800001 	mov	w1, #0x0                   	// #0
   8ea18:	52800060 	mov	w0, #0x3                   	// #3
   8ea1c:	97ffc62c 	bl	802cc <_ZN8valkyrie6kernel7console9set_colorENS1_5ColorEb>
   8ea20:	f9400fe2 	ldr	x2, [sp, #24]
   8ea24:	f94013e1 	ldr	x1, [sp, #32]
   8ea28:	f94017e0 	ldr	x0, [sp, #40]
   8ea2c:	94000103 	bl	8ee38 <_Z6printfIJRKhRKjEEvPKcDpOT_>
   8ea30:	97ffc635 	bl	80304 <_ZN8valkyrie6kernel7console11clear_colorEv>
   8ea34:	97ffcd54 	bl	81f84 <_ZN8valkyrie6kernel16ExceptionManager12get_instanceEv>
   8ea38:	97ffcd7e 	bl	82030 <_ZN8valkyrie6kernel16ExceptionManager7disableEv>
   8ea3c:	97ffc582 	bl	80044 <_halt>

Disassembly of section .text._ZN8valkyrie6kernel9SharedPtrINS0_8FunctionIFvvEE13CallableIfaceEE13dec_use_countEv:

000000000008ea40 <_ZN8valkyrie6kernel9SharedPtrINS0_8FunctionIFvvEE13CallableIfaceEE13dec_use_countEv>:
   8ea40:	a9be7bfd 	stp	x29, x30, [sp, #-32]!
   8ea44:	910003fd 	mov	x29, sp
   8ea48:	f9000fe0 	str	x0, [sp, #24]
   8ea4c:	f9400fe0 	ldr	x0, [sp, #24]
   8ea50:	9400010a 	bl	8ee78 <_ZNK8valkyrie6kernel9SharedPtrINS0_8FunctionIFvvEE13CallableIfaceEE8is_validEv>
   8ea54:	12001c00 	and	w0, w0, #0xff
   8ea58:	7100001f 	cmp	w0, #0x0
   8ea5c:	54000420 	b.eq	8eae0 <_ZN8valkyrie6kernel9SharedPtrINS0_8FunctionIFvvEE13CallableIfaceEE13dec_use_countEv+0xa0>  // b.none
   8ea60:	f9400fe0 	ldr	x0, [sp, #24]
   8ea64:	f9400000 	ldr	x0, [x0]
   8ea68:	b9400801 	ldr	w1, [x0, #8]
   8ea6c:	51000421 	sub	w1, w1, #0x1
   8ea70:	b9000801 	str	w1, [x0, #8]
   8ea74:	f9400fe0 	ldr	x0, [sp, #24]
   8ea78:	94000110 	bl	8eeb8 <_ZNK8valkyrie6kernel9SharedPtrINS0_8FunctionIFvvEE13CallableIfaceEE9use_countEv>
   8ea7c:	7100001f 	cmp	w0, #0x0
   8ea80:	1a9f17e0 	cset	w0, eq  // eq = none
   8ea84:	12001c00 	and	w0, w0, #0xff
   8ea88:	7100001f 	cmp	w0, #0x0
   8ea8c:	540002a0 	b.eq	8eae0 <_ZN8valkyrie6kernel9SharedPtrINS0_8FunctionIFvvEE13CallableIfaceEE13dec_use_countEv+0xa0>  // b.none
   8ea90:	f9400fe0 	ldr	x0, [sp, #24]
   8ea94:	f9400000 	ldr	x0, [x0]
   8ea98:	f9400000 	ldr	x0, [x0]
   8ea9c:	f100001f 	cmp	x0, #0x0
   8eaa0:	540000a0 	b.eq	8eab4 <_ZN8valkyrie6kernel9SharedPtrINS0_8FunctionIFvvEE13CallableIfaceEE13dec_use_countEv+0x74>  // b.none
   8eaa4:	f9400001 	ldr	x1, [x0]
   8eaa8:	91002021 	add	x1, x1, #0x8
   8eaac:	f9400021 	ldr	x1, [x1]
   8eab0:	d63f0020 	blr	x1
   8eab4:	f9400fe0 	ldr	x0, [sp, #24]
   8eab8:	f9400000 	ldr	x0, [x0]
   8eabc:	f100001f 	cmp	x0, #0x0
   8eac0:	54000060 	b.eq	8eacc <_ZN8valkyrie6kernel9SharedPtrINS0_8FunctionIFvvEE13CallableIfaceEE13dec_use_countEv+0x8c>  // b.none
   8eac4:	d2800201 	mov	x1, #0x10                  	// #16
   8eac8:	97ffd0de 	bl	82e40 <_ZdlPvm>
   8eacc:	f9400fe0 	ldr	x0, [sp, #24]
   8ead0:	f9400000 	ldr	x0, [x0]
   8ead4:	f900001f 	str	xzr, [x0]
   8ead8:	f9400fe0 	ldr	x0, [sp, #24]
   8eadc:	f900001f 	str	xzr, [x0]
   8eae0:	d503201f 	nop
   8eae4:	a8c27bfd 	ldp	x29, x30, [sp], #32
   8eae8:	d65f03c0 	ret

Disassembly of section .text._ZN8valkyrie6kernel9UniquePtrIA_NS1_INS0_7TaskletEEEECI2NS1_IS3_EEEPS3_:

000000000008eaec <_ZN8valkyrie6kernel9UniquePtrIA_NS1_INS0_7TaskletEEEECI1NS1_IS3_EEEPS3_>:
   8eaec:	a9be7bfd 	stp	x29, x30, [sp, #-32]!
   8eaf0:	910003fd 	mov	x29, sp
   8eaf4:	f9000fe0 	str	x0, [sp, #24]
   8eaf8:	f9000be1 	str	x1, [sp, #16]
   8eafc:	f9400fe0 	ldr	x0, [sp, #24]
   8eb00:	f9400be1 	ldr	x1, [sp, #16]
   8eb04:	94000103 	bl	8ef10 <_ZN8valkyrie6kernel9UniquePtrINS1_INS0_7TaskletEEEEC1EPS3_>
   8eb08:	d503201f 	nop
   8eb0c:	a8c27bfd 	ldp	x29, x30, [sp], #32
   8eb10:	d65f03c0 	ret

Disassembly of section .text._ZN8valkyrie6kernel11make_uniqueIA_NS0_9UniquePtrINS0_7TaskletEEEEENS0_9_UniqueIfIT_E13_UnknownBoundEm:

000000000008eb14 <_ZN8valkyrie6kernel11make_uniqueIA_NS0_9UniquePtrINS0_7TaskletEEEEENS0_9_UniqueIfIT_E13_UnknownBoundEm>:
   8eb14:	a9bc7bfd 	stp	x29, x30, [sp, #-64]!
   8eb18:	910003fd 	mov	x29, sp
   8eb1c:	a90153f3 	stp	x19, x20, [sp, #16]
   8eb20:	a9025bf5 	stp	x21, x22, [sp, #32]
   8eb24:	aa0803f6 	mov	x22, x8
   8eb28:	f9001fe0 	str	x0, [sp, #56]
   8eb2c:	f9401ff3 	ldr	x19, [sp, #56]
   8eb30:	92fe0000 	mov	x0, #0xfffffffffffffff     	// #1152921504606846975
   8eb34:	eb00027f 	cmp	x19, x0
   8eb38:	54000088 	b.hi	8eb48 <_ZN8valkyrie6kernel11make_uniqueIA_NS0_9UniquePtrINS0_7TaskletEEEEENS0_9_UniqueIfIT_E13_UnknownBoundEm+0x34>  // b.pmore
   8eb3c:	91000660 	add	x0, x19, #0x1
   8eb40:	d37df000 	lsl	x0, x0, #3
   8eb44:	14000002 	b	8eb4c <_ZN8valkyrie6kernel11make_uniqueIA_NS0_9UniquePtrINS0_7TaskletEEEEENS0_9_UniqueIfIT_E13_UnknownBoundEm+0x38>
   8eb48:	92800000 	mov	x0, #0xffffffffffffffff    	// #-1
   8eb4c:	97ffd0a6 	bl	82de4 <_Znam>
   8eb50:	aa0003f4 	mov	x20, x0
   8eb54:	f9000293 	str	x19, [x20]
   8eb58:	91002280 	add	x0, x20, #0x8
   8eb5c:	d1000661 	sub	x1, x19, #0x1
   8eb60:	aa0103f3 	mov	x19, x1
   8eb64:	aa0003f5 	mov	x21, x0
   8eb68:	f100027f 	cmp	x19, #0x0
   8eb6c:	540000cb 	b.lt	8eb84 <_ZN8valkyrie6kernel11make_uniqueIA_NS0_9UniquePtrINS0_7TaskletEEEEENS0_9_UniqueIfIT_E13_UnknownBoundEm+0x70>  // b.tstop
   8eb70:	aa1503e0 	mov	x0, x21
   8eb74:	940000e0 	bl	8eef4 <_ZN8valkyrie6kernel9UniquePtrINS0_7TaskletEEC1Ev>
   8eb78:	910022b5 	add	x21, x21, #0x8
   8eb7c:	d1000673 	sub	x19, x19, #0x1
   8eb80:	17fffffa 	b	8eb68 <_ZN8valkyrie6kernel11make_uniqueIA_NS0_9UniquePtrINS0_7TaskletEEEEENS0_9_UniqueIfIT_E13_UnknownBoundEm+0x54>
   8eb84:	91002280 	add	x0, x20, #0x8
   8eb88:	aa0003e1 	mov	x1, x0
   8eb8c:	aa1603e0 	mov	x0, x22
   8eb90:	97ffffd7 	bl	8eaec <_ZN8valkyrie6kernel9UniquePtrIA_NS1_INS0_7TaskletEEEECI1NS1_IS3_EEEPS3_>
   8eb94:	aa1603e0 	mov	x0, x22
   8eb98:	a94153f3 	ldp	x19, x20, [sp, #16]
   8eb9c:	a9425bf5 	ldp	x21, x22, [sp, #32]
   8eba0:	a8c47bfd 	ldp	x29, x30, [sp], #64
   8eba4:	d65f03c0 	ret

Disassembly of section .text._ZN8valkyrie6kernel9UniquePtrINS1_INS0_7TaskletEEEED2Ev:

000000000008eba8 <_ZN8valkyrie6kernel9UniquePtrINS1_INS0_7TaskletEEEED1Ev>:
   8eba8:	a9be7bfd 	stp	x29, x30, [sp, #-32]!
   8ebac:	910003fd 	mov	x29, sp
   8ebb0:	f9000fe0 	str	x0, [sp, #24]
   8ebb4:	d2800001 	mov	x1, #0x0                   	// #0
   8ebb8:	f9400fe0 	ldr	x0, [sp, #24]
   8ebbc:	940000de 	bl	8ef34 <_ZN8valkyrie6kernel9UniquePtrINS1_INS0_7TaskletEEEE5resetEPS3_>
   8ebc0:	d503201f 	nop
   8ebc4:	a8c27bfd 	ldp	x29, x30, [sp], #32
   8ebc8:	d65f03c0 	ret

Disassembly of section .text._ZN8valkyrie6kernel9UniquePtrIA_NS1_INS0_7TaskletEEEE5resetEPS3_:

000000000008ebcc <_ZN8valkyrie6kernel9UniquePtrIA_NS1_INS0_7TaskletEEEE5resetEPS3_>:
   8ebcc:	a9bd7bfd 	stp	x29, x30, [sp, #-48]!
   8ebd0:	910003fd 	mov	x29, sp
   8ebd4:	f9000bf3 	str	x19, [sp, #16]
   8ebd8:	f90017e0 	str	x0, [sp, #40]
   8ebdc:	f90013e1 	str	x1, [sp, #32]
   8ebe0:	f94017e0 	ldr	x0, [sp, #40]
   8ebe4:	f9400000 	ldr	x0, [x0]
   8ebe8:	f94013e1 	ldr	x1, [sp, #32]
   8ebec:	eb00003f 	cmp	x1, x0
   8ebf0:	540004a0 	b.eq	8ec84 <_ZN8valkyrie6kernel9UniquePtrIA_NS1_INS0_7TaskletEEEE5resetEPS3_+0xb8>  // b.none
   8ebf4:	f94017e0 	ldr	x0, [sp, #40]
   8ebf8:	f9400000 	ldr	x0, [x0]
   8ebfc:	f100001f 	cmp	x0, #0x0
   8ec00:	540003a0 	b.eq	8ec74 <_ZN8valkyrie6kernel9UniquePtrIA_NS1_INS0_7TaskletEEEE5resetEPS3_+0xa8>  // b.none
   8ec04:	f94017e0 	ldr	x0, [sp, #40]
   8ec08:	f9400001 	ldr	x1, [x0]
   8ec0c:	f94017e0 	ldr	x0, [sp, #40]
   8ec10:	f9400000 	ldr	x0, [x0]
   8ec14:	d1002000 	sub	x0, x0, #0x8
   8ec18:	f9400000 	ldr	x0, [x0]
   8ec1c:	d37df000 	lsl	x0, x0, #3
   8ec20:	8b000033 	add	x19, x1, x0
   8ec24:	f94017e0 	ldr	x0, [sp, #40]
   8ec28:	f9400000 	ldr	x0, [x0]
   8ec2c:	eb00027f 	cmp	x19, x0
   8ec30:	540000a0 	b.eq	8ec44 <_ZN8valkyrie6kernel9UniquePtrIA_NS1_INS0_7TaskletEEEE5resetEPS3_+0x78>  // b.none
   8ec34:	d1002273 	sub	x19, x19, #0x8
   8ec38:	aa1303e0 	mov	x0, x19
   8ec3c:	940000d9 	bl	8efa0 <_ZN8valkyrie6kernel9UniquePtrINS0_7TaskletEED1Ev>
   8ec40:	17fffff9 	b	8ec24 <_ZN8valkyrie6kernel9UniquePtrIA_NS1_INS0_7TaskletEEEE5resetEPS3_+0x58>
   8ec44:	f94017e0 	ldr	x0, [sp, #40]
   8ec48:	f9400000 	ldr	x0, [x0]
   8ec4c:	d1002002 	sub	x2, x0, #0x8
   8ec50:	f94017e0 	ldr	x0, [sp, #40]
   8ec54:	f9400000 	ldr	x0, [x0]
   8ec58:	d1002000 	sub	x0, x0, #0x8
   8ec5c:	f9400000 	ldr	x0, [x0]
   8ec60:	91000400 	add	x0, x0, #0x1
   8ec64:	d37df000 	lsl	x0, x0, #3
   8ec68:	aa0003e1 	mov	x1, x0
   8ec6c:	aa0203e0 	mov	x0, x2
   8ec70:	97ffd07d 	bl	82e64 <_ZdaPvm>
   8ec74:	f94017e0 	ldr	x0, [sp, #40]
   8ec78:	f94013e1 	ldr	x1, [sp, #32]
   8ec7c:	f9000001 	str	x1, [x0]
   8ec80:	14000002 	b	8ec88 <_ZN8valkyrie6kernel9UniquePtrIA_NS1_INS0_7TaskletEEEE5resetEPS3_+0xbc>
   8ec84:	d503201f 	nop
   8ec88:	f9400bf3 	ldr	x19, [sp, #16]
   8ec8c:	a8c37bfd 	ldp	x29, x30, [sp], #48
   8ec90:	d65f03c0 	ret

Disassembly of section .text._Z6printkIJRKyEEvPKcDpOT_:

000000000008ec94 <_Z6printkIJRKyEEvPKcDpOT_>:
   8ec94:	a9bb7bfd 	stp	x29, x30, [sp, #-80]!
   8ec98:	910003fd 	mov	x29, sp
   8ec9c:	f9000fe0 	str	x0, [sp, #24]
   8eca0:	f9000be1 	str	x1, [sp, #16]
   8eca4:	d53be020 	mrs	x0, cntpct_el0
   8eca8:	f90027e0 	str	x0, [sp, #72]
   8ecac:	d53be000 	mrs	x0, cntfrq_el0
   8ecb0:	f90023e0 	str	x0, [sp, #64]
   8ecb4:	f94027e1 	ldr	x1, [sp, #72]
   8ecb8:	aa0103e0 	mov	x0, x1
   8ecbc:	d37be800 	lsl	x0, x0, #5
   8ecc0:	cb010000 	sub	x0, x0, x1
   8ecc4:	d37ef400 	lsl	x0, x0, #2
   8ecc8:	8b010000 	add	x0, x0, x1
   8eccc:	d37df000 	lsl	x0, x0, #3
   8ecd0:	aa0003e1 	mov	x1, x0
   8ecd4:	f94023e0 	ldr	x0, [sp, #64]
   8ecd8:	9ac00820 	udiv	x0, x1, x0
   8ecdc:	f9001fe0 	str	x0, [sp, #56]
   8ece0:	f9401fe0 	ldr	x0, [sp, #56]
   8ece4:	d343fc01 	lsr	x1, x0, #3
   8ece8:	d29ef9e0 	mov	x0, #0xf7cf                	// #63439
   8ecec:	f2bc6a60 	movk	x0, #0xe353, lsl #16
   8ecf0:	f2d374a0 	movk	x0, #0x9ba5, lsl #32
   8ecf4:	f2e41880 	movk	x0, #0x20c4, lsl #48
   8ecf8:	9bc07c20 	umulh	x0, x1, x0
   8ecfc:	d344fc00 	lsr	x0, x0, #4
   8ed00:	f90017e0 	str	x0, [sp, #40]
   8ed04:	f9401fe2 	ldr	x2, [sp, #56]
   8ed08:	d343fc41 	lsr	x1, x2, #3
   8ed0c:	d29ef9e0 	mov	x0, #0xf7cf                	// #63439
   8ed10:	f2bc6a60 	movk	x0, #0xe353, lsl #16
   8ed14:	f2d374a0 	movk	x0, #0x9ba5, lsl #32
   8ed18:	f2e41880 	movk	x0, #0x20c4, lsl #48
   8ed1c:	9bc07c20 	umulh	x0, x1, x0
   8ed20:	d344fc01 	lsr	x1, x0, #4
   8ed24:	aa0103e0 	mov	x0, x1
   8ed28:	d37be800 	lsl	x0, x0, #5
   8ed2c:	cb010000 	sub	x0, x0, x1
   8ed30:	d37ef400 	lsl	x0, x0, #2
   8ed34:	8b010000 	add	x0, x0, x1
   8ed38:	d37df000 	lsl	x0, x0, #3
   8ed3c:	cb000041 	sub	x1, x2, x0
   8ed40:	f9001be1 	str	x1, [sp, #48]
   8ed44:	9100c3e1 	add	x1, sp, #0x30
   8ed48:	9100a3e0 	add	x0, sp, #0x28
   8ed4c:	aa0103e2 	mov	x2, x1
   8ed50:	aa0003e1 	mov	x1, x0
   8ed54:	d0ffffc0 	adrp	x0, 88000 <_ZN8valkyrie6kernel16TimerMultiplexer4tickEv+0x18>
   8ed58:	91376000 	add	x0, x0, #0xdd8
   8ed5c:	97fffcba 	bl	8e044 <_Z6printfIJyyEEvPKcDpOT_>
   8ed60:	f9400be1 	ldr	x1, [sp, #16]
   8ed64:	f9400fe0 	ldr	x0, [sp, #24]
   8ed68:	94000097 	bl	8efc4 <_Z6printfIJRKyEEvPKcDpOT_>
   8ed6c:	d503201f 	nop
   8ed70:	a8c57bfd 	ldp	x29, x30, [sp], #80
   8ed74:	d65f03c0 	ret

Disassembly of section .text._Z6printfIJRhEEvPKcDpOT_:

000000000008ed78 <_Z6printfIJRhEEvPKcDpOT_>:
   8ed78:	a9be7bfd 	stp	x29, x30, [sp, #-32]!
   8ed7c:	910003fd 	mov	x29, sp
   8ed80:	f9000fe0 	str	x0, [sp, #24]
   8ed84:	f9000be1 	str	x1, [sp, #16]
   8ed88:	f9400be0 	ldr	x0, [sp, #16]
   8ed8c:	39400000 	ldrb	w0, [x0]
   8ed90:	2a0003e1 	mov	w1, w0
   8ed94:	f9400fe0 	ldr	x0, [sp, #24]
   8ed98:	97ffd7da 	bl	84d00 <_Z10tfp_printfPcz>
   8ed9c:	d503201f 	nop
   8eda0:	a8c27bfd 	ldp	x29, x30, [sp], #32
   8eda4:	d65f03c0 	ret

Disassembly of section .text._Z6printfIJRKmEEvPKcDpOT_:

000000000008eda8 <_Z6printfIJRKmEEvPKcDpOT_>:
   8eda8:	a9be7bfd 	stp	x29, x30, [sp, #-32]!
   8edac:	910003fd 	mov	x29, sp
   8edb0:	f9000fe0 	str	x0, [sp, #24]
   8edb4:	f9000be1 	str	x1, [sp, #16]
   8edb8:	f9400be0 	ldr	x0, [sp, #16]
   8edbc:	f9400000 	ldr	x0, [x0]
   8edc0:	aa0003e1 	mov	x1, x0
   8edc4:	f9400fe0 	ldr	x0, [sp, #24]
   8edc8:	97ffd7ce 	bl	84d00 <_Z10tfp_printfPcz>
   8edcc:	d503201f 	nop
   8edd0:	a8c27bfd 	ldp	x29, x30, [sp], #32
   8edd4:	d65f03c0 	ret

Disassembly of section .text._Z6printfIJRKhEEvPKcDpOT_:

000000000008edd8 <_Z6printfIJRKhEEvPKcDpOT_>:
   8edd8:	a9be7bfd 	stp	x29, x30, [sp, #-32]!
   8eddc:	910003fd 	mov	x29, sp
   8ede0:	f9000fe0 	str	x0, [sp, #24]
   8ede4:	f9000be1 	str	x1, [sp, #16]
   8ede8:	f9400be0 	ldr	x0, [sp, #16]
   8edec:	39400000 	ldrb	w0, [x0]
   8edf0:	2a0003e1 	mov	w1, w0
   8edf4:	f9400fe0 	ldr	x0, [sp, #24]
   8edf8:	97ffd7c2 	bl	84d00 <_Z10tfp_printfPcz>
   8edfc:	d503201f 	nop
   8ee00:	a8c27bfd 	ldp	x29, x30, [sp], #32
   8ee04:	d65f03c0 	ret

Disassembly of section .text._Z6printfIJRKjEEvPKcDpOT_:

000000000008ee08 <_Z6printfIJRKjEEvPKcDpOT_>:
   8ee08:	a9be7bfd 	stp	x29, x30, [sp, #-32]!
   8ee0c:	910003fd 	mov	x29, sp
   8ee10:	f9000fe0 	str	x0, [sp, #24]
   8ee14:	f9000be1 	str	x1, [sp, #16]
   8ee18:	f9400be0 	ldr	x0, [sp, #16]
   8ee1c:	b9400000 	ldr	w0, [x0]
   8ee20:	2a0003e1 	mov	w1, w0
   8ee24:	f9400fe0 	ldr	x0, [sp, #24]
   8ee28:	97ffd7b6 	bl	84d00 <_Z10tfp_printfPcz>
   8ee2c:	d503201f 	nop
   8ee30:	a8c27bfd 	ldp	x29, x30, [sp], #32
   8ee34:	d65f03c0 	ret

Disassembly of section .text._Z6printfIJRKhRKjEEvPKcDpOT_:

000000000008ee38 <_Z6printfIJRKhRKjEEvPKcDpOT_>:
   8ee38:	a9bd7bfd 	stp	x29, x30, [sp, #-48]!
   8ee3c:	910003fd 	mov	x29, sp
   8ee40:	f90017e0 	str	x0, [sp, #40]
   8ee44:	f90013e1 	str	x1, [sp, #32]
   8ee48:	f9000fe2 	str	x2, [sp, #24]
   8ee4c:	f94013e0 	ldr	x0, [sp, #32]
   8ee50:	39400000 	ldrb	w0, [x0]
   8ee54:	2a0003e1 	mov	w1, w0
   8ee58:	f9400fe0 	ldr	x0, [sp, #24]
   8ee5c:	b9400000 	ldr	w0, [x0]
   8ee60:	2a0003e2 	mov	w2, w0
   8ee64:	f94017e0 	ldr	x0, [sp, #40]
   8ee68:	97ffd7a6 	bl	84d00 <_Z10tfp_printfPcz>
   8ee6c:	d503201f 	nop
   8ee70:	a8c37bfd 	ldp	x29, x30, [sp], #48
   8ee74:	d65f03c0 	ret

Disassembly of section .text._ZNK8valkyrie6kernel9SharedPtrINS0_8FunctionIFvvEE13CallableIfaceEE8is_validEv:

000000000008ee78 <_ZNK8valkyrie6kernel9SharedPtrINS0_8FunctionIFvvEE13CallableIfaceEE8is_validEv>:
   8ee78:	d10043ff 	sub	sp, sp, #0x10
   8ee7c:	f90007e0 	str	x0, [sp, #8]
   8ee80:	f94007e0 	ldr	x0, [sp, #8]
   8ee84:	f9400000 	ldr	x0, [x0]
   8ee88:	f100001f 	cmp	x0, #0x0
   8ee8c:	54000100 	b.eq	8eeac <_ZNK8valkyrie6kernel9SharedPtrINS0_8FunctionIFvvEE13CallableIfaceEE8is_validEv+0x34>  // b.none
   8ee90:	f94007e0 	ldr	x0, [sp, #8]
   8ee94:	f9400000 	ldr	x0, [x0]
   8ee98:	b9400800 	ldr	w0, [x0, #8]
   8ee9c:	7100001f 	cmp	w0, #0x0
   8eea0:	5400006d 	b.le	8eeac <_ZNK8valkyrie6kernel9SharedPtrINS0_8FunctionIFvvEE13CallableIfaceEE8is_validEv+0x34>
   8eea4:	52800020 	mov	w0, #0x1                   	// #1
   8eea8:	14000002 	b	8eeb0 <_ZNK8valkyrie6kernel9SharedPtrINS0_8FunctionIFvvEE13CallableIfaceEE8is_validEv+0x38>
   8eeac:	52800000 	mov	w0, #0x0                   	// #0
   8eeb0:	910043ff 	add	sp, sp, #0x10
   8eeb4:	d65f03c0 	ret

Disassembly of section .text._ZNK8valkyrie6kernel9SharedPtrINS0_8FunctionIFvvEE13CallableIfaceEE9use_countEv:

000000000008eeb8 <_ZNK8valkyrie6kernel9SharedPtrINS0_8FunctionIFvvEE13CallableIfaceEE9use_countEv>:
   8eeb8:	a9be7bfd 	stp	x29, x30, [sp, #-32]!
   8eebc:	910003fd 	mov	x29, sp
   8eec0:	f9000fe0 	str	x0, [sp, #24]
   8eec4:	f9400fe0 	ldr	x0, [sp, #24]
   8eec8:	97ffffec 	bl	8ee78 <_ZNK8valkyrie6kernel9SharedPtrINS0_8FunctionIFvvEE13CallableIfaceEE8is_validEv>
   8eecc:	12001c00 	and	w0, w0, #0xff
   8eed0:	7100001f 	cmp	w0, #0x0
   8eed4:	540000a0 	b.eq	8eee8 <_ZNK8valkyrie6kernel9SharedPtrINS0_8FunctionIFvvEE13CallableIfaceEE9use_countEv+0x30>  // b.none
   8eed8:	f9400fe0 	ldr	x0, [sp, #24]
   8eedc:	f9400000 	ldr	x0, [x0]
   8eee0:	b9400800 	ldr	w0, [x0, #8]
   8eee4:	14000002 	b	8eeec <_ZNK8valkyrie6kernel9SharedPtrINS0_8FunctionIFvvEE13CallableIfaceEE9use_countEv+0x34>
   8eee8:	52800000 	mov	w0, #0x0                   	// #0
   8eeec:	a8c27bfd 	ldp	x29, x30, [sp], #32
   8eef0:	d65f03c0 	ret

Disassembly of section .text._ZN8valkyrie6kernel9UniquePtrINS0_7TaskletEEC2Ev:

000000000008eef4 <_ZN8valkyrie6kernel9UniquePtrINS0_7TaskletEEC1Ev>:
   8eef4:	d10043ff 	sub	sp, sp, #0x10
   8eef8:	f90007e0 	str	x0, [sp, #8]
   8eefc:	f94007e0 	ldr	x0, [sp, #8]
   8ef00:	f900001f 	str	xzr, [x0]
   8ef04:	d503201f 	nop
   8ef08:	910043ff 	add	sp, sp, #0x10
   8ef0c:	d65f03c0 	ret

Disassembly of section .text._ZN8valkyrie6kernel9UniquePtrINS1_INS0_7TaskletEEEEC2EPS3_:

000000000008ef10 <_ZN8valkyrie6kernel9UniquePtrINS1_INS0_7TaskletEEEEC1EPS3_>:
   8ef10:	d10043ff 	sub	sp, sp, #0x10
   8ef14:	f90007e0 	str	x0, [sp, #8]
   8ef18:	f90003e1 	str	x1, [sp]
   8ef1c:	f94007e0 	ldr	x0, [sp, #8]
   8ef20:	f94003e1 	ldr	x1, [sp]
   8ef24:	f9000001 	str	x1, [x0]
   8ef28:	d503201f 	nop
   8ef2c:	910043ff 	add	sp, sp, #0x10
   8ef30:	d65f03c0 	ret

Disassembly of section .text._ZN8valkyrie6kernel9UniquePtrINS1_INS0_7TaskletEEEE5resetEPS3_:

000000000008ef34 <_ZN8valkyrie6kernel9UniquePtrINS1_INS0_7TaskletEEEE5resetEPS3_>:
   8ef34:	a9bd7bfd 	stp	x29, x30, [sp, #-48]!
   8ef38:	910003fd 	mov	x29, sp
   8ef3c:	f9000bf3 	str	x19, [sp, #16]
   8ef40:	f90017e0 	str	x0, [sp, #40]
   8ef44:	f90013e1 	str	x1, [sp, #32]
   8ef48:	f94017e0 	ldr	x0, [sp, #40]
   8ef4c:	f9400000 	ldr	x0, [x0]
   8ef50:	f94013e1 	ldr	x1, [sp, #32]
   8ef54:	eb00003f 	cmp	x1, x0
   8ef58:	540001c0 	b.eq	8ef90 <_ZN8valkyrie6kernel9UniquePtrINS1_INS0_7TaskletEEEE5resetEPS3_+0x5c>  // b.none
   8ef5c:	f94017e0 	ldr	x0, [sp, #40]
   8ef60:	f9400013 	ldr	x19, [x0]
   8ef64:	f100027f 	cmp	x19, #0x0
   8ef68:	540000c0 	b.eq	8ef80 <_ZN8valkyrie6kernel9UniquePtrINS1_INS0_7TaskletEEEE5resetEPS3_+0x4c>  // b.none
   8ef6c:	aa1303e0 	mov	x0, x19
   8ef70:	9400000c 	bl	8efa0 <_ZN8valkyrie6kernel9UniquePtrINS0_7TaskletEED1Ev>
   8ef74:	d2800101 	mov	x1, #0x8                   	// #8
   8ef78:	aa1303e0 	mov	x0, x19
   8ef7c:	97ffcfb1 	bl	82e40 <_ZdlPvm>
   8ef80:	f94017e0 	ldr	x0, [sp, #40]
   8ef84:	f94013e1 	ldr	x1, [sp, #32]
   8ef88:	f9000001 	str	x1, [x0]
   8ef8c:	14000002 	b	8ef94 <_ZN8valkyrie6kernel9UniquePtrINS1_INS0_7TaskletEEEE5resetEPS3_+0x60>
   8ef90:	d503201f 	nop
   8ef94:	f9400bf3 	ldr	x19, [sp, #16]
   8ef98:	a8c37bfd 	ldp	x29, x30, [sp], #48
   8ef9c:	d65f03c0 	ret

Disassembly of section .text._ZN8valkyrie6kernel9UniquePtrINS0_7TaskletEED2Ev:

000000000008efa0 <_ZN8valkyrie6kernel9UniquePtrINS0_7TaskletEED1Ev>:
   8efa0:	a9be7bfd 	stp	x29, x30, [sp, #-32]!
   8efa4:	910003fd 	mov	x29, sp
   8efa8:	f9000fe0 	str	x0, [sp, #24]
   8efac:	d2800001 	mov	x1, #0x0                   	// #0
   8efb0:	f9400fe0 	ldr	x0, [sp, #24]
   8efb4:	97fffd4a 	bl	8e4dc <_ZN8valkyrie6kernel9UniquePtrINS0_7TaskletEE5resetEPS2_>
   8efb8:	d503201f 	nop
   8efbc:	a8c27bfd 	ldp	x29, x30, [sp], #32
   8efc0:	d65f03c0 	ret

Disassembly of section .text._Z6printfIJRKyEEvPKcDpOT_:

000000000008efc4 <_Z6printfIJRKyEEvPKcDpOT_>:
   8efc4:	a9be7bfd 	stp	x29, x30, [sp, #-32]!
   8efc8:	910003fd 	mov	x29, sp
   8efcc:	f9000fe0 	str	x0, [sp, #24]
   8efd0:	f9000be1 	str	x1, [sp, #16]
   8efd4:	f9400be0 	ldr	x0, [sp, #16]
   8efd8:	f9400000 	ldr	x0, [x0]
   8efdc:	aa0003e1 	mov	x1, x0
   8efe0:	f9400fe0 	ldr	x0, [sp, #24]
   8efe4:	97ffd747 	bl	84d00 <_Z10tfp_printfPcz>
   8efe8:	d503201f 	nop
   8efec:	a8c27bfd 	ldp	x29, x30, [sp], #32
   8eff0:	d65f03c0 	ret

Disassembly of section .text._ZN8valkyrie6kernel2io3getIjEET_m:

000000000008eff4 <_ZN8valkyrie6kernel2io3getIjEET_m>:
   8eff4:	d10043ff 	sub	sp, sp, #0x10
   8eff8:	f90007e0 	str	x0, [sp, #8]
   8effc:	f94007e0 	ldr	x0, [sp, #8]
   8f000:	b9400000 	ldr	w0, [x0]
   8f004:	910043ff 	add	sp, sp, #0x10
   8f008:	d65f03c0 	ret

Disassembly of section .text._ZN8valkyrie6kernel2io3putIjEEvmT_:

000000000008f00c <_ZN8valkyrie6kernel2io3putIjEEvmT_>:
   8f00c:	d10043ff 	sub	sp, sp, #0x10
   8f010:	f90007e0 	str	x0, [sp, #8]
   8f014:	b90007e1 	str	w1, [sp, #4]
   8f018:	f94007e0 	ldr	x0, [sp, #8]
   8f01c:	b94007e1 	ldr	w1, [sp, #4]
   8f020:	b9000001 	str	w1, [x0]
   8f024:	d503201f 	nop
   8f028:	910043ff 	add	sp, sp, #0x10
   8f02c:	d65f03c0 	ret

Disassembly of section .text.kmalloc:

000000000008f030 <kmalloc>:
   8f030:	a9be7bfd 	stp	x29, x30, [sp, #-32]!
   8f034:	910003fd 	mov	x29, sp
   8f038:	f9000fe0 	str	x0, [sp, #24]
   8f03c:	97ffceeb 	bl	82be8 <_ZN8valkyrie6kernel13MemoryManager12get_instanceEv>
   8f040:	f9400fe1 	ldr	x1, [sp, #24]
   8f044:	97ffcf12 	bl	82c8c <_ZN8valkyrie6kernel13MemoryManager7kmallocEm>
   8f048:	a8c27bfd 	ldp	x29, x30, [sp], #32
   8f04c:	d65f03c0 	ret

Disassembly of section .text.kfree:

000000000008f050 <kfree>:
   8f050:	a9be7bfd 	stp	x29, x30, [sp, #-32]!
   8f054:	910003fd 	mov	x29, sp
   8f058:	f9000fe0 	str	x0, [sp, #24]
   8f05c:	97ffcee3 	bl	82be8 <_ZN8valkyrie6kernel13MemoryManager12get_instanceEv>
   8f060:	f9400fe1 	ldr	x1, [sp, #24]
   8f064:	97ffcf2b 	bl	82d10 <_ZN8valkyrie6kernel13MemoryManager5kfreeEPv>
   8f068:	d503201f 	nop
   8f06c:	a8c27bfd 	ldp	x29, x30, [sp], #32
   8f070:	d65f03c0 	ret

Disassembly of section .text._ZN8valkyrie6kernel2io5delayEm:

000000000008f074 <_ZN8valkyrie6kernel2io5delayEm>:
   8f074:	d10043ff 	sub	sp, sp, #0x10
   8f078:	f90007e0 	str	x0, [sp, #8]
   8f07c:	f94007e0 	ldr	x0, [sp, #8]
   8f080:	d1000401 	sub	x1, x0, #0x1
   8f084:	f90007e1 	str	x1, [sp, #8]
   8f088:	f100001f 	cmp	x0, #0x0
   8f08c:	1a9f07e0 	cset	w0, ne  // ne = any
   8f090:	12001c00 	and	w0, w0, #0xff
   8f094:	7100001f 	cmp	w0, #0x0
   8f098:	54000060 	b.eq	8f0a4 <_ZN8valkyrie6kernel2io5delayEm+0x30>  // b.none
   8f09c:	d503201f 	nop
   8f0a0:	17fffff7 	b	8f07c <_ZN8valkyrie6kernel2io5delayEm+0x8>
   8f0a4:	d503201f 	nop
   8f0a8:	910043ff 	add	sp, sp, #0x10
   8f0ac:	d65f03c0 	ret

Disassembly of section .text._ZN8valkyrie6kernel2io3getIhEET_m:

000000000008f0b0 <_ZN8valkyrie6kernel2io3getIhEET_m>:
   8f0b0:	d10043ff 	sub	sp, sp, #0x10
   8f0b4:	f90007e0 	str	x0, [sp, #8]
   8f0b8:	f94007e0 	ldr	x0, [sp, #8]
   8f0bc:	39400000 	ldrb	w0, [x0]
   8f0c0:	910043ff 	add	sp, sp, #0x10
   8f0c4:	d65f03c0 	ret

Disassembly of section .text._ZN8valkyrie6kernel2io3putIhEEvmT_:

000000000008f0c8 <_ZN8valkyrie6kernel2io3putIhEEvmT_>:
   8f0c8:	d10043ff 	sub	sp, sp, #0x10
   8f0cc:	f90007e0 	str	x0, [sp, #8]
   8f0d0:	39001fe1 	strb	w1, [sp, #7]
   8f0d4:	f94007e0 	ldr	x0, [sp, #8]
   8f0d8:	39401fe1 	ldrb	w1, [sp, #7]
   8f0dc:	39000001 	strb	w1, [x0]
   8f0e0:	d503201f 	nop
   8f0e4:	910043ff 	add	sp, sp, #0x10
   8f0e8:	d65f03c0 	ret

Disassembly of section .text._Z6printfIJRiEEvPKcDpOT_:

000000000008f0ec <_Z6printfIJRiEEvPKcDpOT_>:
   8f0ec:	a9be7bfd 	stp	x29, x30, [sp, #-32]!
   8f0f0:	910003fd 	mov	x29, sp
   8f0f4:	f9000fe0 	str	x0, [sp, #24]
   8f0f8:	f9000be1 	str	x1, [sp, #16]
   8f0fc:	f9400be0 	ldr	x0, [sp, #16]
   8f100:	b9400000 	ldr	w0, [x0]
   8f104:	2a0003e1 	mov	w1, w0
   8f108:	f9400fe0 	ldr	x0, [sp, #24]
   8f10c:	97ffd6fd 	bl	84d00 <_Z10tfp_printfPcz>
   8f110:	d503201f 	nop
   8f114:	a8c27bfd 	ldp	x29, x30, [sp], #32
   8f118:	d65f03c0 	ret

Disassembly of section .text._Z6printkIJRmEEvPKcDpOT_:

000000000008f11c <_Z6printkIJRmEEvPKcDpOT_>:
   8f11c:	a9bb7bfd 	stp	x29, x30, [sp, #-80]!
   8f120:	910003fd 	mov	x29, sp
   8f124:	f9000fe0 	str	x0, [sp, #24]
   8f128:	f9000be1 	str	x1, [sp, #16]
   8f12c:	d53be020 	mrs	x0, cntpct_el0
   8f130:	f90027e0 	str	x0, [sp, #72]
   8f134:	d53be000 	mrs	x0, cntfrq_el0
   8f138:	f90023e0 	str	x0, [sp, #64]
   8f13c:	f94027e1 	ldr	x1, [sp, #72]
   8f140:	aa0103e0 	mov	x0, x1
   8f144:	d37be800 	lsl	x0, x0, #5
   8f148:	cb010000 	sub	x0, x0, x1
   8f14c:	d37ef400 	lsl	x0, x0, #2
   8f150:	8b010000 	add	x0, x0, x1
   8f154:	d37df000 	lsl	x0, x0, #3
   8f158:	aa0003e1 	mov	x1, x0
   8f15c:	f94023e0 	ldr	x0, [sp, #64]
   8f160:	9ac00820 	udiv	x0, x1, x0
   8f164:	f9001fe0 	str	x0, [sp, #56]
   8f168:	f9401fe0 	ldr	x0, [sp, #56]
   8f16c:	d343fc01 	lsr	x1, x0, #3
   8f170:	d29ef9e0 	mov	x0, #0xf7cf                	// #63439
   8f174:	f2bc6a60 	movk	x0, #0xe353, lsl #16
   8f178:	f2d374a0 	movk	x0, #0x9ba5, lsl #32
   8f17c:	f2e41880 	movk	x0, #0x20c4, lsl #48
   8f180:	9bc07c20 	umulh	x0, x1, x0
   8f184:	d344fc00 	lsr	x0, x0, #4
   8f188:	f90017e0 	str	x0, [sp, #40]
   8f18c:	f9401fe2 	ldr	x2, [sp, #56]
   8f190:	d343fc41 	lsr	x1, x2, #3
   8f194:	d29ef9e0 	mov	x0, #0xf7cf                	// #63439
   8f198:	f2bc6a60 	movk	x0, #0xe353, lsl #16
   8f19c:	f2d374a0 	movk	x0, #0x9ba5, lsl #32
   8f1a0:	f2e41880 	movk	x0, #0x20c4, lsl #48
   8f1a4:	9bc07c20 	umulh	x0, x1, x0
   8f1a8:	d344fc01 	lsr	x1, x0, #4
   8f1ac:	aa0103e0 	mov	x0, x1
   8f1b0:	d37be800 	lsl	x0, x0, #5
   8f1b4:	cb010000 	sub	x0, x0, x1
   8f1b8:	d37ef400 	lsl	x0, x0, #2
   8f1bc:	8b010000 	add	x0, x0, x1
   8f1c0:	d37df000 	lsl	x0, x0, #3
   8f1c4:	cb000041 	sub	x1, x2, x0
   8f1c8:	f9001be1 	str	x1, [sp, #48]
   8f1cc:	9100c3e1 	add	x1, sp, #0x30
   8f1d0:	9100a3e0 	add	x0, sp, #0x28
   8f1d4:	aa0103e2 	mov	x2, x1
   8f1d8:	aa0003e1 	mov	x1, x0
   8f1dc:	d0ffffc0 	adrp	x0, 89000 <_ZN8valkyrie6kernel8FunctionIFvvEE12CallableImplIZNS0_16__run_unit_testsEvEUlvE_E4callEv+0x5e8>
   8f1e0:	91078000 	add	x0, x0, #0x1e0
   8f1e4:	97fffb98 	bl	8e044 <_Z6printfIJyyEEvPKcDpOT_>
   8f1e8:	f9400be1 	ldr	x1, [sp, #16]
   8f1ec:	f9400fe0 	ldr	x0, [sp, #24]
   8f1f0:	94000019 	bl	8f254 <_Z6printfIJRmEEvPKcDpOT_>
   8f1f4:	d503201f 	nop
   8f1f8:	a8c57bfd 	ldp	x29, x30, [sp], #80
   8f1fc:	d65f03c0 	ret

Disassembly of section .text._ZN8valkyrie6kernel4swapIPNS0_18PageFrameAllocator5BlockEEEvRT_S6_:

000000000008f200 <_ZN8valkyrie6kernel4swapIPNS0_18PageFrameAllocator5BlockEEEvRT_S6_>:
   8f200:	a9bd7bfd 	stp	x29, x30, [sp, #-48]!
   8f204:	910003fd 	mov	x29, sp
   8f208:	f9000fe0 	str	x0, [sp, #24]
   8f20c:	f9000be1 	str	x1, [sp, #16]
   8f210:	f9400fe0 	ldr	x0, [sp, #24]
   8f214:	9400005c 	bl	8f384 <_ZN8valkyrie6kernel4moveIRPNS0_18PageFrameAllocator5BlockEEEONS0_16_RemoveReferenceIT_E4TypeEOS7_>
   8f218:	f9400000 	ldr	x0, [x0]
   8f21c:	f90017e0 	str	x0, [sp, #40]
   8f220:	f9400be0 	ldr	x0, [sp, #16]
   8f224:	94000058 	bl	8f384 <_ZN8valkyrie6kernel4moveIRPNS0_18PageFrameAllocator5BlockEEEONS0_16_RemoveReferenceIT_E4TypeEOS7_>
   8f228:	f9400001 	ldr	x1, [x0]
   8f22c:	f9400fe0 	ldr	x0, [sp, #24]
   8f230:	f9000001 	str	x1, [x0]
   8f234:	9100a3e0 	add	x0, sp, #0x28
   8f238:	94000053 	bl	8f384 <_ZN8valkyrie6kernel4moveIRPNS0_18PageFrameAllocator5BlockEEEONS0_16_RemoveReferenceIT_E4TypeEOS7_>
   8f23c:	f9400001 	ldr	x1, [x0]
   8f240:	f9400be0 	ldr	x0, [sp, #16]
   8f244:	f9000001 	str	x1, [x0]
   8f248:	d503201f 	nop
   8f24c:	a8c37bfd 	ldp	x29, x30, [sp], #48
   8f250:	d65f03c0 	ret

Disassembly of section .text._Z6printfIJRmEEvPKcDpOT_:

000000000008f254 <_Z6printfIJRmEEvPKcDpOT_>:
   8f254:	a9be7bfd 	stp	x29, x30, [sp, #-32]!
   8f258:	910003fd 	mov	x29, sp
   8f25c:	f9000fe0 	str	x0, [sp, #24]
   8f260:	f9000be1 	str	x1, [sp, #16]
   8f264:	f9400be0 	ldr	x0, [sp, #16]
   8f268:	f9400000 	ldr	x0, [x0]
   8f26c:	aa0003e1 	mov	x1, x0
   8f270:	f9400fe0 	ldr	x0, [sp, #24]
   8f274:	97ffd6a3 	bl	84d00 <_Z10tfp_printfPcz>
   8f278:	d503201f 	nop
   8f27c:	a8c27bfd 	ldp	x29, x30, [sp], #32
   8f280:	d65f03c0 	ret

Disassembly of section .text._Z6printfIJRxRPN8valkyrie6kernel18PageFrameAllocator5BlockEEEvPKcDpOT_:

000000000008f284 <_Z6printfIJRxRPN8valkyrie6kernel18PageFrameAllocator5BlockEEEvPKcDpOT_>:
   8f284:	a9bd7bfd 	stp	x29, x30, [sp, #-48]!
   8f288:	910003fd 	mov	x29, sp
   8f28c:	f90017e0 	str	x0, [sp, #40]
   8f290:	f90013e1 	str	x1, [sp, #32]
   8f294:	f9000fe2 	str	x2, [sp, #24]
   8f298:	f94013e0 	ldr	x0, [sp, #32]
   8f29c:	f9400001 	ldr	x1, [x0]
   8f2a0:	f9400fe0 	ldr	x0, [sp, #24]
   8f2a4:	f9400000 	ldr	x0, [x0]
   8f2a8:	aa0003e2 	mov	x2, x0
   8f2ac:	f94017e0 	ldr	x0, [sp, #40]
   8f2b0:	97ffd694 	bl	84d00 <_Z10tfp_printfPcz>
   8f2b4:	d503201f 	nop
   8f2b8:	a8c37bfd 	ldp	x29, x30, [sp], #48
   8f2bc:	d65f03c0 	ret

Disassembly of section .text._ZN8valkyrie6kernel6Kernel5panicIJRxEEEvPKcDpOT_:

000000000008f2c0 <_ZN8valkyrie6kernel6Kernel5panicIJRxEEEvPKcDpOT_>:
   8f2c0:	a9bd7bfd 	stp	x29, x30, [sp, #-48]!
   8f2c4:	910003fd 	mov	x29, sp
   8f2c8:	f9000fe0 	str	x0, [sp, #24]
   8f2cc:	f9000be1 	str	x1, [sp, #16]
   8f2d0:	910003e0 	mov	x0, sp
   8f2d4:	f90017e0 	str	x0, [sp, #40]
   8f2d8:	97ffc40b 	bl	80304 <_ZN8valkyrie6kernel7console11clear_colorEv>
   8f2dc:	d0ffffc0 	adrp	x0, 89000 <_ZN8valkyrie6kernel8FunctionIFvvEE12CallableImplIZNS0_16__run_unit_testsEvEUlvE_E4callEv+0x5e8>
   8f2e0:	9101e000 	add	x0, x0, #0x78
   8f2e4:	97fffb0d 	bl	8df18 <_Z6printkIJEEvPKcDpOT_>
   8f2e8:	52800021 	mov	w1, #0x1                   	// #1
   8f2ec:	52800020 	mov	w0, #0x1                   	// #1
   8f2f0:	97ffc3f7 	bl	802cc <_ZN8valkyrie6kernel7console9set_colorENS1_5ColorEb>
   8f2f4:	d0ffffc0 	adrp	x0, 89000 <_ZN8valkyrie6kernel8FunctionIFvvEE12CallableImplIZNS0_16__run_unit_testsEvEUlvE_E4callEv+0x5e8>
   8f2f8:	9107c000 	add	x0, x0, #0x1f0
   8f2fc:	97fffb4a 	bl	8e024 <_Z6printfIJEEvPKcDpOT_>
   8f300:	52800001 	mov	w1, #0x0                   	// #0
   8f304:	52800060 	mov	w0, #0x3                   	// #3
   8f308:	97ffc3f1 	bl	802cc <_ZN8valkyrie6kernel7console9set_colorENS1_5ColorEb>
   8f30c:	f9400be1 	ldr	x1, [sp, #16]
   8f310:	f9400fe0 	ldr	x0, [sp, #24]
   8f314:	94000021 	bl	8f398 <_Z6printfIJRxEEvPKcDpOT_>
   8f318:	97ffc3fb 	bl	80304 <_ZN8valkyrie6kernel7console11clear_colorEv>
   8f31c:	9100a3e0 	add	x0, sp, #0x28
   8f320:	aa0003e1 	mov	x1, x0
   8f324:	d0ffffc0 	adrp	x0, 89000 <_ZN8valkyrie6kernel8FunctionIFvvEE12CallableImplIZNS0_16__run_unit_testsEvEUlvE_E4callEv+0x5e8>
   8f328:	91080000 	add	x0, x0, #0x200
   8f32c:	97fffb55 	bl	8e080 <_Z6printkIJRyEEvPKcDpOT_>
   8f330:	97ffce2e 	bl	82be8 <_ZN8valkyrie6kernel13MemoryManager12get_instanceEv>
   8f334:	97ffce9c 	bl	82da4 <_ZNK8valkyrie6kernel13MemoryManager24dump_slob_allocator_infoEv>
   8f338:	d0ffffc0 	adrp	x0, 89000 <_ZN8valkyrie6kernel8FunctionIFvvEE12CallableImplIZNS0_16__run_unit_testsEvEUlvE_E4callEv+0x5e8>
   8f33c:	9101e000 	add	x0, x0, #0x78
   8f340:	97fffaf6 	bl	8df18 <_Z6printkIJEEvPKcDpOT_>
   8f344:	52800021 	mov	w1, #0x1                   	// #1
   8f348:	52800020 	mov	w0, #0x1                   	// #1
   8f34c:	97ffc3e0 	bl	802cc <_ZN8valkyrie6kernel7console9set_colorENS1_5ColorEb>
   8f350:	d0ffffc0 	adrp	x0, 89000 <_ZN8valkyrie6kernel8FunctionIFvvEE12CallableImplIZNS0_16__run_unit_testsEvEUlvE_E4callEv+0x5e8>
   8f354:	91084000 	add	x0, x0, #0x210
   8f358:	97fffb33 	bl	8e024 <_Z6printfIJEEvPKcDpOT_>
   8f35c:	52800001 	mov	w1, #0x0                   	// #0
   8f360:	52800060 	mov	w0, #0x3                   	// #3
   8f364:	97ffc3da 	bl	802cc <_ZN8valkyrie6kernel7console9set_colorENS1_5ColorEb>
   8f368:	f9400be1 	ldr	x1, [sp, #16]
   8f36c:	f9400fe0 	ldr	x0, [sp, #24]
   8f370:	9400000a 	bl	8f398 <_Z6printfIJRxEEvPKcDpOT_>
   8f374:	97ffc3e4 	bl	80304 <_ZN8valkyrie6kernel7console11clear_colorEv>
   8f378:	97ffcb03 	bl	81f84 <_ZN8valkyrie6kernel16ExceptionManager12get_instanceEv>
   8f37c:	97ffcb2d 	bl	82030 <_ZN8valkyrie6kernel16ExceptionManager7disableEv>
   8f380:	97ffc331 	bl	80044 <_halt>

Disassembly of section .text._ZN8valkyrie6kernel4moveIRPNS0_18PageFrameAllocator5BlockEEEONS0_16_RemoveReferenceIT_E4TypeEOS7_:

000000000008f384 <_ZN8valkyrie6kernel4moveIRPNS0_18PageFrameAllocator5BlockEEEONS0_16_RemoveReferenceIT_E4TypeEOS7_>:
   8f384:	d10043ff 	sub	sp, sp, #0x10
   8f388:	f90007e0 	str	x0, [sp, #8]
   8f38c:	f94007e0 	ldr	x0, [sp, #8]
   8f390:	910043ff 	add	sp, sp, #0x10
   8f394:	d65f03c0 	ret

Disassembly of section .text._Z6printfIJRxEEvPKcDpOT_:

000000000008f398 <_Z6printfIJRxEEvPKcDpOT_>:
   8f398:	a9be7bfd 	stp	x29, x30, [sp, #-32]!
   8f39c:	910003fd 	mov	x29, sp
   8f3a0:	f9000fe0 	str	x0, [sp, #24]
   8f3a4:	f9000be1 	str	x1, [sp, #16]
   8f3a8:	f9400be0 	ldr	x0, [sp, #16]
   8f3ac:	f9400000 	ldr	x0, [x0]
   8f3b0:	aa0003e1 	mov	x1, x0
   8f3b4:	f9400fe0 	ldr	x0, [sp, #24]
   8f3b8:	97ffd652 	bl	84d00 <_Z10tfp_printfPcz>
   8f3bc:	d503201f 	nop
   8f3c0:	a8c27bfd 	ldp	x29, x30, [sp], #32
   8f3c4:	d65f03c0 	ret

Disassembly of section .text._ZN8valkyrie6kernel9UniquePtrIA_cECI2NS1_IcEEEv:

000000000008f3c8 <_ZN8valkyrie6kernel9UniquePtrIA_cECI1NS1_IcEEEv>:
   8f3c8:	a9be7bfd 	stp	x29, x30, [sp, #-32]!
   8f3cc:	910003fd 	mov	x29, sp
   8f3d0:	f9000fe0 	str	x0, [sp, #24]
   8f3d4:	f9400fe0 	ldr	x0, [sp, #24]
   8f3d8:	9400006d 	bl	8f58c <_ZN8valkyrie6kernel9UniquePtrIcEC1Ev>
   8f3dc:	d503201f 	nop
   8f3e0:	a8c27bfd 	ldp	x29, x30, [sp], #32
   8f3e4:	d65f03c0 	ret

Disassembly of section .text._ZN8valkyrie6kernel6StringC2EPKc:

000000000008f3e8 <_ZN8valkyrie6kernel6StringC1EPKc>:
   8f3e8:	a9be7bfd 	stp	x29, x30, [sp, #-32]!
   8f3ec:	910003fd 	mov	x29, sp
   8f3f0:	f9000fe0 	str	x0, [sp, #24]
   8f3f4:	f9000be1 	str	x1, [sp, #16]
   8f3f8:	f9400be0 	ldr	x0, [sp, #16]
   8f3fc:	97ffc4fd 	bl	807f0 <strlen>
   8f400:	91000400 	add	x0, x0, #0x1
   8f404:	f9400fe1 	ldr	x1, [sp, #24]
   8f408:	aa0103e8 	mov	x8, x1
   8f40c:	94000085 	bl	8f620 <_ZN8valkyrie6kernel11make_uniqueIA_cEENS0_9_UniqueIfIT_E13_UnknownBoundEm>
   8f410:	f9400fe0 	ldr	x0, [sp, #24]
   8f414:	9400009b 	bl	8f680 <_ZNK8valkyrie6kernel9UniquePtrIcE3getEv>
   8f418:	f9400be1 	ldr	x1, [sp, #16]
   8f41c:	97ffc555 	bl	80970 <strcpy>
   8f420:	d503201f 	nop
   8f424:	a8c27bfd 	ldp	x29, x30, [sp], #32
   8f428:	d65f03c0 	ret

Disassembly of section .text._ZN8valkyrie6kernel6StringC2ERKS1_:

000000000008f42c <_ZN8valkyrie6kernel6StringC1ERKS1_>:
   8f42c:	a9be7bfd 	stp	x29, x30, [sp, #-32]!
   8f430:	910003fd 	mov	x29, sp
   8f434:	f9000fe0 	str	x0, [sp, #24]
   8f438:	f9000be1 	str	x1, [sp, #16]
   8f43c:	f9400fe0 	ldr	x0, [sp, #24]
   8f440:	97ffffe2 	bl	8f3c8 <_ZN8valkyrie6kernel9UniquePtrIA_cECI1NS1_IcEEEv>
   8f444:	f9400be1 	ldr	x1, [sp, #16]
   8f448:	f9400fe0 	ldr	x0, [sp, #24]
   8f44c:	94000004 	bl	8f45c <_ZN8valkyrie6kernel6StringaSERKS1_>
   8f450:	d503201f 	nop
   8f454:	a8c27bfd 	ldp	x29, x30, [sp], #32
   8f458:	d65f03c0 	ret

Disassembly of section .text._ZN8valkyrie6kernel6StringaSERKS1_:

000000000008f45c <_ZN8valkyrie6kernel6StringaSERKS1_>:
   8f45c:	a9bc7bfd 	stp	x29, x30, [sp, #-64]!
   8f460:	910003fd 	mov	x29, sp
   8f464:	f9000bf3 	str	x19, [sp, #16]
   8f468:	f90017e0 	str	x0, [sp, #40]
   8f46c:	f90013e1 	str	x1, [sp, #32]
   8f470:	f94013e0 	ldr	x0, [sp, #32]
   8f474:	9400001e 	bl	8f4ec <_ZNK8valkyrie6kernel6String4sizeEv>
   8f478:	91000400 	add	x0, x0, #0x1
   8f47c:	9100e3e1 	add	x1, sp, #0x38
   8f480:	aa0103e8 	mov	x8, x1
   8f484:	94000067 	bl	8f620 <_ZN8valkyrie6kernel11make_uniqueIA_cEENS0_9_UniqueIfIT_E13_UnknownBoundEm>
   8f488:	f94017e0 	ldr	x0, [sp, #40]
   8f48c:	9100e3e1 	add	x1, sp, #0x38
   8f490:	94000082 	bl	8f698 <_ZN8valkyrie6kernel9UniquePtrIA_cEaSEOS3_>
   8f494:	9100e3e0 	add	x0, sp, #0x38
   8f498:	9400004d 	bl	8f5cc <_ZN8valkyrie6kernel9UniquePtrIA_cED1Ev>
   8f49c:	f94017e0 	ldr	x0, [sp, #40]
   8f4a0:	94000078 	bl	8f680 <_ZNK8valkyrie6kernel9UniquePtrIcE3getEv>
   8f4a4:	aa0003f3 	mov	x19, x0
   8f4a8:	f94013e0 	ldr	x0, [sp, #32]
   8f4ac:	94000075 	bl	8f680 <_ZNK8valkyrie6kernel9UniquePtrIcE3getEv>
   8f4b0:	aa0003e1 	mov	x1, x0
   8f4b4:	aa1303e0 	mov	x0, x19
   8f4b8:	97ffc52e 	bl	80970 <strcpy>
   8f4bc:	f94017e0 	ldr	x0, [sp, #40]
   8f4c0:	f9400bf3 	ldr	x19, [sp, #16]
   8f4c4:	a8c47bfd 	ldp	x29, x30, [sp], #64
   8f4c8:	d65f03c0 	ret

Disassembly of section .text._ZN8valkyrie6kernel6StringD2Ev:

000000000008f4cc <_ZN8valkyrie6kernel6StringD1Ev>:
   8f4cc:	a9be7bfd 	stp	x29, x30, [sp, #-32]!
   8f4d0:	910003fd 	mov	x29, sp
   8f4d4:	f9000fe0 	str	x0, [sp, #24]
   8f4d8:	f9400fe0 	ldr	x0, [sp, #24]
   8f4dc:	9400003c 	bl	8f5cc <_ZN8valkyrie6kernel9UniquePtrIA_cED1Ev>
   8f4e0:	d503201f 	nop
   8f4e4:	a8c27bfd 	ldp	x29, x30, [sp], #32
   8f4e8:	d65f03c0 	ret

Disassembly of section .text._ZNK8valkyrie6kernel6String4sizeEv:

000000000008f4ec <_ZNK8valkyrie6kernel6String4sizeEv>:
   8f4ec:	a9be7bfd 	stp	x29, x30, [sp, #-32]!
   8f4f0:	910003fd 	mov	x29, sp
   8f4f4:	f9000fe0 	str	x0, [sp, #24]
   8f4f8:	f9400fe0 	ldr	x0, [sp, #24]
   8f4fc:	94000073 	bl	8f6c8 <_ZNK8valkyrie6kernel9UniquePtrIcEcvbEv>
   8f500:	12001c00 	and	w0, w0, #0xff
   8f504:	7100001f 	cmp	w0, #0x0
   8f508:	540000a0 	b.eq	8f51c <_ZNK8valkyrie6kernel6String4sizeEv+0x30>  // b.none
   8f50c:	f9400fe0 	ldr	x0, [sp, #24]
   8f510:	9400005c 	bl	8f680 <_ZNK8valkyrie6kernel9UniquePtrIcE3getEv>
   8f514:	97ffc4b7 	bl	807f0 <strlen>
   8f518:	14000002 	b	8f520 <_ZNK8valkyrie6kernel6String4sizeEv+0x34>
   8f51c:	d2800000 	mov	x0, #0x0                   	// #0
   8f520:	a8c27bfd 	ldp	x29, x30, [sp], #32
   8f524:	d65f03c0 	ret

Disassembly of section .text._ZNK8valkyrie6kernel6String5c_strEv:

000000000008f528 <_ZNK8valkyrie6kernel6String5c_strEv>:
   8f528:	a9be7bfd 	stp	x29, x30, [sp, #-32]!
   8f52c:	910003fd 	mov	x29, sp
   8f530:	f9000fe0 	str	x0, [sp, #24]
   8f534:	f9400fe0 	ldr	x0, [sp, #24]
   8f538:	94000052 	bl	8f680 <_ZNK8valkyrie6kernel9UniquePtrIcE3getEv>
   8f53c:	a8c27bfd 	ldp	x29, x30, [sp], #32
   8f540:	d65f03c0 	ret

Disassembly of section .text._ZN8valkyrie6kernel5resetEi:

000000000008f544 <_ZN8valkyrie6kernel5resetEi>:
   8f544:	a9be7bfd 	stp	x29, x30, [sp, #-32]!
   8f548:	910003fd 	mov	x29, sp
   8f54c:	b9001fe0 	str	w0, [sp, #28]
   8f550:	52800401 	mov	w1, #0x20                  	// #32
   8f554:	72ab4001 	movk	w1, #0x5a00, lsl #16
   8f558:	d2800380 	mov	x0, #0x1c                  	// #28
   8f55c:	f2a7e200 	movk	x0, #0x3f10, lsl #16
   8f560:	94000064 	bl	8f6f0 <_ZN8valkyrie6kernel2io3putIiEEvmT_>
   8f564:	b9401fe1 	ldr	w1, [sp, #28]
   8f568:	52ab4000 	mov	w0, #0x5a000000            	// #1509949440
   8f56c:	2a000020 	orr	w0, w1, w0
   8f570:	2a0003e1 	mov	w1, w0
   8f574:	d2800480 	mov	x0, #0x24                  	// #36
   8f578:	f2a7e200 	movk	x0, #0x3f10, lsl #16
   8f57c:	9400005d 	bl	8f6f0 <_ZN8valkyrie6kernel2io3putIiEEvmT_>
   8f580:	d503201f 	nop
   8f584:	a8c27bfd 	ldp	x29, x30, [sp], #32
   8f588:	d65f03c0 	ret

Disassembly of section .text._ZN8valkyrie6kernel9UniquePtrIcEC2Ev:

000000000008f58c <_ZN8valkyrie6kernel9UniquePtrIcEC1Ev>:
   8f58c:	d10043ff 	sub	sp, sp, #0x10
   8f590:	f90007e0 	str	x0, [sp, #8]
   8f594:	f94007e0 	ldr	x0, [sp, #8]
   8f598:	f900001f 	str	xzr, [x0]
   8f59c:	d503201f 	nop
   8f5a0:	910043ff 	add	sp, sp, #0x10
   8f5a4:	d65f03c0 	ret

Disassembly of section .text._ZN8valkyrie6kernel9UniquePtrIcED2Ev:

000000000008f5a8 <_ZN8valkyrie6kernel9UniquePtrIcED1Ev>:
   8f5a8:	a9be7bfd 	stp	x29, x30, [sp, #-32]!
   8f5ac:	910003fd 	mov	x29, sp
   8f5b0:	f9000fe0 	str	x0, [sp, #24]
   8f5b4:	d2800001 	mov	x1, #0x0                   	// #0
   8f5b8:	f9400fe0 	ldr	x0, [sp, #24]
   8f5bc:	94000099 	bl	8f820 <_ZN8valkyrie6kernel9UniquePtrIcE5resetEPc>
   8f5c0:	d503201f 	nop
   8f5c4:	a8c27bfd 	ldp	x29, x30, [sp], #32
   8f5c8:	d65f03c0 	ret

Disassembly of section .text._ZN8valkyrie6kernel9UniquePtrIA_cED2Ev:

000000000008f5cc <_ZN8valkyrie6kernel9UniquePtrIA_cED1Ev>:
   8f5cc:	a9be7bfd 	stp	x29, x30, [sp, #-32]!
   8f5d0:	910003fd 	mov	x29, sp
   8f5d4:	f9000fe0 	str	x0, [sp, #24]
   8f5d8:	d2800001 	mov	x1, #0x0                   	// #0
   8f5dc:	f9400fe0 	ldr	x0, [sp, #24]
   8f5e0:	940000a6 	bl	8f878 <_ZN8valkyrie6kernel9UniquePtrIA_cE5resetEPc>
   8f5e4:	f9400fe0 	ldr	x0, [sp, #24]
   8f5e8:	97fffff0 	bl	8f5a8 <_ZN8valkyrie6kernel9UniquePtrIcED1Ev>
   8f5ec:	d503201f 	nop
   8f5f0:	a8c27bfd 	ldp	x29, x30, [sp], #32
   8f5f4:	d65f03c0 	ret

Disassembly of section .text._ZN8valkyrie6kernel9UniquePtrIA_cECI2NS1_IcEEEPc:

000000000008f5f8 <_ZN8valkyrie6kernel9UniquePtrIA_cECI1NS1_IcEEEPc>:
   8f5f8:	a9be7bfd 	stp	x29, x30, [sp, #-32]!
   8f5fc:	910003fd 	mov	x29, sp
   8f600:	f9000fe0 	str	x0, [sp, #24]
   8f604:	f9000be1 	str	x1, [sp, #16]
   8f608:	f9400fe0 	ldr	x0, [sp, #24]
   8f60c:	f9400be1 	ldr	x1, [sp, #16]
   8f610:	940000b1 	bl	8f8d4 <_ZN8valkyrie6kernel9UniquePtrIcEC1EPc>
   8f614:	d503201f 	nop
   8f618:	a8c27bfd 	ldp	x29, x30, [sp], #32
   8f61c:	d65f03c0 	ret

Disassembly of section .text._ZN8valkyrie6kernel11make_uniqueIA_cEENS0_9_UniqueIfIT_E13_UnknownBoundEm:

000000000008f620 <_ZN8valkyrie6kernel11make_uniqueIA_cEENS0_9_UniqueIfIT_E13_UnknownBoundEm>:
   8f620:	a9bd7bfd 	stp	x29, x30, [sp, #-48]!
   8f624:	910003fd 	mov	x29, sp
   8f628:	a90153f3 	stp	x19, x20, [sp, #16]
   8f62c:	aa0803f4 	mov	x20, x8
   8f630:	f90017e0 	str	x0, [sp, #40]
   8f634:	f94017f3 	ldr	x19, [sp, #40]
   8f638:	aa1303e0 	mov	x0, x19
   8f63c:	97ffcdea 	bl	82de4 <_Znam>
   8f640:	aa0003e2 	mov	x2, x0
   8f644:	aa0203e1 	mov	x1, x2
   8f648:	d1000660 	sub	x0, x19, #0x1
   8f64c:	f100001f 	cmp	x0, #0x0
   8f650:	540000ab 	b.lt	8f664 <_ZN8valkyrie6kernel11make_uniqueIA_cEENS0_9_UniqueIfIT_E13_UnknownBoundEm+0x44>  // b.tstop
   8f654:	3900003f 	strb	wzr, [x1]
   8f658:	91000421 	add	x1, x1, #0x1
   8f65c:	d1000400 	sub	x0, x0, #0x1
   8f660:	17fffffb 	b	8f64c <_ZN8valkyrie6kernel11make_uniqueIA_cEENS0_9_UniqueIfIT_E13_UnknownBoundEm+0x2c>
   8f664:	aa0203e1 	mov	x1, x2
   8f668:	aa1403e0 	mov	x0, x20
   8f66c:	97ffffe3 	bl	8f5f8 <_ZN8valkyrie6kernel9UniquePtrIA_cECI1NS1_IcEEEPc>
   8f670:	aa1403e0 	mov	x0, x20
   8f674:	a94153f3 	ldp	x19, x20, [sp, #16]
   8f678:	a8c37bfd 	ldp	x29, x30, [sp], #48
   8f67c:	d65f03c0 	ret

Disassembly of section .text._ZNK8valkyrie6kernel9UniquePtrIcE3getEv:

000000000008f680 <_ZNK8valkyrie6kernel9UniquePtrIcE3getEv>:
   8f680:	d10043ff 	sub	sp, sp, #0x10
   8f684:	f90007e0 	str	x0, [sp, #8]
   8f688:	f94007e0 	ldr	x0, [sp, #8]
   8f68c:	f9400000 	ldr	x0, [x0]
   8f690:	910043ff 	add	sp, sp, #0x10
   8f694:	d65f03c0 	ret

Disassembly of section .text._ZN8valkyrie6kernel9UniquePtrIA_cEaSEOS3_:

000000000008f698 <_ZN8valkyrie6kernel9UniquePtrIA_cEaSEOS3_>:
   8f698:	a9be7bfd 	stp	x29, x30, [sp, #-32]!
   8f69c:	910003fd 	mov	x29, sp
   8f6a0:	f9000fe0 	str	x0, [sp, #24]
   8f6a4:	f9000be1 	str	x1, [sp, #16]
   8f6a8:	f9400be0 	ldr	x0, [sp, #16]
   8f6ac:	94000093 	bl	8f8f8 <_ZN8valkyrie6kernel9UniquePtrIcE7releaseEv>
   8f6b0:	aa0003e1 	mov	x1, x0
   8f6b4:	f9400fe0 	ldr	x0, [sp, #24]
   8f6b8:	94000070 	bl	8f878 <_ZN8valkyrie6kernel9UniquePtrIA_cE5resetEPc>
   8f6bc:	f9400fe0 	ldr	x0, [sp, #24]
   8f6c0:	a8c27bfd 	ldp	x29, x30, [sp], #32
   8f6c4:	d65f03c0 	ret

Disassembly of section .text._ZNK8valkyrie6kernel9UniquePtrIcEcvbEv:

000000000008f6c8 <_ZNK8valkyrie6kernel9UniquePtrIcEcvbEv>:
   8f6c8:	a9be7bfd 	stp	x29, x30, [sp, #-32]!
   8f6cc:	910003fd 	mov	x29, sp
   8f6d0:	f9000fe0 	str	x0, [sp, #24]
   8f6d4:	f9400fe0 	ldr	x0, [sp, #24]
   8f6d8:	97ffffea 	bl	8f680 <_ZNK8valkyrie6kernel9UniquePtrIcE3getEv>
   8f6dc:	f100001f 	cmp	x0, #0x0
   8f6e0:	1a9f07e0 	cset	w0, ne  // ne = any
   8f6e4:	12001c00 	and	w0, w0, #0xff
   8f6e8:	a8c27bfd 	ldp	x29, x30, [sp], #32
   8f6ec:	d65f03c0 	ret

Disassembly of section .text._ZN8valkyrie6kernel2io3putIiEEvmT_:

000000000008f6f0 <_ZN8valkyrie6kernel2io3putIiEEvmT_>:
   8f6f0:	d10043ff 	sub	sp, sp, #0x10
   8f6f4:	f90007e0 	str	x0, [sp, #8]
   8f6f8:	b90007e1 	str	w1, [sp, #4]
   8f6fc:	f94007e0 	ldr	x0, [sp, #8]
   8f700:	b94007e1 	ldr	w1, [sp, #4]
   8f704:	b9000001 	str	w1, [x0]
   8f708:	d503201f 	nop
   8f70c:	910043ff 	add	sp, sp, #0x10
   8f710:	d65f03c0 	ret

Disassembly of section .text._Z6printkIJPKcEEvS1_DpOT_:

000000000008f714 <_Z6printkIJPKcEEvS1_DpOT_>:
   8f714:	a9bb7bfd 	stp	x29, x30, [sp, #-80]!
   8f718:	910003fd 	mov	x29, sp
   8f71c:	f9000fe0 	str	x0, [sp, #24]
   8f720:	f9000be1 	str	x1, [sp, #16]
   8f724:	d53be020 	mrs	x0, cntpct_el0
   8f728:	f90027e0 	str	x0, [sp, #72]
   8f72c:	d53be000 	mrs	x0, cntfrq_el0
   8f730:	f90023e0 	str	x0, [sp, #64]
   8f734:	f94027e1 	ldr	x1, [sp, #72]
   8f738:	aa0103e0 	mov	x0, x1
   8f73c:	d37be800 	lsl	x0, x0, #5
   8f740:	cb010000 	sub	x0, x0, x1
   8f744:	d37ef400 	lsl	x0, x0, #2
   8f748:	8b010000 	add	x0, x0, x1
   8f74c:	d37df000 	lsl	x0, x0, #3
   8f750:	aa0003e1 	mov	x1, x0
   8f754:	f94023e0 	ldr	x0, [sp, #64]
   8f758:	9ac00820 	udiv	x0, x1, x0
   8f75c:	f9001fe0 	str	x0, [sp, #56]
   8f760:	f9401fe0 	ldr	x0, [sp, #56]
   8f764:	d343fc01 	lsr	x1, x0, #3
   8f768:	d29ef9e0 	mov	x0, #0xf7cf                	// #63439
   8f76c:	f2bc6a60 	movk	x0, #0xe353, lsl #16
   8f770:	f2d374a0 	movk	x0, #0x9ba5, lsl #32
   8f774:	f2e41880 	movk	x0, #0x20c4, lsl #48
   8f778:	9bc07c20 	umulh	x0, x1, x0
   8f77c:	d344fc00 	lsr	x0, x0, #4
   8f780:	f90017e0 	str	x0, [sp, #40]
   8f784:	f9401fe2 	ldr	x2, [sp, #56]
   8f788:	d343fc41 	lsr	x1, x2, #3
   8f78c:	d29ef9e0 	mov	x0, #0xf7cf                	// #63439
   8f790:	f2bc6a60 	movk	x0, #0xe353, lsl #16
   8f794:	f2d374a0 	movk	x0, #0x9ba5, lsl #32
   8f798:	f2e41880 	movk	x0, #0x20c4, lsl #48
   8f79c:	9bc07c20 	umulh	x0, x1, x0
   8f7a0:	d344fc01 	lsr	x1, x0, #4
   8f7a4:	aa0103e0 	mov	x0, x1
   8f7a8:	d37be800 	lsl	x0, x0, #5
   8f7ac:	cb010000 	sub	x0, x0, x1
   8f7b0:	d37ef400 	lsl	x0, x0, #2
   8f7b4:	8b010000 	add	x0, x0, x1
   8f7b8:	d37df000 	lsl	x0, x0, #3
   8f7bc:	cb000041 	sub	x1, x2, x0
   8f7c0:	f9001be1 	str	x1, [sp, #48]
   8f7c4:	9100c3e1 	add	x1, sp, #0x30
   8f7c8:	9100a3e0 	add	x0, sp, #0x28
   8f7cc:	aa0103e2 	mov	x2, x1
   8f7d0:	aa0003e1 	mov	x1, x0
   8f7d4:	d0ffffc0 	adrp	x0, 89000 <_ZN8valkyrie6kernel8FunctionIFvvEE12CallableImplIZNS0_16__run_unit_testsEvEUlvE_E4callEv+0x5e8>
   8f7d8:	91152000 	add	x0, x0, #0x548
   8f7dc:	97fffa1a 	bl	8e044 <_Z6printfIJyyEEvPKcDpOT_>
   8f7e0:	f9400be1 	ldr	x1, [sp, #16]
   8f7e4:	f9400fe0 	ldr	x0, [sp, #24]
   8f7e8:	94000084 	bl	8f9f8 <_Z6printfIJRPKcEEvS1_DpOT_>
   8f7ec:	d503201f 	nop
   8f7f0:	a8c57bfd 	ldp	x29, x30, [sp], #80
   8f7f4:	d65f03c0 	ret

Disassembly of section .text._Z6printfIJRA256_cEEvPKcDpOT_:

000000000008f7f8 <_Z6printfIJRA256_cEEvPKcDpOT_>:
   8f7f8:	a9be7bfd 	stp	x29, x30, [sp, #-32]!
   8f7fc:	910003fd 	mov	x29, sp
   8f800:	f9000fe0 	str	x0, [sp, #24]
   8f804:	f9000be1 	str	x1, [sp, #16]
   8f808:	f9400be1 	ldr	x1, [sp, #16]
   8f80c:	f9400fe0 	ldr	x0, [sp, #24]
   8f810:	97ffd53c 	bl	84d00 <_Z10tfp_printfPcz>
   8f814:	d503201f 	nop
   8f818:	a8c27bfd 	ldp	x29, x30, [sp], #32
   8f81c:	d65f03c0 	ret

Disassembly of section .text._ZN8valkyrie6kernel9UniquePtrIcE5resetEPc:

000000000008f820 <_ZN8valkyrie6kernel9UniquePtrIcE5resetEPc>:
   8f820:	a9be7bfd 	stp	x29, x30, [sp, #-32]!
   8f824:	910003fd 	mov	x29, sp
   8f828:	f9000fe0 	str	x0, [sp, #24]
   8f82c:	f9000be1 	str	x1, [sp, #16]
   8f830:	f9400fe0 	ldr	x0, [sp, #24]
   8f834:	f9400000 	ldr	x0, [x0]
   8f838:	f9400be1 	ldr	x1, [sp, #16]
   8f83c:	eb00003f 	cmp	x1, x0
   8f840:	54000160 	b.eq	8f86c <_ZN8valkyrie6kernel9UniquePtrIcE5resetEPc+0x4c>  // b.none
   8f844:	f9400fe0 	ldr	x0, [sp, #24]
   8f848:	f9400000 	ldr	x0, [x0]
   8f84c:	f100001f 	cmp	x0, #0x0
   8f850:	54000060 	b.eq	8f85c <_ZN8valkyrie6kernel9UniquePtrIcE5resetEPc+0x3c>  // b.none
   8f854:	d2800021 	mov	x1, #0x1                   	// #1
   8f858:	97ffcd7a 	bl	82e40 <_ZdlPvm>
   8f85c:	f9400fe0 	ldr	x0, [sp, #24]
   8f860:	f9400be1 	ldr	x1, [sp, #16]
   8f864:	f9000001 	str	x1, [x0]
   8f868:	14000002 	b	8f870 <_ZN8valkyrie6kernel9UniquePtrIcE5resetEPc+0x50>
   8f86c:	d503201f 	nop
   8f870:	a8c27bfd 	ldp	x29, x30, [sp], #32
   8f874:	d65f03c0 	ret

Disassembly of section .text._ZN8valkyrie6kernel9UniquePtrIA_cE5resetEPc:

000000000008f878 <_ZN8valkyrie6kernel9UniquePtrIA_cE5resetEPc>:
   8f878:	a9be7bfd 	stp	x29, x30, [sp, #-32]!
   8f87c:	910003fd 	mov	x29, sp
   8f880:	f9000fe0 	str	x0, [sp, #24]
   8f884:	f9000be1 	str	x1, [sp, #16]
   8f888:	f9400fe0 	ldr	x0, [sp, #24]
   8f88c:	f9400000 	ldr	x0, [x0]
   8f890:	f9400be1 	ldr	x1, [sp, #16]
   8f894:	eb00003f 	cmp	x1, x0
   8f898:	54000180 	b.eq	8f8c8 <_ZN8valkyrie6kernel9UniquePtrIA_cE5resetEPc+0x50>  // b.none
   8f89c:	f9400fe0 	ldr	x0, [sp, #24]
   8f8a0:	f9400000 	ldr	x0, [x0]
   8f8a4:	f100001f 	cmp	x0, #0x0
   8f8a8:	54000080 	b.eq	8f8b8 <_ZN8valkyrie6kernel9UniquePtrIA_cE5resetEPc+0x40>  // b.none
   8f8ac:	f9400fe0 	ldr	x0, [sp, #24]
   8f8b0:	f9400000 	ldr	x0, [x0]
   8f8b4:	97ffcd5b 	bl	82e20 <_ZdaPv>
   8f8b8:	f9400fe0 	ldr	x0, [sp, #24]
   8f8bc:	f9400be1 	ldr	x1, [sp, #16]
   8f8c0:	f9000001 	str	x1, [x0]
   8f8c4:	14000002 	b	8f8cc <_ZN8valkyrie6kernel9UniquePtrIA_cE5resetEPc+0x54>
   8f8c8:	d503201f 	nop
   8f8cc:	a8c27bfd 	ldp	x29, x30, [sp], #32
   8f8d0:	d65f03c0 	ret

Disassembly of section .text._ZN8valkyrie6kernel9UniquePtrIcEC2EPc:

000000000008f8d4 <_ZN8valkyrie6kernel9UniquePtrIcEC1EPc>:
   8f8d4:	d10043ff 	sub	sp, sp, #0x10
   8f8d8:	f90007e0 	str	x0, [sp, #8]
   8f8dc:	f90003e1 	str	x1, [sp]
   8f8e0:	f94007e0 	ldr	x0, [sp, #8]
   8f8e4:	f94003e1 	ldr	x1, [sp]
   8f8e8:	f9000001 	str	x1, [x0]
   8f8ec:	d503201f 	nop
   8f8f0:	910043ff 	add	sp, sp, #0x10
   8f8f4:	d65f03c0 	ret

Disassembly of section .text._ZN8valkyrie6kernel9UniquePtrIcE7releaseEv:

000000000008f8f8 <_ZN8valkyrie6kernel9UniquePtrIcE7releaseEv>:
   8f8f8:	d10083ff 	sub	sp, sp, #0x20
   8f8fc:	f90007e0 	str	x0, [sp, #8]
   8f900:	f94007e0 	ldr	x0, [sp, #8]
   8f904:	f9400000 	ldr	x0, [x0]
   8f908:	f9000fe0 	str	x0, [sp, #24]
   8f90c:	f94007e0 	ldr	x0, [sp, #8]
   8f910:	f900001f 	str	xzr, [x0]
   8f914:	f9400fe0 	ldr	x0, [sp, #24]
   8f918:	910083ff 	add	sp, sp, #0x20
   8f91c:	d65f03c0 	ret

Disassembly of section .text._ZN8valkyrie6kernel9SharedPtrINS0_8FunctionIFvvEE13CallableIfaceEEC2Ev:

000000000008f920 <_ZN8valkyrie6kernel9SharedPtrINS0_8FunctionIFvvEE13CallableIfaceEEC1Ev>:
   8f920:	d10043ff 	sub	sp, sp, #0x10
   8f924:	f90007e0 	str	x0, [sp, #8]
   8f928:	f94007e0 	ldr	x0, [sp, #8]
   8f92c:	f900001f 	str	xzr, [x0]
   8f930:	f94007e0 	ldr	x0, [sp, #8]
   8f934:	f900041f 	str	xzr, [x0, #8]
   8f938:	d503201f 	nop
   8f93c:	910043ff 	add	sp, sp, #0x10
   8f940:	d65f03c0 	ret

Disassembly of section .text._ZN8valkyrie6kernel8FunctionIFvvEE13CallableIfaceD2Ev:

000000000008f944 <_ZN8valkyrie6kernel8FunctionIFvvEE13CallableIfaceD1Ev>:
   8f944:	d10043ff 	sub	sp, sp, #0x10
   8f948:	f90007e0 	str	x0, [sp, #8]
   8f94c:	90000020 	adrp	x0, 93000 <_ZTVN8valkyrie6kernel8FunctionIFbRNS0_9UniquePtrINS0_4TaskEEEEE12CallableImplIZNS0_13TaskScheduler11remove_taskERKS3_EUlRT_E_EE+0x18>
   8f950:	91012001 	add	x1, x0, #0x48
   8f954:	f94007e0 	ldr	x0, [sp, #8]
   8f958:	f9000001 	str	x1, [x0]
   8f95c:	d503201f 	nop
   8f960:	910043ff 	add	sp, sp, #0x10
   8f964:	d65f03c0 	ret

Disassembly of section .text._ZN8valkyrie6kernel8FunctionIFvvEE13CallableIfaceD0Ev:

000000000008f968 <_ZN8valkyrie6kernel8FunctionIFvvEE13CallableIfaceD0Ev>:
   8f968:	a9be7bfd 	stp	x29, x30, [sp, #-32]!
   8f96c:	910003fd 	mov	x29, sp
   8f970:	f9000fe0 	str	x0, [sp, #24]
   8f974:	f9400fe0 	ldr	x0, [sp, #24]
   8f978:	97fffff3 	bl	8f944 <_ZN8valkyrie6kernel8FunctionIFvvEE13CallableIfaceD1Ev>
   8f97c:	d2800101 	mov	x1, #0x8                   	// #8
   8f980:	f9400fe0 	ldr	x0, [sp, #24]
   8f984:	97ffcd2f 	bl	82e40 <_ZdlPvm>
   8f988:	a8c27bfd 	ldp	x29, x30, [sp], #32
   8f98c:	d65f03c0 	ret

Disassembly of section .text._ZN8valkyrie6kernel9SharedPtrINS0_8FunctionIFvvEE13CallableIfaceEEaSEOS6_:

000000000008f990 <_ZN8valkyrie6kernel9SharedPtrINS0_8FunctionIFvvEE13CallableIfaceEEaSEOS6_>:
   8f990:	a9be7bfd 	stp	x29, x30, [sp, #-32]!
   8f994:	910003fd 	mov	x29, sp
   8f998:	f9000fe0 	str	x0, [sp, #24]
   8f99c:	f9000be1 	str	x1, [sp, #16]
   8f9a0:	f9400fe0 	ldr	x0, [sp, #24]
   8f9a4:	97fffd35 	bl	8ee78 <_ZNK8valkyrie6kernel9SharedPtrINS0_8FunctionIFvvEE13CallableIfaceEE8is_validEv>
   8f9a8:	12001c00 	and	w0, w0, #0xff
   8f9ac:	7100001f 	cmp	w0, #0x0
   8f9b0:	54000060 	b.eq	8f9bc <_ZN8valkyrie6kernel9SharedPtrINS0_8FunctionIFvvEE13CallableIfaceEEaSEOS6_+0x2c>  // b.none
   8f9b4:	f9400fe0 	ldr	x0, [sp, #24]
   8f9b8:	97fffc22 	bl	8ea40 <_ZN8valkyrie6kernel9SharedPtrINS0_8FunctionIFvvEE13CallableIfaceEE13dec_use_countEv>
   8f9bc:	f9400be0 	ldr	x0, [sp, #16]
   8f9c0:	f9400001 	ldr	x1, [x0]
   8f9c4:	f9400fe0 	ldr	x0, [sp, #24]
   8f9c8:	f9000001 	str	x1, [x0]
   8f9cc:	f9400be0 	ldr	x0, [sp, #16]
   8f9d0:	f9400401 	ldr	x1, [x0, #8]
   8f9d4:	f9400fe0 	ldr	x0, [sp, #24]
   8f9d8:	f9000401 	str	x1, [x0, #8]
   8f9dc:	f9400be0 	ldr	x0, [sp, #16]
   8f9e0:	f900001f 	str	xzr, [x0]
   8f9e4:	f9400be0 	ldr	x0, [sp, #16]
   8f9e8:	f900041f 	str	xzr, [x0, #8]
   8f9ec:	f9400fe0 	ldr	x0, [sp, #24]
   8f9f0:	a8c27bfd 	ldp	x29, x30, [sp], #32
   8f9f4:	d65f03c0 	ret

Disassembly of section .text._Z6printfIJRPKcEEvS1_DpOT_:

000000000008f9f8 <_Z6printfIJRPKcEEvS1_DpOT_>:
   8f9f8:	a9be7bfd 	stp	x29, x30, [sp, #-32]!
   8f9fc:	910003fd 	mov	x29, sp
   8fa00:	f9000fe0 	str	x0, [sp, #24]
   8fa04:	f9000be1 	str	x1, [sp, #16]
   8fa08:	f9400be0 	ldr	x0, [sp, #16]
   8fa0c:	f9400000 	ldr	x0, [x0]
   8fa10:	aa0003e1 	mov	x1, x0
   8fa14:	f9400fe0 	ldr	x0, [sp, #24]
   8fa18:	97ffd4ba 	bl	84d00 <_Z10tfp_printfPcz>
   8fa1c:	d503201f 	nop
   8fa20:	a8c27bfd 	ldp	x29, x30, [sp], #32
   8fa24:	d65f03c0 	ret

Disassembly of section .text._ZN8valkyrie6kernel9SharedPtrINS0_8FunctionIFvvEE13CallableIfaceEE13inc_use_countEv:

000000000008fa28 <_ZN8valkyrie6kernel9SharedPtrINS0_8FunctionIFvvEE13CallableIfaceEE13inc_use_countEv>:
   8fa28:	a9be7bfd 	stp	x29, x30, [sp, #-32]!
   8fa2c:	910003fd 	mov	x29, sp
   8fa30:	f9000fe0 	str	x0, [sp, #24]
   8fa34:	f9400fe0 	ldr	x0, [sp, #24]
   8fa38:	97fffd10 	bl	8ee78 <_ZNK8valkyrie6kernel9SharedPtrINS0_8FunctionIFvvEE13CallableIfaceEE8is_validEv>
   8fa3c:	12001c00 	and	w0, w0, #0xff
   8fa40:	7100001f 	cmp	w0, #0x0
   8fa44:	540000c0 	b.eq	8fa5c <_ZN8valkyrie6kernel9SharedPtrINS0_8FunctionIFvvEE13CallableIfaceEE13inc_use_countEv+0x34>  // b.none
   8fa48:	f9400fe0 	ldr	x0, [sp, #24]
   8fa4c:	f9400000 	ldr	x0, [x0]
   8fa50:	b9400801 	ldr	w1, [x0, #8]
   8fa54:	11000421 	add	w1, w1, #0x1
   8fa58:	b9000801 	str	w1, [x0, #8]
   8fa5c:	d503201f 	nop
   8fa60:	a8c27bfd 	ldp	x29, x30, [sp], #32
   8fa64:	d65f03c0 	ret

Disassembly of section .text._ZN8valkyrie6kernel8FunctionIFvvEE13CallableIfaceC2Ev:

000000000008fa68 <_ZN8valkyrie6kernel8FunctionIFvvEE13CallableIfaceC1Ev>:
   8fa68:	d10043ff 	sub	sp, sp, #0x10
   8fa6c:	f90007e0 	str	x0, [sp, #8]
   8fa70:	90000020 	adrp	x0, 93000 <_ZTVN8valkyrie6kernel8FunctionIFbRNS0_9UniquePtrINS0_4TaskEEEEE12CallableImplIZNS0_13TaskScheduler11remove_taskERKS3_EUlRT_E_EE+0x18>
   8fa74:	91012001 	add	x1, x0, #0x48
   8fa78:	f94007e0 	ldr	x0, [sp, #8]
   8fa7c:	f9000001 	str	x1, [x0]
   8fa80:	d503201f 	nop
   8fa84:	910043ff 	add	sp, sp, #0x10
   8fa88:	d65f03c0 	ret

Disassembly of section .text._Z6printfIJRimEEvPKcDpOT_:

000000000008fa8c <_Z6printfIJRimEEvPKcDpOT_>:
   8fa8c:	a9bd7bfd 	stp	x29, x30, [sp, #-48]!
   8fa90:	910003fd 	mov	x29, sp
   8fa94:	f90017e0 	str	x0, [sp, #40]
   8fa98:	f90013e1 	str	x1, [sp, #32]
   8fa9c:	f9000fe2 	str	x2, [sp, #24]
   8faa0:	f94013e0 	ldr	x0, [sp, #32]
   8faa4:	b9400001 	ldr	w1, [x0]
   8faa8:	f9400fe0 	ldr	x0, [sp, #24]
   8faac:	f9400000 	ldr	x0, [x0]
   8fab0:	aa0003e2 	mov	x2, x0
   8fab4:	f94017e0 	ldr	x0, [sp, #40]
   8fab8:	97ffd492 	bl	84d00 <_Z10tfp_printfPcz>
   8fabc:	d503201f 	nop
   8fac0:	a8c37bfd 	ldp	x29, x30, [sp], #48
   8fac4:	d65f03c0 	ret

Disassembly of section .text._Z6printfIJmRPN8valkyrie6kernel13SlobAllocator4SlobEEEvPKcDpOT_:

000000000008fac8 <_Z6printfIJmRPN8valkyrie6kernel13SlobAllocator4SlobEEEvPKcDpOT_>:
   8fac8:	a9bd7bfd 	stp	x29, x30, [sp, #-48]!
   8facc:	910003fd 	mov	x29, sp
   8fad0:	f90017e0 	str	x0, [sp, #40]
   8fad4:	f90013e1 	str	x1, [sp, #32]
   8fad8:	f9000fe2 	str	x2, [sp, #24]
   8fadc:	f94013e0 	ldr	x0, [sp, #32]
   8fae0:	f9400001 	ldr	x1, [x0]
   8fae4:	f9400fe0 	ldr	x0, [sp, #24]
   8fae8:	f9400000 	ldr	x0, [x0]
   8faec:	aa0003e2 	mov	x2, x0
   8faf0:	f94017e0 	ldr	x0, [sp, #40]
   8faf4:	97ffd483 	bl	84d00 <_Z10tfp_printfPcz>
   8faf8:	d503201f 	nop
   8fafc:	a8c37bfd 	ldp	x29, x30, [sp], #48
   8fb00:	d65f03c0 	ret

Disassembly of section .text._Z6printfIJRKPvEEvPKcDpOT_:

000000000008fb04 <_Z6printfIJRKPvEEvPKcDpOT_>:
   8fb04:	a9be7bfd 	stp	x29, x30, [sp, #-32]!
   8fb08:	910003fd 	mov	x29, sp
   8fb0c:	f9000fe0 	str	x0, [sp, #24]
   8fb10:	f9000be1 	str	x1, [sp, #16]
   8fb14:	f9400be0 	ldr	x0, [sp, #16]
   8fb18:	f9400000 	ldr	x0, [x0]
   8fb1c:	aa0003e1 	mov	x1, x0
   8fb20:	f9400fe0 	ldr	x0, [sp, #24]
   8fb24:	97ffd477 	bl	84d00 <_Z10tfp_printfPcz>
   8fb28:	d503201f 	nop
   8fb2c:	a8c27bfd 	ldp	x29, x30, [sp], #32
   8fb30:	d65f03c0 	ret

Disassembly of section .text._ZN8valkyrie6kernel6Kernel5panicIJRiEEEvPKcDpOT_:

000000000008fb34 <_ZN8valkyrie6kernel6Kernel5panicIJRiEEEvPKcDpOT_>:
   8fb34:	a9bd7bfd 	stp	x29, x30, [sp, #-48]!
   8fb38:	910003fd 	mov	x29, sp
   8fb3c:	f9000fe0 	str	x0, [sp, #24]
   8fb40:	f9000be1 	str	x1, [sp, #16]
   8fb44:	910003e0 	mov	x0, sp
   8fb48:	f90017e0 	str	x0, [sp, #40]
   8fb4c:	97ffc1ee 	bl	80304 <_ZN8valkyrie6kernel7console11clear_colorEv>
   8fb50:	d0ffffc0 	adrp	x0, 89000 <_ZN8valkyrie6kernel8FunctionIFvvEE12CallableImplIZNS0_16__run_unit_testsEvEUlvE_E4callEv+0x5e8>
   8fb54:	91206000 	add	x0, x0, #0x818
   8fb58:	97fff8f0 	bl	8df18 <_Z6printkIJEEvPKcDpOT_>
   8fb5c:	52800021 	mov	w1, #0x1                   	// #1
   8fb60:	52800020 	mov	w0, #0x1                   	// #1
   8fb64:	97ffc1da 	bl	802cc <_ZN8valkyrie6kernel7console9set_colorENS1_5ColorEb>
   8fb68:	d0ffffc0 	adrp	x0, 89000 <_ZN8valkyrie6kernel8FunctionIFvvEE12CallableImplIZNS0_16__run_unit_testsEvEUlvE_E4callEv+0x5e8>
   8fb6c:	91208000 	add	x0, x0, #0x820
   8fb70:	97fff92d 	bl	8e024 <_Z6printfIJEEvPKcDpOT_>
   8fb74:	52800001 	mov	w1, #0x0                   	// #0
   8fb78:	52800060 	mov	w0, #0x3                   	// #3
   8fb7c:	97ffc1d4 	bl	802cc <_ZN8valkyrie6kernel7console9set_colorENS1_5ColorEb>
   8fb80:	f9400be1 	ldr	x1, [sp, #16]
   8fb84:	f9400fe0 	ldr	x0, [sp, #24]
   8fb88:	97fffd59 	bl	8f0ec <_Z6printfIJRiEEvPKcDpOT_>
   8fb8c:	97ffc1de 	bl	80304 <_ZN8valkyrie6kernel7console11clear_colorEv>
   8fb90:	9100a3e0 	add	x0, sp, #0x28
   8fb94:	aa0003e1 	mov	x1, x0
   8fb98:	d0ffffc0 	adrp	x0, 89000 <_ZN8valkyrie6kernel8FunctionIFvvEE12CallableImplIZNS0_16__run_unit_testsEvEUlvE_E4callEv+0x5e8>
   8fb9c:	9120c000 	add	x0, x0, #0x830
   8fba0:	97fff938 	bl	8e080 <_Z6printkIJRyEEvPKcDpOT_>
   8fba4:	97ffcc11 	bl	82be8 <_ZN8valkyrie6kernel13MemoryManager12get_instanceEv>
   8fba8:	97ffcc7f 	bl	82da4 <_ZNK8valkyrie6kernel13MemoryManager24dump_slob_allocator_infoEv>
   8fbac:	d0ffffc0 	adrp	x0, 89000 <_ZN8valkyrie6kernel8FunctionIFvvEE12CallableImplIZNS0_16__run_unit_testsEvEUlvE_E4callEv+0x5e8>
   8fbb0:	91206000 	add	x0, x0, #0x818
   8fbb4:	97fff8d9 	bl	8df18 <_Z6printkIJEEvPKcDpOT_>
   8fbb8:	52800021 	mov	w1, #0x1                   	// #1
   8fbbc:	52800020 	mov	w0, #0x1                   	// #1
   8fbc0:	97ffc1c3 	bl	802cc <_ZN8valkyrie6kernel7console9set_colorENS1_5ColorEb>
   8fbc4:	d0ffffc0 	adrp	x0, 89000 <_ZN8valkyrie6kernel8FunctionIFvvEE12CallableImplIZNS0_16__run_unit_testsEvEUlvE_E4callEv+0x5e8>
   8fbc8:	91210000 	add	x0, x0, #0x840
   8fbcc:	97fff916 	bl	8e024 <_Z6printfIJEEvPKcDpOT_>
   8fbd0:	52800001 	mov	w1, #0x0                   	// #0
   8fbd4:	52800060 	mov	w0, #0x3                   	// #3
   8fbd8:	97ffc1bd 	bl	802cc <_ZN8valkyrie6kernel7console9set_colorENS1_5ColorEb>
   8fbdc:	f9400be1 	ldr	x1, [sp, #16]
   8fbe0:	f9400fe0 	ldr	x0, [sp, #24]
   8fbe4:	97fffd42 	bl	8f0ec <_Z6printfIJRiEEvPKcDpOT_>
   8fbe8:	97ffc1c7 	bl	80304 <_ZN8valkyrie6kernel7console11clear_colorEv>
   8fbec:	97ffc8e6 	bl	81f84 <_ZN8valkyrie6kernel16ExceptionManager12get_instanceEv>
   8fbf0:	97ffc910 	bl	82030 <_ZN8valkyrie6kernel16ExceptionManager7disableEv>
   8fbf4:	97ffc114 	bl	80044 <_halt>

Disassembly of section .text._ZN8valkyrie6kernel6Kernel5panicIJRKmmEEEvPKcDpOT_:

000000000008fbf8 <_ZN8valkyrie6kernel6Kernel5panicIJRKmmEEEvPKcDpOT_>:
   8fbf8:	a9bc7bfd 	stp	x29, x30, [sp, #-64]!
   8fbfc:	910003fd 	mov	x29, sp
   8fc00:	f90017e0 	str	x0, [sp, #40]
   8fc04:	f90013e1 	str	x1, [sp, #32]
   8fc08:	f9000fe2 	str	x2, [sp, #24]
   8fc0c:	910003e0 	mov	x0, sp
   8fc10:	f9001fe0 	str	x0, [sp, #56]
   8fc14:	97ffc1bc 	bl	80304 <_ZN8valkyrie6kernel7console11clear_colorEv>
   8fc18:	d0ffffc0 	adrp	x0, 89000 <_ZN8valkyrie6kernel8FunctionIFvvEE12CallableImplIZNS0_16__run_unit_testsEvEUlvE_E4callEv+0x5e8>
   8fc1c:	91206000 	add	x0, x0, #0x818
   8fc20:	97fff8be 	bl	8df18 <_Z6printkIJEEvPKcDpOT_>
   8fc24:	52800021 	mov	w1, #0x1                   	// #1
   8fc28:	52800020 	mov	w0, #0x1                   	// #1
   8fc2c:	97ffc1a8 	bl	802cc <_ZN8valkyrie6kernel7console9set_colorENS1_5ColorEb>
   8fc30:	d0ffffc0 	adrp	x0, 89000 <_ZN8valkyrie6kernel8FunctionIFvvEE12CallableImplIZNS0_16__run_unit_testsEvEUlvE_E4callEv+0x5e8>
   8fc34:	91208000 	add	x0, x0, #0x820
   8fc38:	97fff8fb 	bl	8e024 <_Z6printfIJEEvPKcDpOT_>
   8fc3c:	52800001 	mov	w1, #0x0                   	// #0
   8fc40:	52800060 	mov	w0, #0x3                   	// #3
   8fc44:	97ffc1a2 	bl	802cc <_ZN8valkyrie6kernel7console9set_colorENS1_5ColorEb>
   8fc48:	f9400fe2 	ldr	x2, [sp, #24]
   8fc4c:	f94013e1 	ldr	x1, [sp, #32]
   8fc50:	f94017e0 	ldr	x0, [sp, #40]
   8fc54:	9400002b 	bl	8fd00 <_Z6printfIJRKmRmEEvPKcDpOT_>
   8fc58:	97ffc1ab 	bl	80304 <_ZN8valkyrie6kernel7console11clear_colorEv>
   8fc5c:	9100e3e0 	add	x0, sp, #0x38
   8fc60:	aa0003e1 	mov	x1, x0
   8fc64:	d0ffffc0 	adrp	x0, 89000 <_ZN8valkyrie6kernel8FunctionIFvvEE12CallableImplIZNS0_16__run_unit_testsEvEUlvE_E4callEv+0x5e8>
   8fc68:	9120c000 	add	x0, x0, #0x830
   8fc6c:	97fff905 	bl	8e080 <_Z6printkIJRyEEvPKcDpOT_>
   8fc70:	97ffcbde 	bl	82be8 <_ZN8valkyrie6kernel13MemoryManager12get_instanceEv>
   8fc74:	97ffcc4c 	bl	82da4 <_ZNK8valkyrie6kernel13MemoryManager24dump_slob_allocator_infoEv>
   8fc78:	d0ffffc0 	adrp	x0, 89000 <_ZN8valkyrie6kernel8FunctionIFvvEE12CallableImplIZNS0_16__run_unit_testsEvEUlvE_E4callEv+0x5e8>
   8fc7c:	91206000 	add	x0, x0, #0x818
   8fc80:	97fff8a6 	bl	8df18 <_Z6printkIJEEvPKcDpOT_>
   8fc84:	52800021 	mov	w1, #0x1                   	// #1
   8fc88:	52800020 	mov	w0, #0x1                   	// #1
   8fc8c:	97ffc190 	bl	802cc <_ZN8valkyrie6kernel7console9set_colorENS1_5ColorEb>
   8fc90:	d0ffffc0 	adrp	x0, 89000 <_ZN8valkyrie6kernel8FunctionIFvvEE12CallableImplIZNS0_16__run_unit_testsEvEUlvE_E4callEv+0x5e8>
   8fc94:	91210000 	add	x0, x0, #0x840
   8fc98:	97fff8e3 	bl	8e024 <_Z6printfIJEEvPKcDpOT_>
   8fc9c:	52800001 	mov	w1, #0x0                   	// #0
   8fca0:	52800060 	mov	w0, #0x3                   	// #3
   8fca4:	97ffc18a 	bl	802cc <_ZN8valkyrie6kernel7console9set_colorENS1_5ColorEb>
   8fca8:	f9400fe2 	ldr	x2, [sp, #24]
   8fcac:	f94013e1 	ldr	x1, [sp, #32]
   8fcb0:	f94017e0 	ldr	x0, [sp, #40]
   8fcb4:	94000013 	bl	8fd00 <_Z6printfIJRKmRmEEvPKcDpOT_>
   8fcb8:	97ffc193 	bl	80304 <_ZN8valkyrie6kernel7console11clear_colorEv>
   8fcbc:	97ffc8b2 	bl	81f84 <_ZN8valkyrie6kernel16ExceptionManager12get_instanceEv>
   8fcc0:	97ffc8dc 	bl	82030 <_ZN8valkyrie6kernel16ExceptionManager7disableEv>
   8fcc4:	97ffc0e0 	bl	80044 <_halt>

Disassembly of section .text._ZN8valkyrie6kernel3maxImEERKT_S4_S4_:

000000000008fcc8 <_ZN8valkyrie6kernel3maxImEERKT_S4_S4_>:
   8fcc8:	d10043ff 	sub	sp, sp, #0x10
   8fccc:	f90007e0 	str	x0, [sp, #8]
   8fcd0:	f90003e1 	str	x1, [sp]
   8fcd4:	f94007e0 	ldr	x0, [sp, #8]
   8fcd8:	f9400001 	ldr	x1, [x0]
   8fcdc:	f94003e0 	ldr	x0, [sp]
   8fce0:	f9400000 	ldr	x0, [x0]
   8fce4:	eb00003f 	cmp	x1, x0
   8fce8:	54000063 	b.cc	8fcf4 <_ZN8valkyrie6kernel3maxImEERKT_S4_S4_+0x2c>  // b.lo, b.ul, b.last
   8fcec:	f94007e0 	ldr	x0, [sp, #8]
   8fcf0:	14000002 	b	8fcf8 <_ZN8valkyrie6kernel3maxImEERKT_S4_S4_+0x30>
   8fcf4:	f94003e0 	ldr	x0, [sp]
   8fcf8:	910043ff 	add	sp, sp, #0x10
   8fcfc:	d65f03c0 	ret

Disassembly of section .text._Z6printfIJRKmRmEEvPKcDpOT_:

000000000008fd00 <_Z6printfIJRKmRmEEvPKcDpOT_>:
   8fd00:	a9bd7bfd 	stp	x29, x30, [sp, #-48]!
   8fd04:	910003fd 	mov	x29, sp
   8fd08:	f90017e0 	str	x0, [sp, #40]
   8fd0c:	f90013e1 	str	x1, [sp, #32]
   8fd10:	f9000fe2 	str	x2, [sp, #24]
   8fd14:	f94013e0 	ldr	x0, [sp, #32]
   8fd18:	f9400001 	ldr	x1, [x0]
   8fd1c:	f9400fe0 	ldr	x0, [sp, #24]
   8fd20:	f9400000 	ldr	x0, [x0]
   8fd24:	aa0003e2 	mov	x2, x0
   8fd28:	f94017e0 	ldr	x0, [sp, #40]
   8fd2c:	97ffd3f5 	bl	84d00 <_Z10tfp_printfPcz>
   8fd30:	d503201f 	nop
   8fd34:	a8c37bfd 	ldp	x29, x30, [sp], #48
   8fd38:	d65f03c0 	ret

Disassembly of section .text._ZNK8valkyrie6kernel4Task7get_pidEv:

000000000008fd3c <_ZNK8valkyrie6kernel4Task7get_pidEv>:
   8fd3c:	d10043ff 	sub	sp, sp, #0x10
   8fd40:	f90007e0 	str	x0, [sp, #8]
   8fd44:	f94007e0 	ldr	x0, [sp, #8]
   8fd48:	b9407400 	ldr	w0, [x0, #116]
   8fd4c:	910043ff 	add	sp, sp, #0x10
   8fd50:	d65f03c0 	ret

Disassembly of section .text._ZN8valkyrie6kernel4Task12save_contextEv:

000000000008fd54 <_ZN8valkyrie6kernel4Task12save_contextEv>:
   8fd54:	a9bf7bfd 	stp	x29, x30, [sp, #-16]!
   8fd58:	910003fd 	mov	x29, sp
   8fd5c:	97ffdb24 	bl	869ec <_ZN8valkyrie6kernel4Task11get_currentEv>
   8fd60:	d2800001 	mov	x1, #0x0                   	// #0
   8fd64:	97ffc4a5 	bl	80ff8 <switch_to>
   8fd68:	d503201f 	nop
   8fd6c:	a8c17bfd 	ldp	x29, x30, [sp], #16
   8fd70:	d65f03c0 	ret

Disassembly of section .text._ZN8valkyrie6kernel6StringC2Ev:

000000000008fd74 <_ZN8valkyrie6kernel6StringC1Ev>:
   8fd74:	a9be7bfd 	stp	x29, x30, [sp, #-32]!
   8fd78:	910003fd 	mov	x29, sp
   8fd7c:	f9000fe0 	str	x0, [sp, #24]
   8fd80:	f9400fe0 	ldr	x0, [sp, #24]
   8fd84:	f900001f 	str	xzr, [x0]
   8fd88:	f9400fe0 	ldr	x0, [sp, #24]
   8fd8c:	97fffd8f 	bl	8f3c8 <_ZN8valkyrie6kernel9UniquePtrIA_cECI1NS1_IcEEEv>
   8fd90:	d503201f 	nop
   8fd94:	a8c27bfd 	ldp	x29, x30, [sp], #32
   8fd98:	d65f03c0 	ret

Disassembly of section .text._ZN8valkyrie6kernel6StringaSEOS1_:

000000000008fd9c <_ZN8valkyrie6kernel6StringaSEOS1_>:
   8fd9c:	a9be7bfd 	stp	x29, x30, [sp, #-32]!
   8fda0:	910003fd 	mov	x29, sp
   8fda4:	f9000fe0 	str	x0, [sp, #24]
   8fda8:	f9000be1 	str	x1, [sp, #16]
   8fdac:	f9400be0 	ldr	x0, [sp, #16]
   8fdb0:	9400000d 	bl	8fde4 <_ZN8valkyrie6kernel4moveIRNS0_9UniquePtrIA_cEEEEONS0_16_RemoveReferenceIT_E4TypeEOS7_>
   8fdb4:	aa0003e1 	mov	x1, x0
   8fdb8:	f9400fe0 	ldr	x0, [sp, #24]
   8fdbc:	97fffe37 	bl	8f698 <_ZN8valkyrie6kernel9UniquePtrIA_cEaSEOS3_>
   8fdc0:	f9400fe0 	ldr	x0, [sp, #24]
   8fdc4:	a8c27bfd 	ldp	x29, x30, [sp], #32
   8fdc8:	d65f03c0 	ret

Disassembly of section .text.get_free_page:

000000000008fdcc <get_free_page>:
   8fdcc:	a9bf7bfd 	stp	x29, x30, [sp, #-16]!
   8fdd0:	910003fd 	mov	x29, sp
   8fdd4:	97ffcb85 	bl	82be8 <_ZN8valkyrie6kernel13MemoryManager12get_instanceEv>
   8fdd8:	97ffcba6 	bl	82c70 <_ZN8valkyrie6kernel13MemoryManager13get_free_pageEv>
   8fddc:	a8c17bfd 	ldp	x29, x30, [sp], #16
   8fde0:	d65f03c0 	ret

Disassembly of section .text._ZN8valkyrie6kernel4moveIRNS0_9UniquePtrIA_cEEEEONS0_16_RemoveReferenceIT_E4TypeEOS7_:

000000000008fde4 <_ZN8valkyrie6kernel4moveIRNS0_9UniquePtrIA_cEEEEONS0_16_RemoveReferenceIT_E4TypeEOS7_>:
   8fde4:	d10043ff 	sub	sp, sp, #0x10
   8fde8:	f90007e0 	str	x0, [sp, #8]
   8fdec:	f94007e0 	ldr	x0, [sp, #8]
   8fdf0:	910043ff 	add	sp, sp, #0x10
   8fdf4:	d65f03c0 	ret

Disassembly of section .text._Z6printkIJPN8valkyrie6kernel4TaskERA16_cRjRPvEEvPKcDpOT_:

000000000008fdf8 <_Z6printkIJPN8valkyrie6kernel4TaskERA16_cRjRPvEEvPKcDpOT_>:
   8fdf8:	a9b97bfd 	stp	x29, x30, [sp, #-112]!
   8fdfc:	910003fd 	mov	x29, sp
   8fe00:	f9001fe0 	str	x0, [sp, #56]
   8fe04:	f9001be1 	str	x1, [sp, #48]
   8fe08:	f90017e2 	str	x2, [sp, #40]
   8fe0c:	f90013e3 	str	x3, [sp, #32]
   8fe10:	f9000fe4 	str	x4, [sp, #24]
   8fe14:	d53be020 	mrs	x0, cntpct_el0
   8fe18:	f90037e0 	str	x0, [sp, #104]
   8fe1c:	d53be000 	mrs	x0, cntfrq_el0
   8fe20:	f90033e0 	str	x0, [sp, #96]
   8fe24:	f94037e1 	ldr	x1, [sp, #104]
   8fe28:	aa0103e0 	mov	x0, x1
   8fe2c:	d37be800 	lsl	x0, x0, #5
   8fe30:	cb010000 	sub	x0, x0, x1
   8fe34:	d37ef400 	lsl	x0, x0, #2
   8fe38:	8b010000 	add	x0, x0, x1
   8fe3c:	d37df000 	lsl	x0, x0, #3
   8fe40:	aa0003e1 	mov	x1, x0
   8fe44:	f94033e0 	ldr	x0, [sp, #96]
   8fe48:	9ac00820 	udiv	x0, x1, x0
   8fe4c:	f9002fe0 	str	x0, [sp, #88]
   8fe50:	f9402fe0 	ldr	x0, [sp, #88]
   8fe54:	d343fc01 	lsr	x1, x0, #3
   8fe58:	d29ef9e0 	mov	x0, #0xf7cf                	// #63439
   8fe5c:	f2bc6a60 	movk	x0, #0xe353, lsl #16
   8fe60:	f2d374a0 	movk	x0, #0x9ba5, lsl #32
   8fe64:	f2e41880 	movk	x0, #0x20c4, lsl #48
   8fe68:	9bc07c20 	umulh	x0, x1, x0
   8fe6c:	d344fc00 	lsr	x0, x0, #4
   8fe70:	f90027e0 	str	x0, [sp, #72]
   8fe74:	f9402fe2 	ldr	x2, [sp, #88]
   8fe78:	d343fc41 	lsr	x1, x2, #3
   8fe7c:	d29ef9e0 	mov	x0, #0xf7cf                	// #63439
   8fe80:	f2bc6a60 	movk	x0, #0xe353, lsl #16
   8fe84:	f2d374a0 	movk	x0, #0x9ba5, lsl #32
   8fe88:	f2e41880 	movk	x0, #0x20c4, lsl #48
   8fe8c:	9bc07c20 	umulh	x0, x1, x0
   8fe90:	d344fc01 	lsr	x1, x0, #4
   8fe94:	aa0103e0 	mov	x0, x1
   8fe98:	d37be800 	lsl	x0, x0, #5
   8fe9c:	cb010000 	sub	x0, x0, x1
   8fea0:	d37ef400 	lsl	x0, x0, #2
   8fea4:	8b010000 	add	x0, x0, x1
   8fea8:	d37df000 	lsl	x0, x0, #3
   8feac:	cb000041 	sub	x1, x2, x0
   8feb0:	f9002be1 	str	x1, [sp, #80]
   8feb4:	910143e1 	add	x1, sp, #0x50
   8feb8:	910123e0 	add	x0, sp, #0x48
   8febc:	aa0103e2 	mov	x2, x1
   8fec0:	aa0003e1 	mov	x1, x0
   8fec4:	d0ffffc0 	adrp	x0, 89000 <_ZN8valkyrie6kernel8FunctionIFvvEE12CallableImplIZNS0_16__run_unit_testsEvEUlvE_E4callEv+0x5e8>
   8fec8:	912d4000 	add	x0, x0, #0xb50
   8fecc:	97fff85e 	bl	8e044 <_Z6printfIJyyEEvPKcDpOT_>
   8fed0:	f9400fe4 	ldr	x4, [sp, #24]
   8fed4:	f94013e3 	ldr	x3, [sp, #32]
   8fed8:	f94017e2 	ldr	x2, [sp, #40]
   8fedc:	f9401be1 	ldr	x1, [sp, #48]
   8fee0:	f9401fe0 	ldr	x0, [sp, #56]
   8fee4:	940001bd 	bl	905d8 <_Z6printfIJRPN8valkyrie6kernel4TaskERA16_cRjRPvEEvPKcDpOT_>
   8fee8:	d503201f 	nop
   8feec:	a8c77bfd 	ldp	x29, x30, [sp], #112
   8fef0:	d65f03c0 	ret

Disassembly of section .text._Z6printkIJPN8valkyrie6kernel4TaskERA16_cRjEEvPKcDpOT_:

000000000008fef4 <_Z6printkIJPN8valkyrie6kernel4TaskERA16_cRjEEvPKcDpOT_>:
   8fef4:	a9ba7bfd 	stp	x29, x30, [sp, #-96]!
   8fef8:	910003fd 	mov	x29, sp
   8fefc:	f90017e0 	str	x0, [sp, #40]
   8ff00:	f90013e1 	str	x1, [sp, #32]
   8ff04:	f9000fe2 	str	x2, [sp, #24]
   8ff08:	f9000be3 	str	x3, [sp, #16]
   8ff0c:	d53be020 	mrs	x0, cntpct_el0
   8ff10:	f9002fe0 	str	x0, [sp, #88]
   8ff14:	d53be000 	mrs	x0, cntfrq_el0
   8ff18:	f9002be0 	str	x0, [sp, #80]
   8ff1c:	f9402fe1 	ldr	x1, [sp, #88]
   8ff20:	aa0103e0 	mov	x0, x1
   8ff24:	d37be800 	lsl	x0, x0, #5
   8ff28:	cb010000 	sub	x0, x0, x1
   8ff2c:	d37ef400 	lsl	x0, x0, #2
   8ff30:	8b010000 	add	x0, x0, x1
   8ff34:	d37df000 	lsl	x0, x0, #3
   8ff38:	aa0003e1 	mov	x1, x0
   8ff3c:	f9402be0 	ldr	x0, [sp, #80]
   8ff40:	9ac00820 	udiv	x0, x1, x0
   8ff44:	f90027e0 	str	x0, [sp, #72]
   8ff48:	f94027e0 	ldr	x0, [sp, #72]
   8ff4c:	d343fc01 	lsr	x1, x0, #3
   8ff50:	d29ef9e0 	mov	x0, #0xf7cf                	// #63439
   8ff54:	f2bc6a60 	movk	x0, #0xe353, lsl #16
   8ff58:	f2d374a0 	movk	x0, #0x9ba5, lsl #32
   8ff5c:	f2e41880 	movk	x0, #0x20c4, lsl #48
   8ff60:	9bc07c20 	umulh	x0, x1, x0
   8ff64:	d344fc00 	lsr	x0, x0, #4
   8ff68:	f9001fe0 	str	x0, [sp, #56]
   8ff6c:	f94027e2 	ldr	x2, [sp, #72]
   8ff70:	d343fc41 	lsr	x1, x2, #3
   8ff74:	d29ef9e0 	mov	x0, #0xf7cf                	// #63439
   8ff78:	f2bc6a60 	movk	x0, #0xe353, lsl #16
   8ff7c:	f2d374a0 	movk	x0, #0x9ba5, lsl #32
   8ff80:	f2e41880 	movk	x0, #0x20c4, lsl #48
   8ff84:	9bc07c20 	umulh	x0, x1, x0
   8ff88:	d344fc01 	lsr	x1, x0, #4
   8ff8c:	aa0103e0 	mov	x0, x1
   8ff90:	d37be800 	lsl	x0, x0, #5
   8ff94:	cb010000 	sub	x0, x0, x1
   8ff98:	d37ef400 	lsl	x0, x0, #2
   8ff9c:	8b010000 	add	x0, x0, x1
   8ffa0:	d37df000 	lsl	x0, x0, #3
   8ffa4:	cb000041 	sub	x1, x2, x0
   8ffa8:	f90023e1 	str	x1, [sp, #64]
   8ffac:	910103e1 	add	x1, sp, #0x40
   8ffb0:	9100e3e0 	add	x0, sp, #0x38
   8ffb4:	aa0103e2 	mov	x2, x1
   8ffb8:	aa0003e1 	mov	x1, x0
   8ffbc:	d0ffffc0 	adrp	x0, 89000 <_ZN8valkyrie6kernel8FunctionIFvvEE12CallableImplIZNS0_16__run_unit_testsEvEUlvE_E4callEv+0x5e8>
   8ffc0:	912d4000 	add	x0, x0, #0xb50
   8ffc4:	97fff820 	bl	8e044 <_Z6printfIJyyEEvPKcDpOT_>
   8ffc8:	f9400be3 	ldr	x3, [sp, #16]
   8ffcc:	f9400fe2 	ldr	x2, [sp, #24]
   8ffd0:	f94013e1 	ldr	x1, [sp, #32]
   8ffd4:	f94017e0 	ldr	x0, [sp, #40]
   8ffd8:	94000195 	bl	9062c <_Z6printfIJRPN8valkyrie6kernel4TaskERA16_cRjEEvPKcDpOT_>
   8ffdc:	d503201f 	nop
   8ffe0:	a8c67bfd 	ldp	x29, x30, [sp], #96
   8ffe4:	d65f03c0 	ret

Disassembly of section .text._ZN8valkyrie6kernel7forwardIRA16_cEEOT_RNS0_16_RemoveReferenceIS4_E4TypeE:

000000000008ffe8 <_ZN8valkyrie6kernel7forwardIRA16_cEEOT_RNS0_16_RemoveReferenceIS4_E4TypeE>:
   8ffe8:	d10043ff 	sub	sp, sp, #0x10
   8ffec:	f90007e0 	str	x0, [sp, #8]
   8fff0:	f94007e0 	ldr	x0, [sp, #8]
   8fff4:	910043ff 	add	sp, sp, #0x10
   8fff8:	d65f03c0 	ret

Disassembly of section .text._ZN8valkyrie6kernel11make_uniqueINS0_4TaskEJPS2_RPvRA16_cEEENS0_9_UniqueIfIT_E13_SingleObjectEDpOT0_:

000000000008fffc <_ZN8valkyrie6kernel11make_uniqueINS0_4TaskEJPS2_RPvRA16_cEEENS0_9_UniqueIfIT_E13_SingleObjectEDpOT0_>:
   8fffc:	a9ba7bfd 	stp	x29, x30, [sp, #-96]!
   90000:	910003fd 	mov	x29, sp
   90004:	a90153f3 	stp	x19, x20, [sp, #16]
   90008:	a9025bf5 	stp	x21, x22, [sp, #32]
   9000c:	f9001bf7 	str	x23, [sp, #48]
   90010:	aa0803f3 	mov	x19, x8
   90014:	f9002fe0 	str	x0, [sp, #88]
   90018:	f9002be1 	str	x1, [sp, #80]
   9001c:	f90027e2 	str	x2, [sp, #72]
   90020:	f9402fe0 	ldr	x0, [sp, #88]
   90024:	94000193 	bl	90670 <_ZN8valkyrie6kernel7forwardIPNS0_4TaskEEEOT_RNS0_16_RemoveReferenceIS4_E4TypeE>
   90028:	f9400015 	ldr	x21, [x0]
   9002c:	f9402be0 	ldr	x0, [sp, #80]
   90030:	94000195 	bl	90684 <_ZN8valkyrie6kernel7forwardIRPvEEOT_RNS0_16_RemoveReferenceIS4_E4TypeE>
   90034:	f9400016 	ldr	x22, [x0]
   90038:	f94027e0 	ldr	x0, [sp, #72]
   9003c:	97ffffeb 	bl	8ffe8 <_ZN8valkyrie6kernel7forwardIRA16_cEEOT_RNS0_16_RemoveReferenceIS4_E4TypeE>
   90040:	aa0003f7 	mov	x23, x0
   90044:	d2801600 	mov	x0, #0xb0                  	// #176
   90048:	97ffcb60 	bl	82dc8 <_Znwm>
   9004c:	aa0003f4 	mov	x20, x0
   90050:	aa1703e3 	mov	x3, x23
   90054:	aa1603e2 	mov	x2, x22
   90058:	aa1503e1 	mov	x1, x21
   9005c:	aa1403e0 	mov	x0, x20
   90060:	97ffda70 	bl	86a20 <_ZN8valkyrie6kernel4TaskC1EPS1_PvPKc>
   90064:	aa1403e1 	mov	x1, x20
   90068:	aa1303e0 	mov	x0, x19
   9006c:	9400018b 	bl	90698 <_ZN8valkyrie6kernel9UniquePtrINS0_4TaskEEC1EPS2_>
   90070:	aa1303e0 	mov	x0, x19
   90074:	a94153f3 	ldp	x19, x20, [sp, #16]
   90078:	a9425bf5 	ldp	x21, x22, [sp, #32]
   9007c:	f9401bf7 	ldr	x23, [sp, #48]
   90080:	a8c67bfd 	ldp	x29, x30, [sp], #96
   90084:	d65f03c0 	ret

Disassembly of section .text._ZN8valkyrie6kernel9UniquePtrINS0_4TaskEED2Ev:

0000000000090088 <_ZN8valkyrie6kernel9UniquePtrINS0_4TaskEED1Ev>:
   90088:	a9be7bfd 	stp	x29, x30, [sp, #-32]!
   9008c:	910003fd 	mov	x29, sp
   90090:	f9000fe0 	str	x0, [sp, #24]
   90094:	d2800001 	mov	x1, #0x0                   	// #0
   90098:	f9400fe0 	ldr	x0, [sp, #24]
   9009c:	94000188 	bl	906bc <_ZN8valkyrie6kernel9UniquePtrINS0_4TaskEE5resetEPS2_>
   900a0:	d503201f 	nop
   900a4:	a8c27bfd 	ldp	x29, x30, [sp], #32
   900a8:	d65f03c0 	ret

Disassembly of section .text._ZNK8valkyrie6kernel9UniquePtrINS0_4TaskEEptEv:

00000000000900ac <_ZNK8valkyrie6kernel9UniquePtrINS0_4TaskEEptEv>:
   900ac:	a9be7bfd 	stp	x29, x30, [sp, #-32]!
   900b0:	910003fd 	mov	x29, sp
   900b4:	f9000fe0 	str	x0, [sp, #24]
   900b8:	f9400fe0 	ldr	x0, [sp, #24]
   900bc:	9400019b 	bl	90728 <_ZNK8valkyrie6kernel9UniquePtrINS0_4TaskEE3getEv>
   900c0:	a8c27bfd 	ldp	x29, x30, [sp], #32
   900c4:	d65f03c0 	ret

Disassembly of section .text._Z6printkIJRPN8valkyrie6kernel9TrapFrameEEEvPKcDpOT_:

00000000000900c8 <_Z6printkIJRPN8valkyrie6kernel9TrapFrameEEEvPKcDpOT_>:
   900c8:	a9bb7bfd 	stp	x29, x30, [sp, #-80]!
   900cc:	910003fd 	mov	x29, sp
   900d0:	f9000fe0 	str	x0, [sp, #24]
   900d4:	f9000be1 	str	x1, [sp, #16]
   900d8:	d53be020 	mrs	x0, cntpct_el0
   900dc:	f90027e0 	str	x0, [sp, #72]
   900e0:	d53be000 	mrs	x0, cntfrq_el0
   900e4:	f90023e0 	str	x0, [sp, #64]
   900e8:	f94027e1 	ldr	x1, [sp, #72]
   900ec:	aa0103e0 	mov	x0, x1
   900f0:	d37be800 	lsl	x0, x0, #5
   900f4:	cb010000 	sub	x0, x0, x1
   900f8:	d37ef400 	lsl	x0, x0, #2
   900fc:	8b010000 	add	x0, x0, x1
   90100:	d37df000 	lsl	x0, x0, #3
   90104:	aa0003e1 	mov	x1, x0
   90108:	f94023e0 	ldr	x0, [sp, #64]
   9010c:	9ac00820 	udiv	x0, x1, x0
   90110:	f9001fe0 	str	x0, [sp, #56]
   90114:	f9401fe0 	ldr	x0, [sp, #56]
   90118:	d343fc01 	lsr	x1, x0, #3
   9011c:	d29ef9e0 	mov	x0, #0xf7cf                	// #63439
   90120:	f2bc6a60 	movk	x0, #0xe353, lsl #16
   90124:	f2d374a0 	movk	x0, #0x9ba5, lsl #32
   90128:	f2e41880 	movk	x0, #0x20c4, lsl #48
   9012c:	9bc07c20 	umulh	x0, x1, x0
   90130:	d344fc00 	lsr	x0, x0, #4
   90134:	f90017e0 	str	x0, [sp, #40]
   90138:	f9401fe2 	ldr	x2, [sp, #56]
   9013c:	d343fc41 	lsr	x1, x2, #3
   90140:	d29ef9e0 	mov	x0, #0xf7cf                	// #63439
   90144:	f2bc6a60 	movk	x0, #0xe353, lsl #16
   90148:	f2d374a0 	movk	x0, #0x9ba5, lsl #32
   9014c:	f2e41880 	movk	x0, #0x20c4, lsl #48
   90150:	9bc07c20 	umulh	x0, x1, x0
   90154:	d344fc01 	lsr	x1, x0, #4
   90158:	aa0103e0 	mov	x0, x1
   9015c:	d37be800 	lsl	x0, x0, #5
   90160:	cb010000 	sub	x0, x0, x1
   90164:	d37ef400 	lsl	x0, x0, #2
   90168:	8b010000 	add	x0, x0, x1
   9016c:	d37df000 	lsl	x0, x0, #3
   90170:	cb000041 	sub	x1, x2, x0
   90174:	f9001be1 	str	x1, [sp, #48]
   90178:	9100c3e1 	add	x1, sp, #0x30
   9017c:	9100a3e0 	add	x0, sp, #0x28
   90180:	aa0103e2 	mov	x2, x1
   90184:	aa0003e1 	mov	x1, x0
   90188:	b0ffffc0 	adrp	x0, 89000 <_ZN8valkyrie6kernel8FunctionIFvvEE12CallableImplIZNS0_16__run_unit_testsEvEUlvE_E4callEv+0x5e8>
   9018c:	912d4000 	add	x0, x0, #0xb50
   90190:	97fff7ad 	bl	8e044 <_Z6printfIJyyEEvPKcDpOT_>
   90194:	f9400be1 	ldr	x1, [sp, #16]
   90198:	f9400fe0 	ldr	x0, [sp, #24]
   9019c:	94000169 	bl	90740 <_Z6printfIJRPN8valkyrie6kernel9TrapFrameEEEvPKcDpOT_>
   901a0:	d503201f 	nop
   901a4:	a8c57bfd 	ldp	x29, x30, [sp], #80
   901a8:	d65f03c0 	ret

Disassembly of section .text._Z6printkIJRPvS1_mEEvPKcDpOT_:

00000000000901ac <_Z6printkIJRPvS1_mEEvPKcDpOT_>:
   901ac:	a9ba7bfd 	stp	x29, x30, [sp, #-96]!
   901b0:	910003fd 	mov	x29, sp
   901b4:	f90017e0 	str	x0, [sp, #40]
   901b8:	f90013e1 	str	x1, [sp, #32]
   901bc:	f9000fe2 	str	x2, [sp, #24]
   901c0:	f9000be3 	str	x3, [sp, #16]
   901c4:	d53be020 	mrs	x0, cntpct_el0
   901c8:	f9002fe0 	str	x0, [sp, #88]
   901cc:	d53be000 	mrs	x0, cntfrq_el0
   901d0:	f9002be0 	str	x0, [sp, #80]
   901d4:	f9402fe1 	ldr	x1, [sp, #88]
   901d8:	aa0103e0 	mov	x0, x1
   901dc:	d37be800 	lsl	x0, x0, #5
   901e0:	cb010000 	sub	x0, x0, x1
   901e4:	d37ef400 	lsl	x0, x0, #2
   901e8:	8b010000 	add	x0, x0, x1
   901ec:	d37df000 	lsl	x0, x0, #3
   901f0:	aa0003e1 	mov	x1, x0
   901f4:	f9402be0 	ldr	x0, [sp, #80]
   901f8:	9ac00820 	udiv	x0, x1, x0
   901fc:	f90027e0 	str	x0, [sp, #72]
   90200:	f94027e0 	ldr	x0, [sp, #72]
   90204:	d343fc01 	lsr	x1, x0, #3
   90208:	d29ef9e0 	mov	x0, #0xf7cf                	// #63439
   9020c:	f2bc6a60 	movk	x0, #0xe353, lsl #16
   90210:	f2d374a0 	movk	x0, #0x9ba5, lsl #32
   90214:	f2e41880 	movk	x0, #0x20c4, lsl #48
   90218:	9bc07c20 	umulh	x0, x1, x0
   9021c:	d344fc00 	lsr	x0, x0, #4
   90220:	f9001fe0 	str	x0, [sp, #56]
   90224:	f94027e2 	ldr	x2, [sp, #72]
   90228:	d343fc41 	lsr	x1, x2, #3
   9022c:	d29ef9e0 	mov	x0, #0xf7cf                	// #63439
   90230:	f2bc6a60 	movk	x0, #0xe353, lsl #16
   90234:	f2d374a0 	movk	x0, #0x9ba5, lsl #32
   90238:	f2e41880 	movk	x0, #0x20c4, lsl #48
   9023c:	9bc07c20 	umulh	x0, x1, x0
   90240:	d344fc01 	lsr	x1, x0, #4
   90244:	aa0103e0 	mov	x0, x1
   90248:	d37be800 	lsl	x0, x0, #5
   9024c:	cb010000 	sub	x0, x0, x1
   90250:	d37ef400 	lsl	x0, x0, #2
   90254:	8b010000 	add	x0, x0, x1
   90258:	d37df000 	lsl	x0, x0, #3
   9025c:	cb000041 	sub	x1, x2, x0
   90260:	f90023e1 	str	x1, [sp, #64]
   90264:	910103e1 	add	x1, sp, #0x40
   90268:	9100e3e0 	add	x0, sp, #0x38
   9026c:	aa0103e2 	mov	x2, x1
   90270:	aa0003e1 	mov	x1, x0
   90274:	b0ffffc0 	adrp	x0, 89000 <_ZN8valkyrie6kernel8FunctionIFvvEE12CallableImplIZNS0_16__run_unit_testsEvEUlvE_E4callEv+0x5e8>
   90278:	912d4000 	add	x0, x0, #0xb50
   9027c:	97fff772 	bl	8e044 <_Z6printfIJyyEEvPKcDpOT_>
   90280:	f9400be3 	ldr	x3, [sp, #16]
   90284:	f9400fe2 	ldr	x2, [sp, #24]
   90288:	f94013e1 	ldr	x1, [sp, #32]
   9028c:	f94017e0 	ldr	x0, [sp, #40]
   90290:	94000138 	bl	90770 <_Z6printfIJRPvS1_RmEEvPKcDpOT_>
   90294:	d503201f 	nop
   90298:	a8c67bfd 	ldp	x29, x30, [sp], #96
   9029c:	d65f03c0 	ret

Disassembly of section .text._ZN8valkyrie6kernel4moveIRNS0_9UniquePtrINS0_4TaskEEEEEONS0_16_RemoveReferenceIT_E4TypeEOS7_:

00000000000902a0 <_ZN8valkyrie6kernel4moveIRNS0_9UniquePtrINS0_4TaskEEEEEONS0_16_RemoveReferenceIT_E4TypeEOS7_>:
   902a0:	d10043ff 	sub	sp, sp, #0x10
   902a4:	f90007e0 	str	x0, [sp, #8]
   902a8:	f94007e0 	ldr	x0, [sp, #8]
   902ac:	910043ff 	add	sp, sp, #0x10
   902b0:	d65f03c0 	ret

Disassembly of section .text._ZN8valkyrie6kernel9UniquePtrINS0_4TaskEEC2EOS3_:

00000000000902b4 <_ZN8valkyrie6kernel9UniquePtrINS0_4TaskEEC1EOS3_>:
   902b4:	a9be7bfd 	stp	x29, x30, [sp, #-32]!
   902b8:	910003fd 	mov	x29, sp
   902bc:	f9000fe0 	str	x0, [sp, #24]
   902c0:	f9000be1 	str	x1, [sp, #16]
   902c4:	f9400be0 	ldr	x0, [sp, #16]
   902c8:	9400013c 	bl	907b8 <_ZN8valkyrie6kernel9UniquePtrINS0_4TaskEE7releaseEv>
   902cc:	aa0003e1 	mov	x1, x0
   902d0:	f9400fe0 	ldr	x0, [sp, #24]
   902d4:	f9000001 	str	x1, [x0]
   902d8:	d503201f 	nop
   902dc:	a8c27bfd 	ldp	x29, x30, [sp], #32
   902e0:	d65f03c0 	ret

Disassembly of section .text._Z6printkIJRPvRmEEvPKcDpOT_:

00000000000902e4 <_Z6printkIJRPvRmEEvPKcDpOT_>:
   902e4:	a9ba7bfd 	stp	x29, x30, [sp, #-96]!
   902e8:	910003fd 	mov	x29, sp
   902ec:	f90017e0 	str	x0, [sp, #40]
   902f0:	f90013e1 	str	x1, [sp, #32]
   902f4:	f9000fe2 	str	x2, [sp, #24]
   902f8:	d53be020 	mrs	x0, cntpct_el0
   902fc:	f9002fe0 	str	x0, [sp, #88]
   90300:	d53be000 	mrs	x0, cntfrq_el0
   90304:	f9002be0 	str	x0, [sp, #80]
   90308:	f9402fe1 	ldr	x1, [sp, #88]
   9030c:	aa0103e0 	mov	x0, x1
   90310:	d37be800 	lsl	x0, x0, #5
   90314:	cb010000 	sub	x0, x0, x1
   90318:	d37ef400 	lsl	x0, x0, #2
   9031c:	8b010000 	add	x0, x0, x1
   90320:	d37df000 	lsl	x0, x0, #3
   90324:	aa0003e1 	mov	x1, x0
   90328:	f9402be0 	ldr	x0, [sp, #80]
   9032c:	9ac00820 	udiv	x0, x1, x0
   90330:	f90027e0 	str	x0, [sp, #72]
   90334:	f94027e0 	ldr	x0, [sp, #72]
   90338:	d343fc01 	lsr	x1, x0, #3
   9033c:	d29ef9e0 	mov	x0, #0xf7cf                	// #63439
   90340:	f2bc6a60 	movk	x0, #0xe353, lsl #16
   90344:	f2d374a0 	movk	x0, #0x9ba5, lsl #32
   90348:	f2e41880 	movk	x0, #0x20c4, lsl #48
   9034c:	9bc07c20 	umulh	x0, x1, x0
   90350:	d344fc00 	lsr	x0, x0, #4
   90354:	f9001fe0 	str	x0, [sp, #56]
   90358:	f94027e2 	ldr	x2, [sp, #72]
   9035c:	d343fc41 	lsr	x1, x2, #3
   90360:	d29ef9e0 	mov	x0, #0xf7cf                	// #63439
   90364:	f2bc6a60 	movk	x0, #0xe353, lsl #16
   90368:	f2d374a0 	movk	x0, #0x9ba5, lsl #32
   9036c:	f2e41880 	movk	x0, #0x20c4, lsl #48
   90370:	9bc07c20 	umulh	x0, x1, x0
   90374:	d344fc01 	lsr	x1, x0, #4
   90378:	aa0103e0 	mov	x0, x1
   9037c:	d37be800 	lsl	x0, x0, #5
   90380:	cb010000 	sub	x0, x0, x1
   90384:	d37ef400 	lsl	x0, x0, #2
   90388:	8b010000 	add	x0, x0, x1
   9038c:	d37df000 	lsl	x0, x0, #3
   90390:	cb000041 	sub	x1, x2, x0
   90394:	f90023e1 	str	x1, [sp, #64]
   90398:	910103e1 	add	x1, sp, #0x40
   9039c:	9100e3e0 	add	x0, sp, #0x38
   903a0:	aa0103e2 	mov	x2, x1
   903a4:	aa0003e1 	mov	x1, x0
   903a8:	b0ffffc0 	adrp	x0, 89000 <_ZN8valkyrie6kernel8FunctionIFvvEE12CallableImplIZNS0_16__run_unit_testsEvEUlvE_E4callEv+0x5e8>
   903ac:	912d4000 	add	x0, x0, #0xb50
   903b0:	97fff725 	bl	8e044 <_Z6printfIJyyEEvPKcDpOT_>
   903b4:	f9400fe2 	ldr	x2, [sp, #24]
   903b8:	f94013e1 	ldr	x1, [sp, #32]
   903bc:	f94017e0 	ldr	x0, [sp, #40]
   903c0:	94000108 	bl	907e0 <_Z6printfIJRPvRmEEvPKcDpOT_>
   903c4:	d503201f 	nop
   903c8:	a8c67bfd 	ldp	x29, x30, [sp], #96
   903cc:	d65f03c0 	ret

Disassembly of section .text._Z6printfIJRPcEEvPKcDpOT_:

00000000000903d0 <_Z6printfIJRPcEEvPKcDpOT_>:
   903d0:	a9be7bfd 	stp	x29, x30, [sp, #-32]!
   903d4:	910003fd 	mov	x29, sp
   903d8:	f9000fe0 	str	x0, [sp, #24]
   903dc:	f9000be1 	str	x1, [sp, #16]
   903e0:	f9400be0 	ldr	x0, [sp, #16]
   903e4:	f9400000 	ldr	x0, [x0]
   903e8:	aa0003e1 	mov	x1, x0
   903ec:	f9400fe0 	ldr	x0, [sp, #24]
   903f0:	97ffd244 	bl	84d00 <_Z10tfp_printfPcz>
   903f4:	d503201f 	nop
   903f8:	a8c27bfd 	ldp	x29, x30, [sp], #32
   903fc:	d65f03c0 	ret

Disassembly of section .text._Z6printkIJRPKcRPvS4_EEvS1_DpOT_:

0000000000090400 <_Z6printkIJRPKcRPvS4_EEvS1_DpOT_>:
   90400:	a9ba7bfd 	stp	x29, x30, [sp, #-96]!
   90404:	910003fd 	mov	x29, sp
   90408:	f90017e0 	str	x0, [sp, #40]
   9040c:	f90013e1 	str	x1, [sp, #32]
   90410:	f9000fe2 	str	x2, [sp, #24]
   90414:	f9000be3 	str	x3, [sp, #16]
   90418:	d53be020 	mrs	x0, cntpct_el0
   9041c:	f9002fe0 	str	x0, [sp, #88]
   90420:	d53be000 	mrs	x0, cntfrq_el0
   90424:	f9002be0 	str	x0, [sp, #80]
   90428:	f9402fe1 	ldr	x1, [sp, #88]
   9042c:	aa0103e0 	mov	x0, x1
   90430:	d37be800 	lsl	x0, x0, #5
   90434:	cb010000 	sub	x0, x0, x1
   90438:	d37ef400 	lsl	x0, x0, #2
   9043c:	8b010000 	add	x0, x0, x1
   90440:	d37df000 	lsl	x0, x0, #3
   90444:	aa0003e1 	mov	x1, x0
   90448:	f9402be0 	ldr	x0, [sp, #80]
   9044c:	9ac00820 	udiv	x0, x1, x0
   90450:	f90027e0 	str	x0, [sp, #72]
   90454:	f94027e0 	ldr	x0, [sp, #72]
   90458:	d343fc01 	lsr	x1, x0, #3
   9045c:	d29ef9e0 	mov	x0, #0xf7cf                	// #63439
   90460:	f2bc6a60 	movk	x0, #0xe353, lsl #16
   90464:	f2d374a0 	movk	x0, #0x9ba5, lsl #32
   90468:	f2e41880 	movk	x0, #0x20c4, lsl #48
   9046c:	9bc07c20 	umulh	x0, x1, x0
   90470:	d344fc00 	lsr	x0, x0, #4
   90474:	f9001fe0 	str	x0, [sp, #56]
   90478:	f94027e2 	ldr	x2, [sp, #72]
   9047c:	d343fc41 	lsr	x1, x2, #3
   90480:	d29ef9e0 	mov	x0, #0xf7cf                	// #63439
   90484:	f2bc6a60 	movk	x0, #0xe353, lsl #16
   90488:	f2d374a0 	movk	x0, #0x9ba5, lsl #32
   9048c:	f2e41880 	movk	x0, #0x20c4, lsl #48
   90490:	9bc07c20 	umulh	x0, x1, x0
   90494:	d344fc01 	lsr	x1, x0, #4
   90498:	aa0103e0 	mov	x0, x1
   9049c:	d37be800 	lsl	x0, x0, #5
   904a0:	cb010000 	sub	x0, x0, x1
   904a4:	d37ef400 	lsl	x0, x0, #2
   904a8:	8b010000 	add	x0, x0, x1
   904ac:	d37df000 	lsl	x0, x0, #3
   904b0:	cb000041 	sub	x1, x2, x0
   904b4:	f90023e1 	str	x1, [sp, #64]
   904b8:	910103e1 	add	x1, sp, #0x40
   904bc:	9100e3e0 	add	x0, sp, #0x38
   904c0:	aa0103e2 	mov	x2, x1
   904c4:	aa0003e1 	mov	x1, x0
   904c8:	b0ffffc0 	adrp	x0, 89000 <_ZN8valkyrie6kernel8FunctionIFvvEE12CallableImplIZNS0_16__run_unit_testsEvEUlvE_E4callEv+0x5e8>
   904cc:	912d4000 	add	x0, x0, #0xb50
   904d0:	97fff6dd 	bl	8e044 <_Z6printfIJyyEEvPKcDpOT_>
   904d4:	f9400be3 	ldr	x3, [sp, #16]
   904d8:	f9400fe2 	ldr	x2, [sp, #24]
   904dc:	f94013e1 	ldr	x1, [sp, #32]
   904e0:	f94017e0 	ldr	x0, [sp, #40]
   904e4:	940000ce 	bl	9081c <_Z6printfIJRPKcRPvS4_EEvS1_DpOT_>
   904e8:	d503201f 	nop
   904ec:	a8c67bfd 	ldp	x29, x30, [sp], #96
   904f0:	d65f03c0 	ret

Disassembly of section .text._Z6printkIJRPKcEEvS1_DpOT_:

00000000000904f4 <_Z6printkIJRPKcEEvS1_DpOT_>:
   904f4:	a9bb7bfd 	stp	x29, x30, [sp, #-80]!
   904f8:	910003fd 	mov	x29, sp
   904fc:	f9000fe0 	str	x0, [sp, #24]
   90500:	f9000be1 	str	x1, [sp, #16]
   90504:	d53be020 	mrs	x0, cntpct_el0
   90508:	f90027e0 	str	x0, [sp, #72]
   9050c:	d53be000 	mrs	x0, cntfrq_el0
   90510:	f90023e0 	str	x0, [sp, #64]
   90514:	f94027e1 	ldr	x1, [sp, #72]
   90518:	aa0103e0 	mov	x0, x1
   9051c:	d37be800 	lsl	x0, x0, #5
   90520:	cb010000 	sub	x0, x0, x1
   90524:	d37ef400 	lsl	x0, x0, #2
   90528:	8b010000 	add	x0, x0, x1
   9052c:	d37df000 	lsl	x0, x0, #3
   90530:	aa0003e1 	mov	x1, x0
   90534:	f94023e0 	ldr	x0, [sp, #64]
   90538:	9ac00820 	udiv	x0, x1, x0
   9053c:	f9001fe0 	str	x0, [sp, #56]
   90540:	f9401fe0 	ldr	x0, [sp, #56]
   90544:	d343fc01 	lsr	x1, x0, #3
   90548:	d29ef9e0 	mov	x0, #0xf7cf                	// #63439
   9054c:	f2bc6a60 	movk	x0, #0xe353, lsl #16
   90550:	f2d374a0 	movk	x0, #0x9ba5, lsl #32
   90554:	f2e41880 	movk	x0, #0x20c4, lsl #48
   90558:	9bc07c20 	umulh	x0, x1, x0
   9055c:	d344fc00 	lsr	x0, x0, #4
   90560:	f90017e0 	str	x0, [sp, #40]
   90564:	f9401fe2 	ldr	x2, [sp, #56]
   90568:	d343fc41 	lsr	x1, x2, #3
   9056c:	d29ef9e0 	mov	x0, #0xf7cf                	// #63439
   90570:	f2bc6a60 	movk	x0, #0xe353, lsl #16
   90574:	f2d374a0 	movk	x0, #0x9ba5, lsl #32
   90578:	f2e41880 	movk	x0, #0x20c4, lsl #48
   9057c:	9bc07c20 	umulh	x0, x1, x0
   90580:	d344fc01 	lsr	x1, x0, #4
   90584:	aa0103e0 	mov	x0, x1
   90588:	d37be800 	lsl	x0, x0, #5
   9058c:	cb010000 	sub	x0, x0, x1
   90590:	d37ef400 	lsl	x0, x0, #2
   90594:	8b010000 	add	x0, x0, x1
   90598:	d37df000 	lsl	x0, x0, #3
   9059c:	cb000041 	sub	x1, x2, x0
   905a0:	f9001be1 	str	x1, [sp, #48]
   905a4:	9100c3e1 	add	x1, sp, #0x30
   905a8:	9100a3e0 	add	x0, sp, #0x28
   905ac:	aa0103e2 	mov	x2, x1
   905b0:	aa0003e1 	mov	x1, x0
   905b4:	b0ffffc0 	adrp	x0, 89000 <_ZN8valkyrie6kernel8FunctionIFvvEE12CallableImplIZNS0_16__run_unit_testsEvEUlvE_E4callEv+0x5e8>
   905b8:	912d4000 	add	x0, x0, #0xb50
   905bc:	97fff6a2 	bl	8e044 <_Z6printfIJyyEEvPKcDpOT_>
   905c0:	f9400be1 	ldr	x1, [sp, #16]
   905c4:	f9400fe0 	ldr	x0, [sp, #24]
   905c8:	97fffd0c 	bl	8f9f8 <_Z6printfIJRPKcEEvS1_DpOT_>
   905cc:	d503201f 	nop
   905d0:	a8c57bfd 	ldp	x29, x30, [sp], #80
   905d4:	d65f03c0 	ret

Disassembly of section .text._Z6printfIJRPN8valkyrie6kernel4TaskERA16_cRjRPvEEvPKcDpOT_:

00000000000905d8 <_Z6printfIJRPN8valkyrie6kernel4TaskERA16_cRjRPvEEvPKcDpOT_>:
   905d8:	a9bc7bfd 	stp	x29, x30, [sp, #-64]!
   905dc:	910003fd 	mov	x29, sp
   905e0:	f9001fe0 	str	x0, [sp, #56]
   905e4:	f9001be1 	str	x1, [sp, #48]
   905e8:	f90017e2 	str	x2, [sp, #40]
   905ec:	f90013e3 	str	x3, [sp, #32]
   905f0:	f9000fe4 	str	x4, [sp, #24]
   905f4:	f9401be0 	ldr	x0, [sp, #48]
   905f8:	f9400001 	ldr	x1, [x0]
   905fc:	f94013e0 	ldr	x0, [sp, #32]
   90600:	b9400002 	ldr	w2, [x0]
   90604:	f9400fe0 	ldr	x0, [sp, #24]
   90608:	f9400000 	ldr	x0, [x0]
   9060c:	aa0003e4 	mov	x4, x0
   90610:	2a0203e3 	mov	w3, w2
   90614:	f94017e2 	ldr	x2, [sp, #40]
   90618:	f9401fe0 	ldr	x0, [sp, #56]
   9061c:	97ffd1b9 	bl	84d00 <_Z10tfp_printfPcz>
   90620:	d503201f 	nop
   90624:	a8c47bfd 	ldp	x29, x30, [sp], #64
   90628:	d65f03c0 	ret

Disassembly of section .text._Z6printfIJRPN8valkyrie6kernel4TaskERA16_cRjEEvPKcDpOT_:

000000000009062c <_Z6printfIJRPN8valkyrie6kernel4TaskERA16_cRjEEvPKcDpOT_>:
   9062c:	a9bd7bfd 	stp	x29, x30, [sp, #-48]!
   90630:	910003fd 	mov	x29, sp
   90634:	f90017e0 	str	x0, [sp, #40]
   90638:	f90013e1 	str	x1, [sp, #32]
   9063c:	f9000fe2 	str	x2, [sp, #24]
   90640:	f9000be3 	str	x3, [sp, #16]
   90644:	f94013e0 	ldr	x0, [sp, #32]
   90648:	f9400001 	ldr	x1, [x0]
   9064c:	f9400be0 	ldr	x0, [sp, #16]
   90650:	b9400000 	ldr	w0, [x0]
   90654:	2a0003e3 	mov	w3, w0
   90658:	f9400fe2 	ldr	x2, [sp, #24]
   9065c:	f94017e0 	ldr	x0, [sp, #40]
   90660:	97ffd1a8 	bl	84d00 <_Z10tfp_printfPcz>
   90664:	d503201f 	nop
   90668:	a8c37bfd 	ldp	x29, x30, [sp], #48
   9066c:	d65f03c0 	ret

Disassembly of section .text._ZN8valkyrie6kernel7forwardIPNS0_4TaskEEEOT_RNS0_16_RemoveReferenceIS4_E4TypeE:

0000000000090670 <_ZN8valkyrie6kernel7forwardIPNS0_4TaskEEEOT_RNS0_16_RemoveReferenceIS4_E4TypeE>:
   90670:	d10043ff 	sub	sp, sp, #0x10
   90674:	f90007e0 	str	x0, [sp, #8]
   90678:	f94007e0 	ldr	x0, [sp, #8]
   9067c:	910043ff 	add	sp, sp, #0x10
   90680:	d65f03c0 	ret

Disassembly of section .text._ZN8valkyrie6kernel7forwardIRPvEEOT_RNS0_16_RemoveReferenceIS4_E4TypeE:

0000000000090684 <_ZN8valkyrie6kernel7forwardIRPvEEOT_RNS0_16_RemoveReferenceIS4_E4TypeE>:
   90684:	d10043ff 	sub	sp, sp, #0x10
   90688:	f90007e0 	str	x0, [sp, #8]
   9068c:	f94007e0 	ldr	x0, [sp, #8]
   90690:	910043ff 	add	sp, sp, #0x10
   90694:	d65f03c0 	ret

Disassembly of section .text._ZN8valkyrie6kernel9UniquePtrINS0_4TaskEEC2EPS2_:

0000000000090698 <_ZN8valkyrie6kernel9UniquePtrINS0_4TaskEEC1EPS2_>:
   90698:	d10043ff 	sub	sp, sp, #0x10
   9069c:	f90007e0 	str	x0, [sp, #8]
   906a0:	f90003e1 	str	x1, [sp]
   906a4:	f94007e0 	ldr	x0, [sp, #8]
   906a8:	f94003e1 	ldr	x1, [sp]
   906ac:	f9000001 	str	x1, [x0]
   906b0:	d503201f 	nop
   906b4:	910043ff 	add	sp, sp, #0x10
   906b8:	d65f03c0 	ret

Disassembly of section .text._ZN8valkyrie6kernel9UniquePtrINS0_4TaskEE5resetEPS2_:

00000000000906bc <_ZN8valkyrie6kernel9UniquePtrINS0_4TaskEE5resetEPS2_>:
   906bc:	a9bd7bfd 	stp	x29, x30, [sp, #-48]!
   906c0:	910003fd 	mov	x29, sp
   906c4:	f9000bf3 	str	x19, [sp, #16]
   906c8:	f90017e0 	str	x0, [sp, #40]
   906cc:	f90013e1 	str	x1, [sp, #32]
   906d0:	f94017e0 	ldr	x0, [sp, #40]
   906d4:	f9400000 	ldr	x0, [x0]
   906d8:	f94013e1 	ldr	x1, [sp, #32]
   906dc:	eb00003f 	cmp	x1, x0
   906e0:	540001c0 	b.eq	90718 <_ZN8valkyrie6kernel9UniquePtrINS0_4TaskEE5resetEPS2_+0x5c>  // b.none
   906e4:	f94017e0 	ldr	x0, [sp, #40]
   906e8:	f9400013 	ldr	x19, [x0]
   906ec:	f100027f 	cmp	x19, #0x0
   906f0:	540000c0 	b.eq	90708 <_ZN8valkyrie6kernel9UniquePtrINS0_4TaskEE5resetEPS2_+0x4c>  // b.none
   906f4:	aa1303e0 	mov	x0, x19
   906f8:	97ffd933 	bl	86bc4 <_ZN8valkyrie6kernel4TaskD1Ev>
   906fc:	d2801601 	mov	x1, #0xb0                  	// #176
   90700:	aa1303e0 	mov	x0, x19
   90704:	97ffc9cf 	bl	82e40 <_ZdlPvm>
   90708:	f94017e0 	ldr	x0, [sp, #40]
   9070c:	f94013e1 	ldr	x1, [sp, #32]
   90710:	f9000001 	str	x1, [x0]
   90714:	14000002 	b	9071c <_ZN8valkyrie6kernel9UniquePtrINS0_4TaskEE5resetEPS2_+0x60>
   90718:	d503201f 	nop
   9071c:	f9400bf3 	ldr	x19, [sp, #16]
   90720:	a8c37bfd 	ldp	x29, x30, [sp], #48
   90724:	d65f03c0 	ret

Disassembly of section .text._ZNK8valkyrie6kernel9UniquePtrINS0_4TaskEE3getEv:

0000000000090728 <_ZNK8valkyrie6kernel9UniquePtrINS0_4TaskEE3getEv>:
   90728:	d10043ff 	sub	sp, sp, #0x10
   9072c:	f90007e0 	str	x0, [sp, #8]
   90730:	f94007e0 	ldr	x0, [sp, #8]
   90734:	f9400000 	ldr	x0, [x0]
   90738:	910043ff 	add	sp, sp, #0x10
   9073c:	d65f03c0 	ret

Disassembly of section .text._Z6printfIJRPN8valkyrie6kernel9TrapFrameEEEvPKcDpOT_:

0000000000090740 <_Z6printfIJRPN8valkyrie6kernel9TrapFrameEEEvPKcDpOT_>:
   90740:	a9be7bfd 	stp	x29, x30, [sp, #-32]!
   90744:	910003fd 	mov	x29, sp
   90748:	f9000fe0 	str	x0, [sp, #24]
   9074c:	f9000be1 	str	x1, [sp, #16]
   90750:	f9400be0 	ldr	x0, [sp, #16]
   90754:	f9400000 	ldr	x0, [x0]
   90758:	aa0003e1 	mov	x1, x0
   9075c:	f9400fe0 	ldr	x0, [sp, #24]
   90760:	97ffd168 	bl	84d00 <_Z10tfp_printfPcz>
   90764:	d503201f 	nop
   90768:	a8c27bfd 	ldp	x29, x30, [sp], #32
   9076c:	d65f03c0 	ret

Disassembly of section .text._Z6printfIJRPvS1_RmEEvPKcDpOT_:

0000000000090770 <_Z6printfIJRPvS1_RmEEvPKcDpOT_>:
   90770:	a9bd7bfd 	stp	x29, x30, [sp, #-48]!
   90774:	910003fd 	mov	x29, sp
   90778:	f90017e0 	str	x0, [sp, #40]
   9077c:	f90013e1 	str	x1, [sp, #32]
   90780:	f9000fe2 	str	x2, [sp, #24]
   90784:	f9000be3 	str	x3, [sp, #16]
   90788:	f94013e0 	ldr	x0, [sp, #32]
   9078c:	f9400001 	ldr	x1, [x0]
   90790:	f9400fe0 	ldr	x0, [sp, #24]
   90794:	f9400002 	ldr	x2, [x0]
   90798:	f9400be0 	ldr	x0, [sp, #16]
   9079c:	f9400000 	ldr	x0, [x0]
   907a0:	aa0003e3 	mov	x3, x0
   907a4:	f94017e0 	ldr	x0, [sp, #40]
   907a8:	97ffd156 	bl	84d00 <_Z10tfp_printfPcz>
   907ac:	d503201f 	nop
   907b0:	a8c37bfd 	ldp	x29, x30, [sp], #48
   907b4:	d65f03c0 	ret

Disassembly of section .text._ZN8valkyrie6kernel9UniquePtrINS0_4TaskEE7releaseEv:

00000000000907b8 <_ZN8valkyrie6kernel9UniquePtrINS0_4TaskEE7releaseEv>:
   907b8:	d10083ff 	sub	sp, sp, #0x20
   907bc:	f90007e0 	str	x0, [sp, #8]
   907c0:	f94007e0 	ldr	x0, [sp, #8]
   907c4:	f9400000 	ldr	x0, [x0]
   907c8:	f9000fe0 	str	x0, [sp, #24]
   907cc:	f94007e0 	ldr	x0, [sp, #8]
   907d0:	f900001f 	str	xzr, [x0]
   907d4:	f9400fe0 	ldr	x0, [sp, #24]
   907d8:	910083ff 	add	sp, sp, #0x20
   907dc:	d65f03c0 	ret

Disassembly of section .text._Z6printfIJRPvRmEEvPKcDpOT_:

00000000000907e0 <_Z6printfIJRPvRmEEvPKcDpOT_>:
   907e0:	a9bd7bfd 	stp	x29, x30, [sp, #-48]!
   907e4:	910003fd 	mov	x29, sp
   907e8:	f90017e0 	str	x0, [sp, #40]
   907ec:	f90013e1 	str	x1, [sp, #32]
   907f0:	f9000fe2 	str	x2, [sp, #24]
   907f4:	f94013e0 	ldr	x0, [sp, #32]
   907f8:	f9400001 	ldr	x1, [x0]
   907fc:	f9400fe0 	ldr	x0, [sp, #24]
   90800:	f9400000 	ldr	x0, [x0]
   90804:	aa0003e2 	mov	x2, x0
   90808:	f94017e0 	ldr	x0, [sp, #40]
   9080c:	97ffd13d 	bl	84d00 <_Z10tfp_printfPcz>
   90810:	d503201f 	nop
   90814:	a8c37bfd 	ldp	x29, x30, [sp], #48
   90818:	d65f03c0 	ret

Disassembly of section .text._Z6printfIJRPKcRPvS4_EEvS1_DpOT_:

000000000009081c <_Z6printfIJRPKcRPvS4_EEvS1_DpOT_>:
   9081c:	a9bd7bfd 	stp	x29, x30, [sp, #-48]!
   90820:	910003fd 	mov	x29, sp
   90824:	f90017e0 	str	x0, [sp, #40]
   90828:	f90013e1 	str	x1, [sp, #32]
   9082c:	f9000fe2 	str	x2, [sp, #24]
   90830:	f9000be3 	str	x3, [sp, #16]
   90834:	f94013e0 	ldr	x0, [sp, #32]
   90838:	f9400001 	ldr	x1, [x0]
   9083c:	f9400fe0 	ldr	x0, [sp, #24]
   90840:	f9400002 	ldr	x2, [x0]
   90844:	f9400be0 	ldr	x0, [sp, #16]
   90848:	f9400000 	ldr	x0, [x0]
   9084c:	aa0003e3 	mov	x3, x0
   90850:	f94017e0 	ldr	x0, [sp, #40]
   90854:	97ffd12b 	bl	84d00 <_Z10tfp_printfPcz>
   90858:	d503201f 	nop
   9085c:	a8c37bfd 	ldp	x29, x30, [sp], #48
   90860:	d65f03c0 	ret

Disassembly of section .text._ZN8valkyrie6kernel4Task9set_stateENS1_5StateE:

0000000000090864 <_ZN8valkyrie6kernel4Task9set_stateENS1_5StateE>:
   90864:	d10043ff 	sub	sp, sp, #0x10
   90868:	f90007e0 	str	x0, [sp, #8]
   9086c:	b90007e1 	str	w1, [sp, #4]
   90870:	f94007e0 	ldr	x0, [sp, #8]
   90874:	b94007e1 	ldr	w1, [sp, #4]
   90878:	b9007001 	str	w1, [x0, #112]
   9087c:	d503201f 	nop
   90880:	910043ff 	add	sp, sp, #0x10
   90884:	d65f03c0 	ret

Disassembly of section .text._ZNK8valkyrie6kernel4Task8get_nameEv:

0000000000090888 <_ZNK8valkyrie6kernel4Task8get_nameEv>:
   90888:	d10043ff 	sub	sp, sp, #0x10
   9088c:	f90007e0 	str	x0, [sp, #8]
   90890:	f94007e0 	ldr	x0, [sp, #8]
   90894:	91028000 	add	x0, x0, #0xa0
   90898:	910043ff 	add	sp, sp, #0x10
   9089c:	d65f03c0 	ret

Disassembly of section .text._ZN8valkyrie6kernel13TaskSchedulerD2Ev:

00000000000908a0 <_ZN8valkyrie6kernel13TaskSchedulerD1Ev>:
   908a0:	a9be7bfd 	stp	x29, x30, [sp, #-32]!
   908a4:	910003fd 	mov	x29, sp
   908a8:	f9000fe0 	str	x0, [sp, #24]
   908ac:	f9400fe0 	ldr	x0, [sp, #24]
   908b0:	91004000 	add	x0, x0, #0x10
   908b4:	94000017 	bl	90910 <_ZN8valkyrie6kernel16DoublyLinkedListINS0_9UniquePtrINS0_4TaskEEEED1Ev>
   908b8:	f9400fe0 	ldr	x0, [sp, #24]
   908bc:	94000015 	bl	90910 <_ZN8valkyrie6kernel16DoublyLinkedListINS0_9UniquePtrINS0_4TaskEEEED1Ev>
   908c0:	d503201f 	nop
   908c4:	a8c27bfd 	ldp	x29, x30, [sp], #32
   908c8:	d65f03c0 	ret

Disassembly of section .text._ZN8valkyrie6kernel8FunctionIFbRNS0_9UniquePtrINS0_4TaskEEEEED2Ev:

00000000000908cc <_ZN8valkyrie6kernel8FunctionIFbRNS0_9UniquePtrINS0_4TaskEEEEED1Ev>:
   908cc:	a9be7bfd 	stp	x29, x30, [sp, #-32]!
   908d0:	910003fd 	mov	x29, sp
   908d4:	f9000fe0 	str	x0, [sp, #24]
   908d8:	f9400fe0 	ldr	x0, [sp, #24]
   908dc:	94000116 	bl	90d34 <_ZN8valkyrie6kernel9SharedPtrINS0_8FunctionIFbRNS0_9UniquePtrINS0_4TaskEEEEE13CallableIfaceEED1Ev>
   908e0:	d503201f 	nop
   908e4:	a8c27bfd 	ldp	x29, x30, [sp], #32
   908e8:	d65f03c0 	ret

Disassembly of section .text._ZN8valkyrie6kernel16DoublyLinkedListINS0_9UniquePtrINS0_4TaskEEEE4NodeD2Ev:

00000000000908ec <_ZN8valkyrie6kernel16DoublyLinkedListINS0_9UniquePtrINS0_4TaskEEEE4NodeD1Ev>:
   908ec:	a9be7bfd 	stp	x29, x30, [sp, #-32]!
   908f0:	910003fd 	mov	x29, sp
   908f4:	f9000fe0 	str	x0, [sp, #24]
   908f8:	f9400fe0 	ldr	x0, [sp, #24]
   908fc:	91004000 	add	x0, x0, #0x10
   90900:	97fffde2 	bl	90088 <_ZN8valkyrie6kernel9UniquePtrINS0_4TaskEED1Ev>
   90904:	d503201f 	nop
   90908:	a8c27bfd 	ldp	x29, x30, [sp], #32
   9090c:	d65f03c0 	ret

Disassembly of section .text._ZN8valkyrie6kernel16DoublyLinkedListINS0_9UniquePtrINS0_4TaskEEEED2Ev:

0000000000090910 <_ZN8valkyrie6kernel16DoublyLinkedListINS0_9UniquePtrINS0_4TaskEEEED1Ev>:
   90910:	a9bc7bfd 	stp	x29, x30, [sp, #-64]!
   90914:	910003fd 	mov	x29, sp
   90918:	f9000bf3 	str	x19, [sp, #16]
   9091c:	f90017e0 	str	x0, [sp, #40]
   90920:	f94017e0 	ldr	x0, [sp, #40]
   90924:	940001a2 	bl	90fac <_ZNK8valkyrie6kernel9UniquePtrINS0_16DoublyLinkedListINS1_INS0_4TaskEEEE4NodeEEptEv>
   90928:	f9400400 	ldr	x0, [x0, #8]
   9092c:	f9001fe0 	str	x0, [sp, #56]
   90930:	f94017e0 	ldr	x0, [sp, #40]
   90934:	940001a5 	bl	90fc8 <_ZNK8valkyrie6kernel9UniquePtrINS0_16DoublyLinkedListINS1_INS0_4TaskEEEE4NodeEE3getEv>
   90938:	aa0003e1 	mov	x1, x0
   9093c:	f9401fe0 	ldr	x0, [sp, #56]
   90940:	eb01001f 	cmp	x0, x1
   90944:	1a9f07e0 	cset	w0, ne  // ne = any
   90948:	12001c00 	and	w0, w0, #0xff
   9094c:	7100001f 	cmp	w0, #0x0
   90950:	540001e0 	b.eq	9098c <_ZN8valkyrie6kernel16DoublyLinkedListINS0_9UniquePtrINS0_4TaskEEEED1Ev+0x7c>  // b.none
   90954:	f9401fe0 	ldr	x0, [sp, #56]
   90958:	f9400400 	ldr	x0, [x0, #8]
   9095c:	f9001be0 	str	x0, [sp, #48]
   90960:	f9401ff3 	ldr	x19, [sp, #56]
   90964:	f100027f 	cmp	x19, #0x0
   90968:	540000c0 	b.eq	90980 <_ZN8valkyrie6kernel16DoublyLinkedListINS0_9UniquePtrINS0_4TaskEEEED1Ev+0x70>  // b.none
   9096c:	aa1303e0 	mov	x0, x19
   90970:	97ffffdf 	bl	908ec <_ZN8valkyrie6kernel16DoublyLinkedListINS0_9UniquePtrINS0_4TaskEEEE4NodeD1Ev>
   90974:	d2800301 	mov	x1, #0x18                  	// #24
   90978:	aa1303e0 	mov	x0, x19
   9097c:	97ffc931 	bl	82e40 <_ZdlPvm>
   90980:	f9401be0 	ldr	x0, [sp, #48]
   90984:	f9001fe0 	str	x0, [sp, #56]
   90988:	17ffffea 	b	90930 <_ZN8valkyrie6kernel16DoublyLinkedListINS0_9UniquePtrINS0_4TaskEEEED1Ev+0x20>
   9098c:	f94017e0 	ldr	x0, [sp, #40]
   90990:	9400017e 	bl	90f88 <_ZN8valkyrie6kernel9UniquePtrINS0_16DoublyLinkedListINS1_INS0_4TaskEEEE4NodeEED1Ev>
   90994:	d503201f 	nop
   90998:	f9400bf3 	ldr	x19, [sp, #16]
   9099c:	a8c47bfd 	ldp	x29, x30, [sp], #64
   909a0:	d65f03c0 	ret

Disassembly of section .text._ZN8valkyrie6kernel16DoublyLinkedListINS0_9UniquePtrINS0_4TaskEEEEC2Ev:

00000000000909a4 <_ZN8valkyrie6kernel16DoublyLinkedListINS0_9UniquePtrINS0_4TaskEEEEC1Ev>:
   909a4:	a9be7bfd 	stp	x29, x30, [sp, #-32]!
   909a8:	910003fd 	mov	x29, sp
   909ac:	f9000fe0 	str	x0, [sp, #24]
   909b0:	f9400fe0 	ldr	x0, [sp, #24]
   909b4:	aa0003e8 	mov	x8, x0
   909b8:	9400018a 	bl	90fe0 <_ZN8valkyrie6kernel11make_uniqueINS0_16DoublyLinkedListINS0_9UniquePtrINS0_4TaskEEEE4NodeEJEEENS0_9_UniqueIfIT_E13_SingleObjectEDpOT0_>
   909bc:	f9400fe0 	ldr	x0, [sp, #24]
   909c0:	f900041f 	str	xzr, [x0, #8]
   909c4:	d503201f 	nop
   909c8:	a8c27bfd 	ldp	x29, x30, [sp], #32
   909cc:	d65f03c0 	ret

Disassembly of section .text._ZN8valkyrie6kernel7forwardIDnEEOT_RNS0_16_RemoveReferenceIS2_E4TypeE:

00000000000909d0 <_ZN8valkyrie6kernel7forwardIDnEEOT_RNS0_16_RemoveReferenceIS2_E4TypeE>:
   909d0:	d10043ff 	sub	sp, sp, #0x10
   909d4:	f90007e0 	str	x0, [sp, #8]
   909d8:	f94007e0 	ldr	x0, [sp, #8]
   909dc:	910043ff 	add	sp, sp, #0x10
   909e0:	d65f03c0 	ret

Disassembly of section .text._ZN8valkyrie6kernel11make_uniqueINS0_4TaskEJDnPvRA5_KcEEENS0_9_UniqueIfIT_E13_SingleObjectEDpOT0_:

00000000000909e4 <_ZN8valkyrie6kernel11make_uniqueINS0_4TaskEJDnPvRA5_KcEEENS0_9_UniqueIfIT_E13_SingleObjectEDpOT0_>:
   909e4:	a9ba7bfd 	stp	x29, x30, [sp, #-96]!
   909e8:	910003fd 	mov	x29, sp
   909ec:	a90153f3 	stp	x19, x20, [sp, #16]
   909f0:	a9025bf5 	stp	x21, x22, [sp, #32]
   909f4:	f9001bf7 	str	x23, [sp, #48]
   909f8:	aa0803f3 	mov	x19, x8
   909fc:	f9002fe0 	str	x0, [sp, #88]
   90a00:	f9002be1 	str	x1, [sp, #80]
   90a04:	f90027e2 	str	x2, [sp, #72]
   90a08:	f9402fe0 	ldr	x0, [sp, #88]
   90a0c:	97fffff1 	bl	909d0 <_ZN8valkyrie6kernel7forwardIDnEEOT_RNS0_16_RemoveReferenceIS2_E4TypeE>
   90a10:	d2800017 	mov	x23, #0x0                   	// #0
   90a14:	f9402be0 	ldr	x0, [sp, #80]
   90a18:	94000182 	bl	91020 <_ZN8valkyrie6kernel7forwardIPvEEOT_RNS0_16_RemoveReferenceIS3_E4TypeE>
   90a1c:	f9400015 	ldr	x21, [x0]
   90a20:	f94027e0 	ldr	x0, [sp, #72]
   90a24:	94000184 	bl	91034 <_ZN8valkyrie6kernel7forwardIRA5_KcEEOT_RNS0_16_RemoveReferenceIS5_E4TypeE>
   90a28:	aa0003f6 	mov	x22, x0
   90a2c:	d2801600 	mov	x0, #0xb0                  	// #176
   90a30:	97ffc8e6 	bl	82dc8 <_Znwm>
   90a34:	aa0003f4 	mov	x20, x0
   90a38:	aa1603e3 	mov	x3, x22
   90a3c:	aa1503e2 	mov	x2, x21
   90a40:	aa1703e1 	mov	x1, x23
   90a44:	aa1403e0 	mov	x0, x20
   90a48:	97ffd7f6 	bl	86a20 <_ZN8valkyrie6kernel4TaskC1EPS1_PvPKc>
   90a4c:	aa1403e1 	mov	x1, x20
   90a50:	aa1303e0 	mov	x0, x19
   90a54:	97ffff11 	bl	90698 <_ZN8valkyrie6kernel9UniquePtrINS0_4TaskEEC1EPS2_>
   90a58:	aa1303e0 	mov	x0, x19
   90a5c:	a94153f3 	ldp	x19, x20, [sp, #16]
   90a60:	a9425bf5 	ldp	x21, x22, [sp, #32]
   90a64:	f9401bf7 	ldr	x23, [sp, #48]
   90a68:	a8c67bfd 	ldp	x29, x30, [sp], #96
   90a6c:	d65f03c0 	ret

Disassembly of section .text._ZN8valkyrie6kernel16DoublyLinkedListINS0_9UniquePtrINS0_4TaskEEEE5frontEv:

0000000000090a70 <_ZN8valkyrie6kernel16DoublyLinkedListINS0_9UniquePtrINS0_4TaskEEEE5frontEv>:
   90a70:	a9be7bfd 	stp	x29, x30, [sp, #-32]!
   90a74:	910003fd 	mov	x29, sp
   90a78:	f9000fe0 	str	x0, [sp, #24]
   90a7c:	f9400fe0 	ldr	x0, [sp, #24]
   90a80:	9400014b 	bl	90fac <_ZNK8valkyrie6kernel9UniquePtrINS0_16DoublyLinkedListINS1_INS0_4TaskEEEE4NodeEEptEv>
   90a84:	f9400400 	ldr	x0, [x0, #8]
   90a88:	91004000 	add	x0, x0, #0x10
   90a8c:	a8c27bfd 	ldp	x29, x30, [sp], #32
   90a90:	d65f03c0 	ret

Disassembly of section .text._ZNK8valkyrie6kernel9UniquePtrINS0_4TaskEEcvbEv:

0000000000090a94 <_ZNK8valkyrie6kernel9UniquePtrINS0_4TaskEEcvbEv>:
   90a94:	a9be7bfd 	stp	x29, x30, [sp, #-32]!
   90a98:	910003fd 	mov	x29, sp
   90a9c:	f9000fe0 	str	x0, [sp, #24]
   90aa0:	f9400fe0 	ldr	x0, [sp, #24]
   90aa4:	97ffff21 	bl	90728 <_ZNK8valkyrie6kernel9UniquePtrINS0_4TaskEE3getEv>
   90aa8:	f100001f 	cmp	x0, #0x0
   90aac:	1a9f07e0 	cset	w0, ne  // ne = any
   90ab0:	12001c00 	and	w0, w0, #0xff
   90ab4:	a8c27bfd 	ldp	x29, x30, [sp], #32
   90ab8:	d65f03c0 	ret

Disassembly of section .text._Z6printkIJPN8valkyrie6kernel4TaskEPKcjEEvS5_DpOT_:

0000000000090abc <_Z6printkIJPN8valkyrie6kernel4TaskEPKcjEEvS5_DpOT_>:
   90abc:	a9ba7bfd 	stp	x29, x30, [sp, #-96]!
   90ac0:	910003fd 	mov	x29, sp
   90ac4:	f90017e0 	str	x0, [sp, #40]
   90ac8:	f90013e1 	str	x1, [sp, #32]
   90acc:	f9000fe2 	str	x2, [sp, #24]
   90ad0:	f9000be3 	str	x3, [sp, #16]
   90ad4:	d53be020 	mrs	x0, cntpct_el0
   90ad8:	f9002fe0 	str	x0, [sp, #88]
   90adc:	d53be000 	mrs	x0, cntfrq_el0
   90ae0:	f9002be0 	str	x0, [sp, #80]
   90ae4:	f9402fe1 	ldr	x1, [sp, #88]
   90ae8:	aa0103e0 	mov	x0, x1
   90aec:	d37be800 	lsl	x0, x0, #5
   90af0:	cb010000 	sub	x0, x0, x1
   90af4:	d37ef400 	lsl	x0, x0, #2
   90af8:	8b010000 	add	x0, x0, x1
   90afc:	d37df000 	lsl	x0, x0, #3
   90b00:	aa0003e1 	mov	x1, x0
   90b04:	f9402be0 	ldr	x0, [sp, #80]
   90b08:	9ac00820 	udiv	x0, x1, x0
   90b0c:	f90027e0 	str	x0, [sp, #72]
   90b10:	f94027e0 	ldr	x0, [sp, #72]
   90b14:	d343fc01 	lsr	x1, x0, #3
   90b18:	d29ef9e0 	mov	x0, #0xf7cf                	// #63439
   90b1c:	f2bc6a60 	movk	x0, #0xe353, lsl #16
   90b20:	f2d374a0 	movk	x0, #0x9ba5, lsl #32
   90b24:	f2e41880 	movk	x0, #0x20c4, lsl #48
   90b28:	9bc07c20 	umulh	x0, x1, x0
   90b2c:	d344fc00 	lsr	x0, x0, #4
   90b30:	f9001fe0 	str	x0, [sp, #56]
   90b34:	f94027e2 	ldr	x2, [sp, #72]
   90b38:	d343fc41 	lsr	x1, x2, #3
   90b3c:	d29ef9e0 	mov	x0, #0xf7cf                	// #63439
   90b40:	f2bc6a60 	movk	x0, #0xe353, lsl #16
   90b44:	f2d374a0 	movk	x0, #0x9ba5, lsl #32
   90b48:	f2e41880 	movk	x0, #0x20c4, lsl #48
   90b4c:	9bc07c20 	umulh	x0, x1, x0
   90b50:	d344fc01 	lsr	x1, x0, #4
   90b54:	aa0103e0 	mov	x0, x1
   90b58:	d37be800 	lsl	x0, x0, #5
   90b5c:	cb010000 	sub	x0, x0, x1
   90b60:	d37ef400 	lsl	x0, x0, #2
   90b64:	8b010000 	add	x0, x0, x1
   90b68:	d37df000 	lsl	x0, x0, #3
   90b6c:	cb000041 	sub	x1, x2, x0
   90b70:	f90023e1 	str	x1, [sp, #64]
   90b74:	910103e1 	add	x1, sp, #0x40
   90b78:	9100e3e0 	add	x0, sp, #0x38
   90b7c:	aa0103e2 	mov	x2, x1
   90b80:	aa0003e1 	mov	x1, x0
   90b84:	b0ffffc0 	adrp	x0, 89000 <_ZN8valkyrie6kernel8FunctionIFvvEE12CallableImplIZNS0_16__run_unit_testsEvEUlvE_E4callEv+0x5e8>
   90b88:	9132a000 	add	x0, x0, #0xca8
   90b8c:	97fff52e 	bl	8e044 <_Z6printfIJyyEEvPKcDpOT_>
   90b90:	f9400be3 	ldr	x3, [sp, #16]
   90b94:	f9400fe2 	ldr	x2, [sp, #24]
   90b98:	f94013e1 	ldr	x1, [sp, #32]
   90b9c:	f94017e0 	ldr	x0, [sp, #40]
   90ba0:	9400012a 	bl	91048 <_Z6printfIJRPN8valkyrie6kernel4TaskERPKcRjEEvS6_DpOT_>
   90ba4:	d503201f 	nop
   90ba8:	a8c67bfd 	ldp	x29, x30, [sp], #96
   90bac:	d65f03c0 	ret

Disassembly of section .text._ZN8valkyrie6kernel16DoublyLinkedListINS0_9UniquePtrINS0_4TaskEEEE9push_backIS4_EEvOT_:

0000000000090bb0 <_ZN8valkyrie6kernel16DoublyLinkedListINS0_9UniquePtrINS0_4TaskEEEE9push_backIS4_EEvOT_>:
   90bb0:	a9bc7bfd 	stp	x29, x30, [sp, #-64]!
   90bb4:	910003fd 	mov	x29, sp
   90bb8:	a90153f3 	stp	x19, x20, [sp, #16]
   90bbc:	f90017e0 	str	x0, [sp, #40]
   90bc0:	f90013e1 	str	x1, [sp, #32]
   90bc4:	f94013e0 	ldr	x0, [sp, #32]
   90bc8:	94000132 	bl	91090 <_ZN8valkyrie6kernel7forwardINS0_9UniquePtrINS0_4TaskEEEEEOT_RNS0_16_RemoveReferenceIS5_E4TypeE>
   90bcc:	aa0003f4 	mov	x20, x0
   90bd0:	d2800300 	mov	x0, #0x18                  	// #24
   90bd4:	97ffc87d 	bl	82dc8 <_Znwm>
   90bd8:	aa0003f3 	mov	x19, x0
   90bdc:	aa1403e1 	mov	x1, x20
   90be0:	aa1303e0 	mov	x0, x19
   90be4:	94000130 	bl	910a4 <_ZN8valkyrie6kernel16DoublyLinkedListINS0_9UniquePtrINS0_4TaskEEEE4NodeC1IS4_EEOT_>
   90be8:	f9001ff3 	str	x19, [sp, #56]
   90bec:	f94017e0 	ldr	x0, [sp, #40]
   90bf0:	940000ef 	bl	90fac <_ZNK8valkyrie6kernel9UniquePtrINS0_16DoublyLinkedListINS1_INS0_4TaskEEEE4NodeEEptEv>
   90bf4:	f9400013 	ldr	x19, [x0]
   90bf8:	f94017e0 	ldr	x0, [sp, #40]
   90bfc:	940000f3 	bl	90fc8 <_ZNK8valkyrie6kernel9UniquePtrINS0_16DoublyLinkedListINS1_INS0_4TaskEEEE4NodeEE3getEv>
   90c00:	aa0003e3 	mov	x3, x0
   90c04:	aa1303e2 	mov	x2, x19
   90c08:	f9401fe1 	ldr	x1, [sp, #56]
   90c0c:	f94017e0 	ldr	x0, [sp, #40]
   90c10:	94000139 	bl	910f4 <_ZN8valkyrie6kernel16DoublyLinkedListINS0_9UniquePtrINS0_4TaskEEEE8list_addEPNS5_4NodeES7_S7_>
   90c14:	d503201f 	nop
   90c18:	a94153f3 	ldp	x19, x20, [sp, #16]
   90c1c:	a8c47bfd 	ldp	x29, x30, [sp], #64
   90c20:	d65f03c0 	ret

Disassembly of section .text._Z6printkIJPKN8valkyrie6kernel4TaskEPKcjEEvS6_DpOT_:

0000000000090c24 <_Z6printkIJPKN8valkyrie6kernel4TaskEPKcjEEvS6_DpOT_>:
   90c24:	a9ba7bfd 	stp	x29, x30, [sp, #-96]!
   90c28:	910003fd 	mov	x29, sp
   90c2c:	f90017e0 	str	x0, [sp, #40]
   90c30:	f90013e1 	str	x1, [sp, #32]
   90c34:	f9000fe2 	str	x2, [sp, #24]
   90c38:	f9000be3 	str	x3, [sp, #16]
   90c3c:	d53be020 	mrs	x0, cntpct_el0
   90c40:	f9002fe0 	str	x0, [sp, #88]
   90c44:	d53be000 	mrs	x0, cntfrq_el0
   90c48:	f9002be0 	str	x0, [sp, #80]
   90c4c:	f9402fe1 	ldr	x1, [sp, #88]
   90c50:	aa0103e0 	mov	x0, x1
   90c54:	d37be800 	lsl	x0, x0, #5
   90c58:	cb010000 	sub	x0, x0, x1
   90c5c:	d37ef400 	lsl	x0, x0, #2
   90c60:	8b010000 	add	x0, x0, x1
   90c64:	d37df000 	lsl	x0, x0, #3
   90c68:	aa0003e1 	mov	x1, x0
   90c6c:	f9402be0 	ldr	x0, [sp, #80]
   90c70:	9ac00820 	udiv	x0, x1, x0
   90c74:	f90027e0 	str	x0, [sp, #72]
   90c78:	f94027e0 	ldr	x0, [sp, #72]
   90c7c:	d343fc01 	lsr	x1, x0, #3
   90c80:	d29ef9e0 	mov	x0, #0xf7cf                	// #63439
   90c84:	f2bc6a60 	movk	x0, #0xe353, lsl #16
   90c88:	f2d374a0 	movk	x0, #0x9ba5, lsl #32
   90c8c:	f2e41880 	movk	x0, #0x20c4, lsl #48
   90c90:	9bc07c20 	umulh	x0, x1, x0
   90c94:	d344fc00 	lsr	x0, x0, #4
   90c98:	f9001fe0 	str	x0, [sp, #56]
   90c9c:	f94027e2 	ldr	x2, [sp, #72]
   90ca0:	d343fc41 	lsr	x1, x2, #3
   90ca4:	d29ef9e0 	mov	x0, #0xf7cf                	// #63439
   90ca8:	f2bc6a60 	movk	x0, #0xe353, lsl #16
   90cac:	f2d374a0 	movk	x0, #0x9ba5, lsl #32
   90cb0:	f2e41880 	movk	x0, #0x20c4, lsl #48
   90cb4:	9bc07c20 	umulh	x0, x1, x0
   90cb8:	d344fc01 	lsr	x1, x0, #4
   90cbc:	aa0103e0 	mov	x0, x1
   90cc0:	d37be800 	lsl	x0, x0, #5
   90cc4:	cb010000 	sub	x0, x0, x1
   90cc8:	d37ef400 	lsl	x0, x0, #2
   90ccc:	8b010000 	add	x0, x0, x1
   90cd0:	d37df000 	lsl	x0, x0, #3
   90cd4:	cb000041 	sub	x1, x2, x0
   90cd8:	f90023e1 	str	x1, [sp, #64]
   90cdc:	910103e1 	add	x1, sp, #0x40
   90ce0:	9100e3e0 	add	x0, sp, #0x38
   90ce4:	aa0103e2 	mov	x2, x1
   90ce8:	aa0003e1 	mov	x1, x0
   90cec:	b0ffffc0 	adrp	x0, 89000 <_ZN8valkyrie6kernel8FunctionIFvvEE12CallableImplIZNS0_16__run_unit_testsEvEUlvE_E4callEv+0x5e8>
   90cf0:	9132a000 	add	x0, x0, #0xca8
   90cf4:	97fff4d4 	bl	8e044 <_Z6printfIJyyEEvPKcDpOT_>
   90cf8:	f9400be3 	ldr	x3, [sp, #16]
   90cfc:	f9400fe2 	ldr	x2, [sp, #24]
   90d00:	f94013e1 	ldr	x1, [sp, #32]
   90d04:	f94017e0 	ldr	x0, [sp, #40]
   90d08:	94000120 	bl	91188 <_Z6printfIJRPKN8valkyrie6kernel4TaskERPKcRjEEvS7_DpOT_>
   90d0c:	d503201f 	nop
   90d10:	a8c67bfd 	ldp	x29, x30, [sp], #96
   90d14:	d65f03c0 	ret

Disassembly of section .text._ZN8valkyrie6kernel9UniquePtrINS0_4TaskEEC2Ev:

0000000000090d18 <_ZN8valkyrie6kernel9UniquePtrINS0_4TaskEEC1Ev>:
   90d18:	d10043ff 	sub	sp, sp, #0x10
   90d1c:	f90007e0 	str	x0, [sp, #8]
   90d20:	f94007e0 	ldr	x0, [sp, #8]
   90d24:	f900001f 	str	xzr, [x0]
   90d28:	d503201f 	nop
   90d2c:	910043ff 	add	sp, sp, #0x10
   90d30:	d65f03c0 	ret

Disassembly of section .text._ZN8valkyrie6kernel9SharedPtrINS0_8FunctionIFbRNS0_9UniquePtrINS0_4TaskEEEEE13CallableIfaceEED2Ev:

0000000000090d34 <_ZN8valkyrie6kernel9SharedPtrINS0_8FunctionIFbRNS0_9UniquePtrINS0_4TaskEEEEE13CallableIfaceEED1Ev>:
   90d34:	a9be7bfd 	stp	x29, x30, [sp, #-32]!
   90d38:	910003fd 	mov	x29, sp
   90d3c:	f9000fe0 	str	x0, [sp, #24]
   90d40:	f9400fe0 	ldr	x0, [sp, #24]
   90d44:	9400013f 	bl	91240 <_ZN8valkyrie6kernel9SharedPtrINS0_8FunctionIFbRNS0_9UniquePtrINS0_4TaskEEEEE13CallableIfaceEE13dec_use_countEv>
   90d48:	d503201f 	nop
   90d4c:	a8c27bfd 	ldp	x29, x30, [sp], #32
   90d50:	d65f03c0 	ret

Disassembly of section .text._ZN8valkyrie6kernel16DoublyLinkedListINS0_9UniquePtrINS0_4TaskEEEE9remove_ifENS0_8FunctionIFbRS4_EEE:

0000000000090d54 <_ZN8valkyrie6kernel16DoublyLinkedListINS0_9UniquePtrINS0_4TaskEEEE9remove_ifENS0_8FunctionIFbRS4_EEE>:
   90d54:	a9bd7bfd 	stp	x29, x30, [sp, #-48]!
   90d58:	910003fd 	mov	x29, sp
   90d5c:	f9000fe0 	str	x0, [sp, #24]
   90d60:	f9000be1 	str	x1, [sp, #16]
   90d64:	f9400fe0 	ldr	x0, [sp, #24]
   90d68:	94000091 	bl	90fac <_ZNK8valkyrie6kernel9UniquePtrINS0_16DoublyLinkedListINS1_INS0_4TaskEEEE4NodeEEptEv>
   90d6c:	f9400400 	ldr	x0, [x0, #8]
   90d70:	f90017e0 	str	x0, [sp, #40]
   90d74:	f9400fe0 	ldr	x0, [sp, #24]
   90d78:	94000094 	bl	90fc8 <_ZNK8valkyrie6kernel9UniquePtrINS0_16DoublyLinkedListINS1_INS0_4TaskEEEE4NodeEE3getEv>
   90d7c:	aa0003e1 	mov	x1, x0
   90d80:	f94017e0 	ldr	x0, [sp, #40]
   90d84:	eb01001f 	cmp	x0, x1
   90d88:	1a9f07e0 	cset	w0, ne  // ne = any
   90d8c:	12001c00 	and	w0, w0, #0xff
   90d90:	7100001f 	cmp	w0, #0x0
   90d94:	54000220 	b.eq	90dd8 <_ZN8valkyrie6kernel16DoublyLinkedListINS0_9UniquePtrINS0_4TaskEEEE9remove_ifENS0_8FunctionIFbRS4_EEE+0x84>  // b.none
   90d98:	f94017e0 	ldr	x0, [sp, #40]
   90d9c:	91004000 	add	x0, x0, #0x10
   90da0:	aa0003e1 	mov	x1, x0
   90da4:	f9400be0 	ldr	x0, [sp, #16]
   90da8:	94000151 	bl	912ec <_ZNK8valkyrie6kernel8FunctionIFbRNS0_9UniquePtrINS0_4TaskEEEEEclES5_>
   90dac:	12001c00 	and	w0, w0, #0xff
   90db0:	7100001f 	cmp	w0, #0x0
   90db4:	540000a0 	b.eq	90dc8 <_ZN8valkyrie6kernel16DoublyLinkedListINS0_9UniquePtrINS0_4TaskEEEE9remove_ifENS0_8FunctionIFbRS4_EEE+0x74>  // b.none
   90db8:	f94017e1 	ldr	x1, [sp, #40]
   90dbc:	f9400fe0 	ldr	x0, [sp, #24]
   90dc0:	9400016b 	bl	9136c <_ZN8valkyrie6kernel16DoublyLinkedListINS0_9UniquePtrINS0_4TaskEEEE14list_del_entryEPNS5_4NodeE>
   90dc4:	14000005 	b	90dd8 <_ZN8valkyrie6kernel16DoublyLinkedListINS0_9UniquePtrINS0_4TaskEEEE9remove_ifENS0_8FunctionIFbRS4_EEE+0x84>
   90dc8:	f94017e0 	ldr	x0, [sp, #40]
   90dcc:	f9400400 	ldr	x0, [x0, #8]
   90dd0:	f90017e0 	str	x0, [sp, #40]
   90dd4:	17ffffe8 	b	90d74 <_ZN8valkyrie6kernel16DoublyLinkedListINS0_9UniquePtrINS0_4TaskEEEE9remove_ifENS0_8FunctionIFbRS4_EEE+0x20>
   90dd8:	a8c37bfd 	ldp	x29, x30, [sp], #48
   90ddc:	d65f03c0 	ret

Disassembly of section .text._ZNK8valkyrie6kernel16DoublyLinkedListINS0_9UniquePtrINS0_4TaskEEEE5emptyEv:

0000000000090de0 <_ZNK8valkyrie6kernel16DoublyLinkedListINS0_9UniquePtrINS0_4TaskEEEE5emptyEv>:
   90de0:	a9bd7bfd 	stp	x29, x30, [sp, #-48]!
   90de4:	910003fd 	mov	x29, sp
   90de8:	f9000bf3 	str	x19, [sp, #16]
   90dec:	f90017e0 	str	x0, [sp, #40]
   90df0:	f94017e0 	ldr	x0, [sp, #40]
   90df4:	9400006e 	bl	90fac <_ZNK8valkyrie6kernel9UniquePtrINS0_16DoublyLinkedListINS1_INS0_4TaskEEEE4NodeEEptEv>
   90df8:	f9400413 	ldr	x19, [x0, #8]
   90dfc:	f94017e0 	ldr	x0, [sp, #40]
   90e00:	94000072 	bl	90fc8 <_ZNK8valkyrie6kernel9UniquePtrINS0_16DoublyLinkedListINS1_INS0_4TaskEEEE4NodeEE3getEv>
   90e04:	eb00027f 	cmp	x19, x0
   90e08:	1a9f17e0 	cset	w0, eq  // eq = none
   90e0c:	12001c00 	and	w0, w0, #0xff
   90e10:	f9400bf3 	ldr	x19, [sp, #16]
   90e14:	a8c37bfd 	ldp	x29, x30, [sp], #48
   90e18:	d65f03c0 	ret

Disassembly of section .text._ZNK8valkyrie6kernel16DoublyLinkedListINS0_9UniquePtrINS0_4TaskEEEE4sizeEv:

0000000000090e1c <_ZNK8valkyrie6kernel16DoublyLinkedListINS0_9UniquePtrINS0_4TaskEEEE4sizeEv>:
   90e1c:	d10043ff 	sub	sp, sp, #0x10
   90e20:	f90007e0 	str	x0, [sp, #8]
   90e24:	f94007e0 	ldr	x0, [sp, #8]
   90e28:	f9400400 	ldr	x0, [x0, #8]
   90e2c:	910043ff 	add	sp, sp, #0x10
   90e30:	d65f03c0 	ret

Disassembly of section .text._ZN8valkyrie6kernel16DoublyLinkedListINS0_9UniquePtrINS0_4TaskEEEE9pop_frontEv:

0000000000090e34 <_ZN8valkyrie6kernel16DoublyLinkedListINS0_9UniquePtrINS0_4TaskEEEE9pop_frontEv>:
   90e34:	a9be7bfd 	stp	x29, x30, [sp, #-32]!
   90e38:	910003fd 	mov	x29, sp
   90e3c:	f9000fe0 	str	x0, [sp, #24]
   90e40:	f9400fe0 	ldr	x0, [sp, #24]
   90e44:	9400005a 	bl	90fac <_ZNK8valkyrie6kernel9UniquePtrINS0_16DoublyLinkedListINS1_INS0_4TaskEEEE4NodeEEptEv>
   90e48:	f9400400 	ldr	x0, [x0, #8]
   90e4c:	aa0003e1 	mov	x1, x0
   90e50:	f9400fe0 	ldr	x0, [sp, #24]
   90e54:	94000146 	bl	9136c <_ZN8valkyrie6kernel16DoublyLinkedListINS0_9UniquePtrINS0_4TaskEEEE14list_del_entryEPNS5_4NodeE>
   90e58:	d503201f 	nop
   90e5c:	a8c27bfd 	ldp	x29, x30, [sp], #32
   90e60:	d65f03c0 	ret

Disassembly of section .text._Z6printkIJmEEvPKcDpOT_:

0000000000090e64 <_Z6printkIJmEEvPKcDpOT_>:
   90e64:	a9bb7bfd 	stp	x29, x30, [sp, #-80]!
   90e68:	910003fd 	mov	x29, sp
   90e6c:	f9000fe0 	str	x0, [sp, #24]
   90e70:	f9000be1 	str	x1, [sp, #16]
   90e74:	d53be020 	mrs	x0, cntpct_el0
   90e78:	f90027e0 	str	x0, [sp, #72]
   90e7c:	d53be000 	mrs	x0, cntfrq_el0
   90e80:	f90023e0 	str	x0, [sp, #64]
   90e84:	f94027e1 	ldr	x1, [sp, #72]
   90e88:	aa0103e0 	mov	x0, x1
   90e8c:	d37be800 	lsl	x0, x0, #5
   90e90:	cb010000 	sub	x0, x0, x1
   90e94:	d37ef400 	lsl	x0, x0, #2
   90e98:	8b010000 	add	x0, x0, x1
   90e9c:	d37df000 	lsl	x0, x0, #3
   90ea0:	aa0003e1 	mov	x1, x0
   90ea4:	f94023e0 	ldr	x0, [sp, #64]
   90ea8:	9ac00820 	udiv	x0, x1, x0
   90eac:	f9001fe0 	str	x0, [sp, #56]
   90eb0:	f9401fe0 	ldr	x0, [sp, #56]
   90eb4:	d343fc01 	lsr	x1, x0, #3
   90eb8:	d29ef9e0 	mov	x0, #0xf7cf                	// #63439
   90ebc:	f2bc6a60 	movk	x0, #0xe353, lsl #16
   90ec0:	f2d374a0 	movk	x0, #0x9ba5, lsl #32
   90ec4:	f2e41880 	movk	x0, #0x20c4, lsl #48
   90ec8:	9bc07c20 	umulh	x0, x1, x0
   90ecc:	d344fc00 	lsr	x0, x0, #4
   90ed0:	f90017e0 	str	x0, [sp, #40]
   90ed4:	f9401fe2 	ldr	x2, [sp, #56]
   90ed8:	d343fc41 	lsr	x1, x2, #3
   90edc:	d29ef9e0 	mov	x0, #0xf7cf                	// #63439
   90ee0:	f2bc6a60 	movk	x0, #0xe353, lsl #16
   90ee4:	f2d374a0 	movk	x0, #0x9ba5, lsl #32
   90ee8:	f2e41880 	movk	x0, #0x20c4, lsl #48
   90eec:	9bc07c20 	umulh	x0, x1, x0
   90ef0:	d344fc01 	lsr	x1, x0, #4
   90ef4:	aa0103e0 	mov	x0, x1
   90ef8:	d37be800 	lsl	x0, x0, #5
   90efc:	cb010000 	sub	x0, x0, x1
   90f00:	d37ef400 	lsl	x0, x0, #2
   90f04:	8b010000 	add	x0, x0, x1
   90f08:	d37df000 	lsl	x0, x0, #3
   90f0c:	cb000041 	sub	x1, x2, x0
   90f10:	f9001be1 	str	x1, [sp, #48]
   90f14:	9100c3e1 	add	x1, sp, #0x30
   90f18:	9100a3e0 	add	x0, sp, #0x28
   90f1c:	aa0103e2 	mov	x2, x1
   90f20:	aa0003e1 	mov	x1, x0
   90f24:	b0ffffc0 	adrp	x0, 89000 <_ZN8valkyrie6kernel8FunctionIFvvEE12CallableImplIZNS0_16__run_unit_testsEvEUlvE_E4callEv+0x5e8>
   90f28:	9132a000 	add	x0, x0, #0xca8
   90f2c:	97fff446 	bl	8e044 <_Z6printfIJyyEEvPKcDpOT_>
   90f30:	f9400be1 	ldr	x1, [sp, #16]
   90f34:	f9400fe0 	ldr	x0, [sp, #24]
   90f38:	97fff8c7 	bl	8f254 <_Z6printfIJRmEEvPKcDpOT_>
   90f3c:	d503201f 	nop
   90f40:	a8c57bfd 	ldp	x29, x30, [sp], #80
   90f44:	d65f03c0 	ret

Disassembly of section .text._ZN8valkyrie6kernel16DoublyLinkedListINS0_9UniquePtrINS0_4TaskEEEE5clearEv:

0000000000090f48 <_ZN8valkyrie6kernel16DoublyLinkedListINS0_9UniquePtrINS0_4TaskEEEE5clearEv>:
   90f48:	a9be7bfd 	stp	x29, x30, [sp, #-32]!
   90f4c:	910003fd 	mov	x29, sp
   90f50:	f9000fe0 	str	x0, [sp, #24]
   90f54:	f9400fe0 	ldr	x0, [sp, #24]
   90f58:	97ffffa2 	bl	90de0 <_ZNK8valkyrie6kernel16DoublyLinkedListINS0_9UniquePtrINS0_4TaskEEEE5emptyEv>
   90f5c:	12001c00 	and	w0, w0, #0xff
   90f60:	52000000 	eor	w0, w0, #0x1
   90f64:	12001c00 	and	w0, w0, #0xff
   90f68:	7100001f 	cmp	w0, #0x0
   90f6c:	54000080 	b.eq	90f7c <_ZN8valkyrie6kernel16DoublyLinkedListINS0_9UniquePtrINS0_4TaskEEEE5clearEv+0x34>  // b.none
   90f70:	f9400fe0 	ldr	x0, [sp, #24]
   90f74:	97ffffb0 	bl	90e34 <_ZN8valkyrie6kernel16DoublyLinkedListINS0_9UniquePtrINS0_4TaskEEEE9pop_frontEv>
   90f78:	17fffff7 	b	90f54 <_ZN8valkyrie6kernel16DoublyLinkedListINS0_9UniquePtrINS0_4TaskEEEE5clearEv+0xc>
   90f7c:	d503201f 	nop
   90f80:	a8c27bfd 	ldp	x29, x30, [sp], #32
   90f84:	d65f03c0 	ret

Disassembly of section .text._ZN8valkyrie6kernel9UniquePtrINS0_16DoublyLinkedListINS1_INS0_4TaskEEEE4NodeEED2Ev:

0000000000090f88 <_ZN8valkyrie6kernel9UniquePtrINS0_16DoublyLinkedListINS1_INS0_4TaskEEEE4NodeEED1Ev>:
   90f88:	a9be7bfd 	stp	x29, x30, [sp, #-32]!
   90f8c:	910003fd 	mov	x29, sp
   90f90:	f9000fe0 	str	x0, [sp, #24]
   90f94:	d2800001 	mov	x1, #0x0                   	// #0
   90f98:	f9400fe0 	ldr	x0, [sp, #24]
   90f9c:	9400011e 	bl	91414 <_ZN8valkyrie6kernel9UniquePtrINS0_16DoublyLinkedListINS1_INS0_4TaskEEEE4NodeEE5resetEPS6_>
   90fa0:	d503201f 	nop
   90fa4:	a8c27bfd 	ldp	x29, x30, [sp], #32
   90fa8:	d65f03c0 	ret

Disassembly of section .text._ZNK8valkyrie6kernel9UniquePtrINS0_16DoublyLinkedListINS1_INS0_4TaskEEEE4NodeEEptEv:

0000000000090fac <_ZNK8valkyrie6kernel9UniquePtrINS0_16DoublyLinkedListINS1_INS0_4TaskEEEE4NodeEEptEv>:
   90fac:	a9be7bfd 	stp	x29, x30, [sp, #-32]!
   90fb0:	910003fd 	mov	x29, sp
   90fb4:	f9000fe0 	str	x0, [sp, #24]
   90fb8:	f9400fe0 	ldr	x0, [sp, #24]
   90fbc:	94000003 	bl	90fc8 <_ZNK8valkyrie6kernel9UniquePtrINS0_16DoublyLinkedListINS1_INS0_4TaskEEEE4NodeEE3getEv>
   90fc0:	a8c27bfd 	ldp	x29, x30, [sp], #32
   90fc4:	d65f03c0 	ret

Disassembly of section .text._ZNK8valkyrie6kernel9UniquePtrINS0_16DoublyLinkedListINS1_INS0_4TaskEEEE4NodeEE3getEv:

0000000000090fc8 <_ZNK8valkyrie6kernel9UniquePtrINS0_16DoublyLinkedListINS1_INS0_4TaskEEEE4NodeEE3getEv>:
   90fc8:	d10043ff 	sub	sp, sp, #0x10
   90fcc:	f90007e0 	str	x0, [sp, #8]
   90fd0:	f94007e0 	ldr	x0, [sp, #8]
   90fd4:	f9400000 	ldr	x0, [x0]
   90fd8:	910043ff 	add	sp, sp, #0x10
   90fdc:	d65f03c0 	ret

Disassembly of section .text._ZN8valkyrie6kernel11make_uniqueINS0_16DoublyLinkedListINS0_9UniquePtrINS0_4TaskEEEE4NodeEJEEENS0_9_UniqueIfIT_E13_SingleObjectEDpOT0_:

0000000000090fe0 <_ZN8valkyrie6kernel11make_uniqueINS0_16DoublyLinkedListINS0_9UniquePtrINS0_4TaskEEEE4NodeEJEEENS0_9_UniqueIfIT_E13_SingleObjectEDpOT0_>:
   90fe0:	a9be7bfd 	stp	x29, x30, [sp, #-32]!
   90fe4:	910003fd 	mov	x29, sp
   90fe8:	a90153f3 	stp	x19, x20, [sp, #16]
   90fec:	aa0803f3 	mov	x19, x8
   90ff0:	d2800300 	mov	x0, #0x18                  	// #24
   90ff4:	97ffc775 	bl	82dc8 <_Znwm>
   90ff8:	aa0003f4 	mov	x20, x0
   90ffc:	aa1403e0 	mov	x0, x20
   91000:	94000120 	bl	91480 <_ZN8valkyrie6kernel16DoublyLinkedListINS0_9UniquePtrINS0_4TaskEEEE4NodeC1Ev>
   91004:	aa1403e1 	mov	x1, x20
   91008:	aa1303e0 	mov	x0, x19
   9100c:	9400012c 	bl	914bc <_ZN8valkyrie6kernel9UniquePtrINS0_16DoublyLinkedListINS1_INS0_4TaskEEEE4NodeEEC1EPS6_>
   91010:	aa1303e0 	mov	x0, x19
   91014:	a94153f3 	ldp	x19, x20, [sp, #16]
   91018:	a8c27bfd 	ldp	x29, x30, [sp], #32
   9101c:	d65f03c0 	ret

Disassembly of section .text._ZN8valkyrie6kernel7forwardIPvEEOT_RNS0_16_RemoveReferenceIS3_E4TypeE:

0000000000091020 <_ZN8valkyrie6kernel7forwardIPvEEOT_RNS0_16_RemoveReferenceIS3_E4TypeE>:
   91020:	d10043ff 	sub	sp, sp, #0x10
   91024:	f90007e0 	str	x0, [sp, #8]
   91028:	f94007e0 	ldr	x0, [sp, #8]
   9102c:	910043ff 	add	sp, sp, #0x10
   91030:	d65f03c0 	ret

Disassembly of section .text._ZN8valkyrie6kernel7forwardIRA5_KcEEOT_RNS0_16_RemoveReferenceIS5_E4TypeE:

0000000000091034 <_ZN8valkyrie6kernel7forwardIRA5_KcEEOT_RNS0_16_RemoveReferenceIS5_E4TypeE>:
   91034:	d10043ff 	sub	sp, sp, #0x10
   91038:	f90007e0 	str	x0, [sp, #8]
   9103c:	f94007e0 	ldr	x0, [sp, #8]
   91040:	910043ff 	add	sp, sp, #0x10
   91044:	d65f03c0 	ret

Disassembly of section .text._Z6printfIJRPN8valkyrie6kernel4TaskERPKcRjEEvS6_DpOT_:

0000000000091048 <_Z6printfIJRPN8valkyrie6kernel4TaskERPKcRjEEvS6_DpOT_>:
   91048:	a9bd7bfd 	stp	x29, x30, [sp, #-48]!
   9104c:	910003fd 	mov	x29, sp
   91050:	f90017e0 	str	x0, [sp, #40]
   91054:	f90013e1 	str	x1, [sp, #32]
   91058:	f9000fe2 	str	x2, [sp, #24]
   9105c:	f9000be3 	str	x3, [sp, #16]
   91060:	f94013e0 	ldr	x0, [sp, #32]
   91064:	f9400001 	ldr	x1, [x0]
   91068:	f9400fe0 	ldr	x0, [sp, #24]
   9106c:	f9400002 	ldr	x2, [x0]
   91070:	f9400be0 	ldr	x0, [sp, #16]
   91074:	b9400000 	ldr	w0, [x0]
   91078:	2a0003e3 	mov	w3, w0
   9107c:	f94017e0 	ldr	x0, [sp, #40]
   91080:	97ffcf20 	bl	84d00 <_Z10tfp_printfPcz>
   91084:	d503201f 	nop
   91088:	a8c37bfd 	ldp	x29, x30, [sp], #48
   9108c:	d65f03c0 	ret

Disassembly of section .text._ZN8valkyrie6kernel7forwardINS0_9UniquePtrINS0_4TaskEEEEEOT_RNS0_16_RemoveReferenceIS5_E4TypeE:

0000000000091090 <_ZN8valkyrie6kernel7forwardINS0_9UniquePtrINS0_4TaskEEEEEOT_RNS0_16_RemoveReferenceIS5_E4TypeE>:
   91090:	d10043ff 	sub	sp, sp, #0x10
   91094:	f90007e0 	str	x0, [sp, #8]
   91098:	f94007e0 	ldr	x0, [sp, #8]
   9109c:	910043ff 	add	sp, sp, #0x10
   910a0:	d65f03c0 	ret

Disassembly of section .text._ZN8valkyrie6kernel16DoublyLinkedListINS0_9UniquePtrINS0_4TaskEEEE4NodeC2IS4_EEOT_:

00000000000910a4 <_ZN8valkyrie6kernel16DoublyLinkedListINS0_9UniquePtrINS0_4TaskEEEE4NodeC1IS4_EEOT_>:
   910a4:	a9bd7bfd 	stp	x29, x30, [sp, #-48]!
   910a8:	910003fd 	mov	x29, sp
   910ac:	f9000bf3 	str	x19, [sp, #16]
   910b0:	f90017e0 	str	x0, [sp, #40]
   910b4:	f90013e1 	str	x1, [sp, #32]
   910b8:	f94017e0 	ldr	x0, [sp, #40]
   910bc:	f900001f 	str	xzr, [x0]
   910c0:	f94017e0 	ldr	x0, [sp, #40]
   910c4:	f900041f 	str	xzr, [x0, #8]
   910c8:	f94017e0 	ldr	x0, [sp, #40]
   910cc:	91004013 	add	x19, x0, #0x10
   910d0:	f94013e0 	ldr	x0, [sp, #32]
   910d4:	97ffffef 	bl	91090 <_ZN8valkyrie6kernel7forwardINS0_9UniquePtrINS0_4TaskEEEEEOT_RNS0_16_RemoveReferenceIS5_E4TypeE>
   910d8:	aa0003e1 	mov	x1, x0
   910dc:	aa1303e0 	mov	x0, x19
   910e0:	97fffc75 	bl	902b4 <_ZN8valkyrie6kernel9UniquePtrINS0_4TaskEEC1EOS3_>
   910e4:	d503201f 	nop
   910e8:	f9400bf3 	ldr	x19, [sp, #16]
   910ec:	a8c37bfd 	ldp	x29, x30, [sp], #48
   910f0:	d65f03c0 	ret

Disassembly of section .text._ZN8valkyrie6kernel16DoublyLinkedListINS0_9UniquePtrINS0_4TaskEEEE8list_addEPNS5_4NodeES7_S7_:

00000000000910f4 <_ZN8valkyrie6kernel16DoublyLinkedListINS0_9UniquePtrINS0_4TaskEEEE8list_addEPNS5_4NodeES7_S7_>:
   910f4:	a9bd7bfd 	stp	x29, x30, [sp, #-48]!
   910f8:	910003fd 	mov	x29, sp
   910fc:	f90017e0 	str	x0, [sp, #40]
   91100:	f90013e1 	str	x1, [sp, #32]
   91104:	f9000fe2 	str	x2, [sp, #24]
   91108:	f9000be3 	str	x3, [sp, #16]
   9110c:	f9400be3 	ldr	x3, [sp, #16]
   91110:	f9400fe2 	ldr	x2, [sp, #24]
   91114:	f94013e1 	ldr	x1, [sp, #32]
   91118:	f94017e0 	ldr	x0, [sp, #40]
   9111c:	940000f1 	bl	914e0 <_ZN8valkyrie6kernel16DoublyLinkedListINS0_9UniquePtrINS0_4TaskEEEE17is_list_add_validEPKNS5_4NodeES8_S8_>
   91120:	12001c00 	and	w0, w0, #0xff
   91124:	52000000 	eor	w0, w0, #0x1
   91128:	12001c00 	and	w0, w0, #0xff
   9112c:	7100001f 	cmp	w0, #0x0
   91130:	54000261 	b.ne	9117c <_ZN8valkyrie6kernel16DoublyLinkedListINS0_9UniquePtrINS0_4TaskEEEE8list_addEPNS5_4NodeES7_S7_+0x88>  // b.any
   91134:	f9400be0 	ldr	x0, [sp, #16]
   91138:	f94013e1 	ldr	x1, [sp, #32]
   9113c:	f9000001 	str	x1, [x0]
   91140:	f94013e0 	ldr	x0, [sp, #32]
   91144:	f9400be1 	ldr	x1, [sp, #16]
   91148:	f9000401 	str	x1, [x0, #8]
   9114c:	f94013e0 	ldr	x0, [sp, #32]
   91150:	f9400fe1 	ldr	x1, [sp, #24]
   91154:	f9000001 	str	x1, [x0]
   91158:	f9400fe0 	ldr	x0, [sp, #24]
   9115c:	f94013e1 	ldr	x1, [sp, #32]
   91160:	f9000401 	str	x1, [x0, #8]
   91164:	f94017e0 	ldr	x0, [sp, #40]
   91168:	f9400400 	ldr	x0, [x0, #8]
   9116c:	91000401 	add	x1, x0, #0x1
   91170:	f94017e0 	ldr	x0, [sp, #40]
   91174:	f9000401 	str	x1, [x0, #8]
   91178:	14000002 	b	91180 <_ZN8valkyrie6kernel16DoublyLinkedListINS0_9UniquePtrINS0_4TaskEEEE8list_addEPNS5_4NodeES7_S7_+0x8c>
   9117c:	d503201f 	nop
   91180:	a8c37bfd 	ldp	x29, x30, [sp], #48
   91184:	d65f03c0 	ret

Disassembly of section .text._Z6printfIJRPKN8valkyrie6kernel4TaskERPKcRjEEvS7_DpOT_:

0000000000091188 <_Z6printfIJRPKN8valkyrie6kernel4TaskERPKcRjEEvS7_DpOT_>:
   91188:	a9bd7bfd 	stp	x29, x30, [sp, #-48]!
   9118c:	910003fd 	mov	x29, sp
   91190:	f90017e0 	str	x0, [sp, #40]
   91194:	f90013e1 	str	x1, [sp, #32]
   91198:	f9000fe2 	str	x2, [sp, #24]
   9119c:	f9000be3 	str	x3, [sp, #16]
   911a0:	f94013e0 	ldr	x0, [sp, #32]
   911a4:	f9400001 	ldr	x1, [x0]
   911a8:	f9400fe0 	ldr	x0, [sp, #24]
   911ac:	f9400002 	ldr	x2, [x0]
   911b0:	f9400be0 	ldr	x0, [sp, #16]
   911b4:	b9400000 	ldr	w0, [x0]
   911b8:	2a0003e3 	mov	w3, w0
   911bc:	f94017e0 	ldr	x0, [sp, #40]
   911c0:	97ffced0 	bl	84d00 <_Z10tfp_printfPcz>
   911c4:	d503201f 	nop
   911c8:	a8c37bfd 	ldp	x29, x30, [sp], #48
   911cc:	d65f03c0 	ret

Disassembly of section .text._ZN8valkyrie6kernel9SharedPtrINS0_8FunctionIFbRNS0_9UniquePtrINS0_4TaskEEEEE13CallableIfaceEEC2Ev:

00000000000911d0 <_ZN8valkyrie6kernel9SharedPtrINS0_8FunctionIFbRNS0_9UniquePtrINS0_4TaskEEEEE13CallableIfaceEEC1Ev>:
   911d0:	d10043ff 	sub	sp, sp, #0x10
   911d4:	f90007e0 	str	x0, [sp, #8]
   911d8:	f94007e0 	ldr	x0, [sp, #8]
   911dc:	f900001f 	str	xzr, [x0]
   911e0:	f94007e0 	ldr	x0, [sp, #8]
   911e4:	f900041f 	str	xzr, [x0, #8]
   911e8:	d503201f 	nop
   911ec:	910043ff 	add	sp, sp, #0x10
   911f0:	d65f03c0 	ret

Disassembly of section .text._ZN8valkyrie6kernel8FunctionIFbRNS0_9UniquePtrINS0_4TaskEEEEE13CallableIfaceD2Ev:

00000000000911f4 <_ZN8valkyrie6kernel8FunctionIFbRNS0_9UniquePtrINS0_4TaskEEEEE13CallableIfaceD1Ev>:
   911f4:	d10043ff 	sub	sp, sp, #0x10
   911f8:	f90007e0 	str	x0, [sp, #8]
   911fc:	d0000000 	adrp	x0, 93000 <_ZTVN8valkyrie6kernel8FunctionIFbRNS0_9UniquePtrINS0_4TaskEEEEE12CallableImplIZNS0_13TaskScheduler11remove_taskERKS3_EUlRT_E_EE+0x18>
   91200:	9101c001 	add	x1, x0, #0x70
   91204:	f94007e0 	ldr	x0, [sp, #8]
   91208:	f9000001 	str	x1, [x0]
   9120c:	d503201f 	nop
   91210:	910043ff 	add	sp, sp, #0x10
   91214:	d65f03c0 	ret

Disassembly of section .text._ZN8valkyrie6kernel8FunctionIFbRNS0_9UniquePtrINS0_4TaskEEEEE13CallableIfaceD0Ev:

0000000000091218 <_ZN8valkyrie6kernel8FunctionIFbRNS0_9UniquePtrINS0_4TaskEEEEE13CallableIfaceD0Ev>:
   91218:	a9be7bfd 	stp	x29, x30, [sp, #-32]!
   9121c:	910003fd 	mov	x29, sp
   91220:	f9000fe0 	str	x0, [sp, #24]
   91224:	f9400fe0 	ldr	x0, [sp, #24]
   91228:	97fffff3 	bl	911f4 <_ZN8valkyrie6kernel8FunctionIFbRNS0_9UniquePtrINS0_4TaskEEEEE13CallableIfaceD1Ev>
   9122c:	d2800101 	mov	x1, #0x8                   	// #8
   91230:	f9400fe0 	ldr	x0, [sp, #24]
   91234:	97ffc703 	bl	82e40 <_ZdlPvm>
   91238:	a8c27bfd 	ldp	x29, x30, [sp], #32
   9123c:	d65f03c0 	ret

Disassembly of section .text._ZN8valkyrie6kernel9SharedPtrINS0_8FunctionIFbRNS0_9UniquePtrINS0_4TaskEEEEE13CallableIfaceEE13dec_use_countEv:

0000000000091240 <_ZN8valkyrie6kernel9SharedPtrINS0_8FunctionIFbRNS0_9UniquePtrINS0_4TaskEEEEE13CallableIfaceEE13dec_use_countEv>:
   91240:	a9be7bfd 	stp	x29, x30, [sp, #-32]!
   91244:	910003fd 	mov	x29, sp
   91248:	f9000fe0 	str	x0, [sp, #24]
   9124c:	f9400fe0 	ldr	x0, [sp, #24]
   91250:	940000da 	bl	915b8 <_ZNK8valkyrie6kernel9SharedPtrINS0_8FunctionIFbRNS0_9UniquePtrINS0_4TaskEEEEE13CallableIfaceEE8is_validEv>
   91254:	12001c00 	and	w0, w0, #0xff
   91258:	7100001f 	cmp	w0, #0x0
   9125c:	54000420 	b.eq	912e0 <_ZN8valkyrie6kernel9SharedPtrINS0_8FunctionIFbRNS0_9UniquePtrINS0_4TaskEEEEE13CallableIfaceEE13dec_use_countEv+0xa0>  // b.none
   91260:	f9400fe0 	ldr	x0, [sp, #24]
   91264:	f9400000 	ldr	x0, [x0]
   91268:	b9400801 	ldr	w1, [x0, #8]
   9126c:	51000421 	sub	w1, w1, #0x1
   91270:	b9000801 	str	w1, [x0, #8]
   91274:	f9400fe0 	ldr	x0, [sp, #24]
   91278:	940000e0 	bl	915f8 <_ZNK8valkyrie6kernel9SharedPtrINS0_8FunctionIFbRNS0_9UniquePtrINS0_4TaskEEEEE13CallableIfaceEE9use_countEv>
   9127c:	7100001f 	cmp	w0, #0x0
   91280:	1a9f17e0 	cset	w0, eq  // eq = none
   91284:	12001c00 	and	w0, w0, #0xff
   91288:	7100001f 	cmp	w0, #0x0
   9128c:	540002a0 	b.eq	912e0 <_ZN8valkyrie6kernel9SharedPtrINS0_8FunctionIFbRNS0_9UniquePtrINS0_4TaskEEEEE13CallableIfaceEE13dec_use_countEv+0xa0>  // b.none
   91290:	f9400fe0 	ldr	x0, [sp, #24]
   91294:	f9400000 	ldr	x0, [x0]
   91298:	f9400000 	ldr	x0, [x0]
   9129c:	f100001f 	cmp	x0, #0x0
   912a0:	540000a0 	b.eq	912b4 <_ZN8valkyrie6kernel9SharedPtrINS0_8FunctionIFbRNS0_9UniquePtrINS0_4TaskEEEEE13CallableIfaceEE13dec_use_countEv+0x74>  // b.none
   912a4:	f9400001 	ldr	x1, [x0]
   912a8:	91002021 	add	x1, x1, #0x8
   912ac:	f9400021 	ldr	x1, [x1]
   912b0:	d63f0020 	blr	x1
   912b4:	f9400fe0 	ldr	x0, [sp, #24]
   912b8:	f9400000 	ldr	x0, [x0]
   912bc:	f100001f 	cmp	x0, #0x0
   912c0:	54000060 	b.eq	912cc <_ZN8valkyrie6kernel9SharedPtrINS0_8FunctionIFbRNS0_9UniquePtrINS0_4TaskEEEEE13CallableIfaceEE13dec_use_countEv+0x8c>  // b.none
   912c4:	d2800201 	mov	x1, #0x10                  	// #16
   912c8:	97ffc6de 	bl	82e40 <_ZdlPvm>
   912cc:	f9400fe0 	ldr	x0, [sp, #24]
   912d0:	f9400000 	ldr	x0, [x0]
   912d4:	f900001f 	str	xzr, [x0]
   912d8:	f9400fe0 	ldr	x0, [sp, #24]
   912dc:	f900001f 	str	xzr, [x0]
   912e0:	d503201f 	nop
   912e4:	a8c27bfd 	ldp	x29, x30, [sp], #32
   912e8:	d65f03c0 	ret

Disassembly of section .text._ZNK8valkyrie6kernel8FunctionIFbRNS0_9UniquePtrINS0_4TaskEEEEEclES5_:

00000000000912ec <_ZNK8valkyrie6kernel8FunctionIFbRNS0_9UniquePtrINS0_4TaskEEEEEclES5_>:
   912ec:	a9bd7bfd 	stp	x29, x30, [sp, #-48]!
   912f0:	910003fd 	mov	x29, sp
   912f4:	f9000fe0 	str	x0, [sp, #24]
   912f8:	f9000be1 	str	x1, [sp, #16]
   912fc:	f9400fe0 	ldr	x0, [sp, #24]
   91300:	940000cd 	bl	91634 <_ZNK8valkyrie6kernel9SharedPtrINS0_8FunctionIFbRNS0_9UniquePtrINS0_4TaskEEEEE13CallableIfaceEEcvbEv>
   91304:	12001c00 	and	w0, w0, #0xff
   91308:	52000000 	eor	w0, w0, #0x1
   9130c:	12001c00 	and	w0, w0, #0xff
   91310:	92401c00 	and	x0, x0, #0xff
   91314:	f100001f 	cmp	x0, #0x0
   91318:	1a9f07e0 	cset	w0, ne  // ne = any
   9131c:	12001c00 	and	w0, w0, #0xff
   91320:	7100001f 	cmp	w0, #0x0
   91324:	54000100 	b.eq	91344 <_ZNK8valkyrie6kernel8FunctionIFbRNS0_9UniquePtrINS0_4TaskEEEEEclES5_+0x58>  // b.none
   91328:	f9400fe0 	ldr	x0, [sp, #24]
   9132c:	f90017e0 	str	x0, [sp, #40]
   91330:	9100a3e0 	add	x0, sp, #0x28
   91334:	aa0003e1 	mov	x1, x0
   91338:	90ffffc0 	adrp	x0, 89000 <_ZN8valkyrie6kernel8FunctionIFvvEE12CallableImplIZNS0_16__run_unit_testsEvEUlvE_E4callEv+0x5e8>
   9133c:	9132e000 	add	x0, x0, #0xcb8
   91340:	940000c7 	bl	9165c <_Z6printkIJPKN8valkyrie6kernel8FunctionIFbRNS1_9UniquePtrINS1_4TaskEEEEEEEEvPKcDpOT_>
   91344:	f9400fe0 	ldr	x0, [sp, #24]
   91348:	940000fe 	bl	91740 <_ZNK8valkyrie6kernel9SharedPtrINS0_8FunctionIFbRNS0_9UniquePtrINS0_4TaskEEEEE13CallableIfaceEEptEv>
   9134c:	f9400001 	ldr	x1, [x0]
   91350:	91004021 	add	x1, x1, #0x10
   91354:	f9400022 	ldr	x2, [x1]
   91358:	f9400be1 	ldr	x1, [sp, #16]
   9135c:	d63f0040 	blr	x2
   91360:	12001c00 	and	w0, w0, #0xff
   91364:	a8c37bfd 	ldp	x29, x30, [sp], #48
   91368:	d65f03c0 	ret

Disassembly of section .text._ZN8valkyrie6kernel16DoublyLinkedListINS0_9UniquePtrINS0_4TaskEEEE14list_del_entryEPNS5_4NodeE:

000000000009136c <_ZN8valkyrie6kernel16DoublyLinkedListINS0_9UniquePtrINS0_4TaskEEEE14list_del_entryEPNS5_4NodeE>:
   9136c:	a9bd7bfd 	stp	x29, x30, [sp, #-48]!
   91370:	910003fd 	mov	x29, sp
   91374:	f9000bf3 	str	x19, [sp, #16]
   91378:	f90017e0 	str	x0, [sp, #40]
   9137c:	f90013e1 	str	x1, [sp, #32]
   91380:	f94013e1 	ldr	x1, [sp, #32]
   91384:	f94017e0 	ldr	x0, [sp, #40]
   91388:	940000f5 	bl	9175c <_ZN8valkyrie6kernel16DoublyLinkedListINS0_9UniquePtrINS0_4TaskEEEE23is_list_del_entry_validEPKNS5_4NodeE>
   9138c:	12001c00 	and	w0, w0, #0xff
   91390:	52000000 	eor	w0, w0, #0x1
   91394:	12001c00 	and	w0, w0, #0xff
   91398:	7100001f 	cmp	w0, #0x0
   9139c:	54000341 	b.ne	91404 <_ZN8valkyrie6kernel16DoublyLinkedListINS0_9UniquePtrINS0_4TaskEEEE14list_del_entryEPNS5_4NodeE+0x98>  // b.any
   913a0:	f94013e0 	ldr	x0, [sp, #32]
   913a4:	f9400001 	ldr	x1, [x0]
   913a8:	f94013e0 	ldr	x0, [sp, #32]
   913ac:	f9400400 	ldr	x0, [x0, #8]
   913b0:	aa0003e2 	mov	x2, x0
   913b4:	f94017e0 	ldr	x0, [sp, #40]
   913b8:	940000fd 	bl	917ac <_ZN8valkyrie6kernel16DoublyLinkedListINS0_9UniquePtrINS0_4TaskEEEE8list_delEPNS5_4NodeES7_>
   913bc:	f94013e0 	ldr	x0, [sp, #32]
   913c0:	f900001f 	str	xzr, [x0]
   913c4:	f94013e0 	ldr	x0, [sp, #32]
   913c8:	f900041f 	str	xzr, [x0, #8]
   913cc:	f94013f3 	ldr	x19, [sp, #32]
   913d0:	f100027f 	cmp	x19, #0x0
   913d4:	540000c0 	b.eq	913ec <_ZN8valkyrie6kernel16DoublyLinkedListINS0_9UniquePtrINS0_4TaskEEEE14list_del_entryEPNS5_4NodeE+0x80>  // b.none
   913d8:	aa1303e0 	mov	x0, x19
   913dc:	97fffd44 	bl	908ec <_ZN8valkyrie6kernel16DoublyLinkedListINS0_9UniquePtrINS0_4TaskEEEE4NodeD1Ev>
   913e0:	d2800301 	mov	x1, #0x18                  	// #24
   913e4:	aa1303e0 	mov	x0, x19
   913e8:	97ffc696 	bl	82e40 <_ZdlPvm>
   913ec:	f94017e0 	ldr	x0, [sp, #40]
   913f0:	f9400400 	ldr	x0, [x0, #8]
   913f4:	d1000401 	sub	x1, x0, #0x1
   913f8:	f94017e0 	ldr	x0, [sp, #40]
   913fc:	f9000401 	str	x1, [x0, #8]
   91400:	14000002 	b	91408 <_ZN8valkyrie6kernel16DoublyLinkedListINS0_9UniquePtrINS0_4TaskEEEE14list_del_entryEPNS5_4NodeE+0x9c>
   91404:	d503201f 	nop
   91408:	f9400bf3 	ldr	x19, [sp, #16]
   9140c:	a8c37bfd 	ldp	x29, x30, [sp], #48
   91410:	d65f03c0 	ret

Disassembly of section .text._ZN8valkyrie6kernel9UniquePtrINS0_16DoublyLinkedListINS1_INS0_4TaskEEEE4NodeEE5resetEPS6_:

0000000000091414 <_ZN8valkyrie6kernel9UniquePtrINS0_16DoublyLinkedListINS1_INS0_4TaskEEEE4NodeEE5resetEPS6_>:
   91414:	a9bd7bfd 	stp	x29, x30, [sp, #-48]!
   91418:	910003fd 	mov	x29, sp
   9141c:	f9000bf3 	str	x19, [sp, #16]
   91420:	f90017e0 	str	x0, [sp, #40]
   91424:	f90013e1 	str	x1, [sp, #32]
   91428:	f94017e0 	ldr	x0, [sp, #40]
   9142c:	f9400000 	ldr	x0, [x0]
   91430:	f94013e1 	ldr	x1, [sp, #32]
   91434:	eb00003f 	cmp	x1, x0
   91438:	540001c0 	b.eq	91470 <_ZN8valkyrie6kernel9UniquePtrINS0_16DoublyLinkedListINS1_INS0_4TaskEEEE4NodeEE5resetEPS6_+0x5c>  // b.none
   9143c:	f94017e0 	ldr	x0, [sp, #40]
   91440:	f9400013 	ldr	x19, [x0]
   91444:	f100027f 	cmp	x19, #0x0
   91448:	540000c0 	b.eq	91460 <_ZN8valkyrie6kernel9UniquePtrINS0_16DoublyLinkedListINS1_INS0_4TaskEEEE4NodeEE5resetEPS6_+0x4c>  // b.none
   9144c:	aa1303e0 	mov	x0, x19
   91450:	97fffd27 	bl	908ec <_ZN8valkyrie6kernel16DoublyLinkedListINS0_9UniquePtrINS0_4TaskEEEE4NodeD1Ev>
   91454:	d2800301 	mov	x1, #0x18                  	// #24
   91458:	aa1303e0 	mov	x0, x19
   9145c:	97ffc679 	bl	82e40 <_ZdlPvm>
   91460:	f94017e0 	ldr	x0, [sp, #40]
   91464:	f94013e1 	ldr	x1, [sp, #32]
   91468:	f9000001 	str	x1, [x0]
   9146c:	14000002 	b	91474 <_ZN8valkyrie6kernel9UniquePtrINS0_16DoublyLinkedListINS1_INS0_4TaskEEEE4NodeEE5resetEPS6_+0x60>
   91470:	d503201f 	nop
   91474:	f9400bf3 	ldr	x19, [sp, #16]
   91478:	a8c37bfd 	ldp	x29, x30, [sp], #48
   9147c:	d65f03c0 	ret

Disassembly of section .text._ZN8valkyrie6kernel16DoublyLinkedListINS0_9UniquePtrINS0_4TaskEEEE4NodeC2Ev:

0000000000091480 <_ZN8valkyrie6kernel16DoublyLinkedListINS0_9UniquePtrINS0_4TaskEEEE4NodeC1Ev>:
   91480:	a9be7bfd 	stp	x29, x30, [sp, #-32]!
   91484:	910003fd 	mov	x29, sp
   91488:	f9000fe0 	str	x0, [sp, #24]
   9148c:	f9400fe0 	ldr	x0, [sp, #24]
   91490:	f9400fe1 	ldr	x1, [sp, #24]
   91494:	f9000001 	str	x1, [x0]
   91498:	f9400fe0 	ldr	x0, [sp, #24]
   9149c:	f9400fe1 	ldr	x1, [sp, #24]
   914a0:	f9000401 	str	x1, [x0, #8]
   914a4:	f9400fe0 	ldr	x0, [sp, #24]
   914a8:	91004000 	add	x0, x0, #0x10
   914ac:	97fffe1b 	bl	90d18 <_ZN8valkyrie6kernel9UniquePtrINS0_4TaskEEC1Ev>
   914b0:	d503201f 	nop
   914b4:	a8c27bfd 	ldp	x29, x30, [sp], #32
   914b8:	d65f03c0 	ret

Disassembly of section .text._ZN8valkyrie6kernel9UniquePtrINS0_16DoublyLinkedListINS1_INS0_4TaskEEEE4NodeEEC2EPS6_:

00000000000914bc <_ZN8valkyrie6kernel9UniquePtrINS0_16DoublyLinkedListINS1_INS0_4TaskEEEE4NodeEEC1EPS6_>:
   914bc:	d10043ff 	sub	sp, sp, #0x10
   914c0:	f90007e0 	str	x0, [sp, #8]
   914c4:	f90003e1 	str	x1, [sp]
   914c8:	f94007e0 	ldr	x0, [sp, #8]
   914cc:	f94003e1 	ldr	x1, [sp]
   914d0:	f9000001 	str	x1, [x0]
   914d4:	d503201f 	nop
   914d8:	910043ff 	add	sp, sp, #0x10
   914dc:	d65f03c0 	ret

Disassembly of section .text._ZN8valkyrie6kernel16DoublyLinkedListINS0_9UniquePtrINS0_4TaskEEEE17is_list_add_validEPKNS5_4NodeES8_S8_:

00000000000914e0 <_ZN8valkyrie6kernel16DoublyLinkedListINS0_9UniquePtrINS0_4TaskEEEE17is_list_add_validEPKNS5_4NodeES8_S8_>:
   914e0:	d10083ff 	sub	sp, sp, #0x20
   914e4:	f9000fe0 	str	x0, [sp, #24]
   914e8:	f9000be1 	str	x1, [sp, #16]
   914ec:	f90007e2 	str	x2, [sp, #8]
   914f0:	f90003e3 	str	x3, [sp]
   914f4:	f94003e0 	ldr	x0, [sp]
   914f8:	f9400000 	ldr	x0, [x0]
   914fc:	f94007e1 	ldr	x1, [sp, #8]
   91500:	eb00003f 	cmp	x1, x0
   91504:	54000201 	b.ne	91544 <_ZN8valkyrie6kernel16DoublyLinkedListINS0_9UniquePtrINS0_4TaskEEEE17is_list_add_validEPKNS5_4NodeES8_S8_+0x64>  // b.any
   91508:	f94007e0 	ldr	x0, [sp, #8]
   9150c:	f9400400 	ldr	x0, [x0, #8]
   91510:	f94003e1 	ldr	x1, [sp]
   91514:	eb00003f 	cmp	x1, x0
   91518:	54000161 	b.ne	91544 <_ZN8valkyrie6kernel16DoublyLinkedListINS0_9UniquePtrINS0_4TaskEEEE17is_list_add_validEPKNS5_4NodeES8_S8_+0x64>  // b.any
   9151c:	f9400be1 	ldr	x1, [sp, #16]
   91520:	f94007e0 	ldr	x0, [sp, #8]
   91524:	eb00003f 	cmp	x1, x0
   91528:	540000e0 	b.eq	91544 <_ZN8valkyrie6kernel16DoublyLinkedListINS0_9UniquePtrINS0_4TaskEEEE17is_list_add_validEPKNS5_4NodeES8_S8_+0x64>  // b.none
   9152c:	f9400be1 	ldr	x1, [sp, #16]
   91530:	f94003e0 	ldr	x0, [sp]
   91534:	eb00003f 	cmp	x1, x0
   91538:	54000060 	b.eq	91544 <_ZN8valkyrie6kernel16DoublyLinkedListINS0_9UniquePtrINS0_4TaskEEEE17is_list_add_validEPKNS5_4NodeES8_S8_+0x64>  // b.none
   9153c:	52800020 	mov	w0, #0x1                   	// #1
   91540:	14000002 	b	91548 <_ZN8valkyrie6kernel16DoublyLinkedListINS0_9UniquePtrINS0_4TaskEEEE17is_list_add_validEPKNS5_4NodeES8_S8_+0x68>
   91544:	52800000 	mov	w0, #0x0                   	// #0
   91548:	910083ff 	add	sp, sp, #0x20
   9154c:	d65f03c0 	ret

Disassembly of section .text._ZN8valkyrie6kernel9SharedPtrINS0_8FunctionIFbRNS0_9UniquePtrINS0_4TaskEEEEE13CallableIfaceEEaSEOSA_:

0000000000091550 <_ZN8valkyrie6kernel9SharedPtrINS0_8FunctionIFbRNS0_9UniquePtrINS0_4TaskEEEEE13CallableIfaceEEaSEOSA_>:
   91550:	a9be7bfd 	stp	x29, x30, [sp, #-32]!
   91554:	910003fd 	mov	x29, sp
   91558:	f9000fe0 	str	x0, [sp, #24]
   9155c:	f9000be1 	str	x1, [sp, #16]
   91560:	f9400fe0 	ldr	x0, [sp, #24]
   91564:	94000015 	bl	915b8 <_ZNK8valkyrie6kernel9SharedPtrINS0_8FunctionIFbRNS0_9UniquePtrINS0_4TaskEEEEE13CallableIfaceEE8is_validEv>
   91568:	12001c00 	and	w0, w0, #0xff
   9156c:	7100001f 	cmp	w0, #0x0
   91570:	54000060 	b.eq	9157c <_ZN8valkyrie6kernel9SharedPtrINS0_8FunctionIFbRNS0_9UniquePtrINS0_4TaskEEEEE13CallableIfaceEEaSEOSA_+0x2c>  // b.none
   91574:	f9400fe0 	ldr	x0, [sp, #24]
   91578:	97ffff32 	bl	91240 <_ZN8valkyrie6kernel9SharedPtrINS0_8FunctionIFbRNS0_9UniquePtrINS0_4TaskEEEEE13CallableIfaceEE13dec_use_countEv>
   9157c:	f9400be0 	ldr	x0, [sp, #16]
   91580:	f9400001 	ldr	x1, [x0]
   91584:	f9400fe0 	ldr	x0, [sp, #24]
   91588:	f9000001 	str	x1, [x0]
   9158c:	f9400be0 	ldr	x0, [sp, #16]
   91590:	f9400401 	ldr	x1, [x0, #8]
   91594:	f9400fe0 	ldr	x0, [sp, #24]
   91598:	f9000401 	str	x1, [x0, #8]
   9159c:	f9400be0 	ldr	x0, [sp, #16]
   915a0:	f900001f 	str	xzr, [x0]
   915a4:	f9400be0 	ldr	x0, [sp, #16]
   915a8:	f900041f 	str	xzr, [x0, #8]
   915ac:	f9400fe0 	ldr	x0, [sp, #24]
   915b0:	a8c27bfd 	ldp	x29, x30, [sp], #32
   915b4:	d65f03c0 	ret

Disassembly of section .text._ZNK8valkyrie6kernel9SharedPtrINS0_8FunctionIFbRNS0_9UniquePtrINS0_4TaskEEEEE13CallableIfaceEE8is_validEv:

00000000000915b8 <_ZNK8valkyrie6kernel9SharedPtrINS0_8FunctionIFbRNS0_9UniquePtrINS0_4TaskEEEEE13CallableIfaceEE8is_validEv>:
   915b8:	d10043ff 	sub	sp, sp, #0x10
   915bc:	f90007e0 	str	x0, [sp, #8]
   915c0:	f94007e0 	ldr	x0, [sp, #8]
   915c4:	f9400000 	ldr	x0, [x0]
   915c8:	f100001f 	cmp	x0, #0x0
   915cc:	54000100 	b.eq	915ec <_ZNK8valkyrie6kernel9SharedPtrINS0_8FunctionIFbRNS0_9UniquePtrINS0_4TaskEEEEE13CallableIfaceEE8is_validEv+0x34>  // b.none
   915d0:	f94007e0 	ldr	x0, [sp, #8]
   915d4:	f9400000 	ldr	x0, [x0]
   915d8:	b9400800 	ldr	w0, [x0, #8]
   915dc:	7100001f 	cmp	w0, #0x0
   915e0:	5400006d 	b.le	915ec <_ZNK8valkyrie6kernel9SharedPtrINS0_8FunctionIFbRNS0_9UniquePtrINS0_4TaskEEEEE13CallableIfaceEE8is_validEv+0x34>
   915e4:	52800020 	mov	w0, #0x1                   	// #1
   915e8:	14000002 	b	915f0 <_ZNK8valkyrie6kernel9SharedPtrINS0_8FunctionIFbRNS0_9UniquePtrINS0_4TaskEEEEE13CallableIfaceEE8is_validEv+0x38>
   915ec:	52800000 	mov	w0, #0x0                   	// #0
   915f0:	910043ff 	add	sp, sp, #0x10
   915f4:	d65f03c0 	ret

Disassembly of section .text._ZNK8valkyrie6kernel9SharedPtrINS0_8FunctionIFbRNS0_9UniquePtrINS0_4TaskEEEEE13CallableIfaceEE9use_countEv:

00000000000915f8 <_ZNK8valkyrie6kernel9SharedPtrINS0_8FunctionIFbRNS0_9UniquePtrINS0_4TaskEEEEE13CallableIfaceEE9use_countEv>:
   915f8:	a9be7bfd 	stp	x29, x30, [sp, #-32]!
   915fc:	910003fd 	mov	x29, sp
   91600:	f9000fe0 	str	x0, [sp, #24]
   91604:	f9400fe0 	ldr	x0, [sp, #24]
   91608:	97ffffec 	bl	915b8 <_ZNK8valkyrie6kernel9SharedPtrINS0_8FunctionIFbRNS0_9UniquePtrINS0_4TaskEEEEE13CallableIfaceEE8is_validEv>
   9160c:	12001c00 	and	w0, w0, #0xff
   91610:	7100001f 	cmp	w0, #0x0
   91614:	540000a0 	b.eq	91628 <_ZNK8valkyrie6kernel9SharedPtrINS0_8FunctionIFbRNS0_9UniquePtrINS0_4TaskEEEEE13CallableIfaceEE9use_countEv+0x30>  // b.none
   91618:	f9400fe0 	ldr	x0, [sp, #24]
   9161c:	f9400000 	ldr	x0, [x0]
   91620:	b9400800 	ldr	w0, [x0, #8]
   91624:	14000002 	b	9162c <_ZNK8valkyrie6kernel9SharedPtrINS0_8FunctionIFbRNS0_9UniquePtrINS0_4TaskEEEEE13CallableIfaceEE9use_countEv+0x34>
   91628:	52800000 	mov	w0, #0x0                   	// #0
   9162c:	a8c27bfd 	ldp	x29, x30, [sp], #32
   91630:	d65f03c0 	ret

Disassembly of section .text._ZNK8valkyrie6kernel9SharedPtrINS0_8FunctionIFbRNS0_9UniquePtrINS0_4TaskEEEEE13CallableIfaceEEcvbEv:

0000000000091634 <_ZNK8valkyrie6kernel9SharedPtrINS0_8FunctionIFbRNS0_9UniquePtrINS0_4TaskEEEEE13CallableIfaceEEcvbEv>:
   91634:	a9be7bfd 	stp	x29, x30, [sp, #-32]!
   91638:	910003fd 	mov	x29, sp
   9163c:	f9000fe0 	str	x0, [sp, #24]
   91640:	f9400fe0 	ldr	x0, [sp, #24]
   91644:	94000070 	bl	91804 <_ZNK8valkyrie6kernel9SharedPtrINS0_8FunctionIFbRNS0_9UniquePtrINS0_4TaskEEEEE13CallableIfaceEE3getEv>
   91648:	f100001f 	cmp	x0, #0x0
   9164c:	1a9f07e0 	cset	w0, ne  // ne = any
   91650:	12001c00 	and	w0, w0, #0xff
   91654:	a8c27bfd 	ldp	x29, x30, [sp], #32
   91658:	d65f03c0 	ret

Disassembly of section .text._Z6printkIJPKN8valkyrie6kernel8FunctionIFbRNS1_9UniquePtrINS1_4TaskEEEEEEEEvPKcDpOT_:

000000000009165c <_Z6printkIJPKN8valkyrie6kernel8FunctionIFbRNS1_9UniquePtrINS1_4TaskEEEEEEEEvPKcDpOT_>:
   9165c:	a9bb7bfd 	stp	x29, x30, [sp, #-80]!
   91660:	910003fd 	mov	x29, sp
   91664:	f9000fe0 	str	x0, [sp, #24]
   91668:	f9000be1 	str	x1, [sp, #16]
   9166c:	d53be020 	mrs	x0, cntpct_el0
   91670:	f90027e0 	str	x0, [sp, #72]
   91674:	d53be000 	mrs	x0, cntfrq_el0
   91678:	f90023e0 	str	x0, [sp, #64]
   9167c:	f94027e1 	ldr	x1, [sp, #72]
   91680:	aa0103e0 	mov	x0, x1
   91684:	d37be800 	lsl	x0, x0, #5
   91688:	cb010000 	sub	x0, x0, x1
   9168c:	d37ef400 	lsl	x0, x0, #2
   91690:	8b010000 	add	x0, x0, x1
   91694:	d37df000 	lsl	x0, x0, #3
   91698:	aa0003e1 	mov	x1, x0
   9169c:	f94023e0 	ldr	x0, [sp, #64]
   916a0:	9ac00820 	udiv	x0, x1, x0
   916a4:	f9001fe0 	str	x0, [sp, #56]
   916a8:	f9401fe0 	ldr	x0, [sp, #56]
   916ac:	d343fc01 	lsr	x1, x0, #3
   916b0:	d29ef9e0 	mov	x0, #0xf7cf                	// #63439
   916b4:	f2bc6a60 	movk	x0, #0xe353, lsl #16
   916b8:	f2d374a0 	movk	x0, #0x9ba5, lsl #32
   916bc:	f2e41880 	movk	x0, #0x20c4, lsl #48
   916c0:	9bc07c20 	umulh	x0, x1, x0
   916c4:	d344fc00 	lsr	x0, x0, #4
   916c8:	f90017e0 	str	x0, [sp, #40]
   916cc:	f9401fe2 	ldr	x2, [sp, #56]
   916d0:	d343fc41 	lsr	x1, x2, #3
   916d4:	d29ef9e0 	mov	x0, #0xf7cf                	// #63439
   916d8:	f2bc6a60 	movk	x0, #0xe353, lsl #16
   916dc:	f2d374a0 	movk	x0, #0x9ba5, lsl #32
   916e0:	f2e41880 	movk	x0, #0x20c4, lsl #48
   916e4:	9bc07c20 	umulh	x0, x1, x0
   916e8:	d344fc01 	lsr	x1, x0, #4
   916ec:	aa0103e0 	mov	x0, x1
   916f0:	d37be800 	lsl	x0, x0, #5
   916f4:	cb010000 	sub	x0, x0, x1
   916f8:	d37ef400 	lsl	x0, x0, #2
   916fc:	8b010000 	add	x0, x0, x1
   91700:	d37df000 	lsl	x0, x0, #3
   91704:	cb000041 	sub	x1, x2, x0
   91708:	f9001be1 	str	x1, [sp, #48]
   9170c:	9100c3e1 	add	x1, sp, #0x30
   91710:	9100a3e0 	add	x0, sp, #0x28
   91714:	aa0103e2 	mov	x2, x1
   91718:	aa0003e1 	mov	x1, x0
   9171c:	90ffffc0 	adrp	x0, 89000 <_ZN8valkyrie6kernel8FunctionIFvvEE12CallableImplIZNS0_16__run_unit_testsEvEUlvE_E4callEv+0x5e8>
   91720:	9132a000 	add	x0, x0, #0xca8
   91724:	97fff248 	bl	8e044 <_Z6printfIJyyEEvPKcDpOT_>
   91728:	f9400be1 	ldr	x1, [sp, #16]
   9172c:	f9400fe0 	ldr	x0, [sp, #24]
   91730:	9400004a 	bl	91858 <_Z6printfIJRPKN8valkyrie6kernel8FunctionIFbRNS1_9UniquePtrINS1_4TaskEEEEEEEEvPKcDpOT_>
   91734:	d503201f 	nop
   91738:	a8c57bfd 	ldp	x29, x30, [sp], #80
   9173c:	d65f03c0 	ret

Disassembly of section .text._ZNK8valkyrie6kernel9SharedPtrINS0_8FunctionIFbRNS0_9UniquePtrINS0_4TaskEEEEE13CallableIfaceEEptEv:

0000000000091740 <_ZNK8valkyrie6kernel9SharedPtrINS0_8FunctionIFbRNS0_9UniquePtrINS0_4TaskEEEEE13CallableIfaceEEptEv>:
   91740:	a9be7bfd 	stp	x29, x30, [sp, #-32]!
   91744:	910003fd 	mov	x29, sp
   91748:	f9000fe0 	str	x0, [sp, #24]
   9174c:	f9400fe0 	ldr	x0, [sp, #24]
   91750:	9400002d 	bl	91804 <_ZNK8valkyrie6kernel9SharedPtrINS0_8FunctionIFbRNS0_9UniquePtrINS0_4TaskEEEEE13CallableIfaceEE3getEv>
   91754:	a8c27bfd 	ldp	x29, x30, [sp], #32
   91758:	d65f03c0 	ret

Disassembly of section .text._ZN8valkyrie6kernel16DoublyLinkedListINS0_9UniquePtrINS0_4TaskEEEE23is_list_del_entry_validEPKNS5_4NodeE:

000000000009175c <_ZN8valkyrie6kernel16DoublyLinkedListINS0_9UniquePtrINS0_4TaskEEEE23is_list_del_entry_validEPKNS5_4NodeE>:
   9175c:	d10043ff 	sub	sp, sp, #0x10
   91760:	f90007e0 	str	x0, [sp, #8]
   91764:	f90003e1 	str	x1, [sp]
   91768:	f94003e0 	ldr	x0, [sp]
   9176c:	f9400000 	ldr	x0, [x0]
   91770:	f9400400 	ldr	x0, [x0, #8]
   91774:	f94003e1 	ldr	x1, [sp]
   91778:	eb00003f 	cmp	x1, x0
   9177c:	54000121 	b.ne	917a0 <_ZN8valkyrie6kernel16DoublyLinkedListINS0_9UniquePtrINS0_4TaskEEEE23is_list_del_entry_validEPKNS5_4NodeE+0x44>  // b.any
   91780:	f94003e0 	ldr	x0, [sp]
   91784:	f9400400 	ldr	x0, [x0, #8]
   91788:	f9400000 	ldr	x0, [x0]
   9178c:	f94003e1 	ldr	x1, [sp]
   91790:	eb00003f 	cmp	x1, x0
   91794:	54000061 	b.ne	917a0 <_ZN8valkyrie6kernel16DoublyLinkedListINS0_9UniquePtrINS0_4TaskEEEE23is_list_del_entry_validEPKNS5_4NodeE+0x44>  // b.any
   91798:	52800020 	mov	w0, #0x1                   	// #1
   9179c:	14000002 	b	917a4 <_ZN8valkyrie6kernel16DoublyLinkedListINS0_9UniquePtrINS0_4TaskEEEE23is_list_del_entry_validEPKNS5_4NodeE+0x48>
   917a0:	52800000 	mov	w0, #0x0                   	// #0
   917a4:	910043ff 	add	sp, sp, #0x10
   917a8:	d65f03c0 	ret

Disassembly of section .text._ZN8valkyrie6kernel16DoublyLinkedListINS0_9UniquePtrINS0_4TaskEEEE8list_delEPNS5_4NodeES7_:

00000000000917ac <_ZN8valkyrie6kernel16DoublyLinkedListINS0_9UniquePtrINS0_4TaskEEEE8list_delEPNS5_4NodeES7_>:
   917ac:	d10083ff 	sub	sp, sp, #0x20
   917b0:	f9000fe0 	str	x0, [sp, #24]
   917b4:	f9000be1 	str	x1, [sp, #16]
   917b8:	f90007e2 	str	x2, [sp, #8]
   917bc:	f94007e0 	ldr	x0, [sp, #8]
   917c0:	f9400be1 	ldr	x1, [sp, #16]
   917c4:	f9000001 	str	x1, [x0]
   917c8:	f9400be0 	ldr	x0, [sp, #16]
   917cc:	f94007e1 	ldr	x1, [sp, #8]
   917d0:	f9000401 	str	x1, [x0, #8]
   917d4:	d503201f 	nop
   917d8:	910083ff 	add	sp, sp, #0x20
   917dc:	d65f03c0 	ret

Disassembly of section .text._ZN8valkyrie6kernel8FunctionIFbRNS0_9UniquePtrINS0_4TaskEEEEE13CallableIfaceC2Ev:

00000000000917e0 <_ZN8valkyrie6kernel8FunctionIFbRNS0_9UniquePtrINS0_4TaskEEEEE13CallableIfaceC1Ev>:
   917e0:	d10043ff 	sub	sp, sp, #0x10
   917e4:	f90007e0 	str	x0, [sp, #8]
   917e8:	d0000000 	adrp	x0, 93000 <_ZTVN8valkyrie6kernel8FunctionIFbRNS0_9UniquePtrINS0_4TaskEEEEE12CallableImplIZNS0_13TaskScheduler11remove_taskERKS3_EUlRT_E_EE+0x18>
   917ec:	9101c001 	add	x1, x0, #0x70
   917f0:	f94007e0 	ldr	x0, [sp, #8]
   917f4:	f9000001 	str	x1, [x0]
   917f8:	d503201f 	nop
   917fc:	910043ff 	add	sp, sp, #0x10
   91800:	d65f03c0 	ret

Disassembly of section .text._ZNK8valkyrie6kernel9SharedPtrINS0_8FunctionIFbRNS0_9UniquePtrINS0_4TaskEEEEE13CallableIfaceEE3getEv:

0000000000091804 <_ZNK8valkyrie6kernel9SharedPtrINS0_8FunctionIFbRNS0_9UniquePtrINS0_4TaskEEEEE13CallableIfaceEE3getEv>:
   91804:	d10043ff 	sub	sp, sp, #0x10
   91808:	f90007e0 	str	x0, [sp, #8]
   9180c:	f94007e0 	ldr	x0, [sp, #8]
   91810:	f9400400 	ldr	x0, [x0, #8]
   91814:	f100001f 	cmp	x0, #0x0
   91818:	54000080 	b.eq	91828 <_ZNK8valkyrie6kernel9SharedPtrINS0_8FunctionIFbRNS0_9UniquePtrINS0_4TaskEEEEE13CallableIfaceEE3getEv+0x24>  // b.none
   9181c:	f94007e0 	ldr	x0, [sp, #8]
   91820:	f9400400 	ldr	x0, [x0, #8]
   91824:	1400000b 	b	91850 <_ZNK8valkyrie6kernel9SharedPtrINS0_8FunctionIFbRNS0_9UniquePtrINS0_4TaskEEEEE13CallableIfaceEE3getEv+0x4c>
   91828:	f94007e0 	ldr	x0, [sp, #8]
   9182c:	f9400000 	ldr	x0, [x0]
   91830:	f100001f 	cmp	x0, #0x0
   91834:	540000a0 	b.eq	91848 <_ZNK8valkyrie6kernel9SharedPtrINS0_8FunctionIFbRNS0_9UniquePtrINS0_4TaskEEEEE13CallableIfaceEE3getEv+0x44>  // b.none
   91838:	f94007e0 	ldr	x0, [sp, #8]
   9183c:	f9400000 	ldr	x0, [x0]
   91840:	f9400000 	ldr	x0, [x0]
   91844:	14000002 	b	9184c <_ZNK8valkyrie6kernel9SharedPtrINS0_8FunctionIFbRNS0_9UniquePtrINS0_4TaskEEEEE13CallableIfaceEE3getEv+0x48>
   91848:	d2800000 	mov	x0, #0x0                   	// #0
   9184c:	d503201f 	nop
   91850:	910043ff 	add	sp, sp, #0x10
   91854:	d65f03c0 	ret

Disassembly of section .text._Z6printfIJRPKN8valkyrie6kernel8FunctionIFbRNS1_9UniquePtrINS1_4TaskEEEEEEEEvPKcDpOT_:

0000000000091858 <_Z6printfIJRPKN8valkyrie6kernel8FunctionIFbRNS1_9UniquePtrINS1_4TaskEEEEEEEEvPKcDpOT_>:
   91858:	a9be7bfd 	stp	x29, x30, [sp, #-32]!
   9185c:	910003fd 	mov	x29, sp
   91860:	f9000fe0 	str	x0, [sp, #24]
   91864:	f9000be1 	str	x1, [sp, #16]
   91868:	f9400be0 	ldr	x0, [sp, #16]
   9186c:	f9400000 	ldr	x0, [x0]
   91870:	aa0003e1 	mov	x1, x0
   91874:	f9400fe0 	ldr	x0, [sp, #24]
   91878:	97ffcd22 	bl	84d00 <_Z10tfp_printfPcz>
   9187c:	d503201f 	nop
   91880:	a8c27bfd 	ldp	x29, x30, [sp], #32
   91884:	d65f03c0 	ret

Disassembly of section .text._ZN8valkyrie6kernel9SharedPtrINS0_8FunctionIFbRNS0_9UniquePtrINS0_4TaskEEEEE13CallableIfaceEE13inc_use_countEv:

0000000000091888 <_ZN8valkyrie6kernel9SharedPtrINS0_8FunctionIFbRNS0_9UniquePtrINS0_4TaskEEEEE13CallableIfaceEE13inc_use_countEv>:
   91888:	a9be7bfd 	stp	x29, x30, [sp, #-32]!
   9188c:	910003fd 	mov	x29, sp
   91890:	f9000fe0 	str	x0, [sp, #24]
   91894:	f9400fe0 	ldr	x0, [sp, #24]
   91898:	97ffff48 	bl	915b8 <_ZNK8valkyrie6kernel9SharedPtrINS0_8FunctionIFbRNS0_9UniquePtrINS0_4TaskEEEEE13CallableIfaceEE8is_validEv>
   9189c:	12001c00 	and	w0, w0, #0xff
   918a0:	7100001f 	cmp	w0, #0x0
   918a4:	540000c0 	b.eq	918bc <_ZN8valkyrie6kernel9SharedPtrINS0_8FunctionIFbRNS0_9UniquePtrINS0_4TaskEEEEE13CallableIfaceEE13inc_use_countEv+0x34>  // b.none
   918a8:	f9400fe0 	ldr	x0, [sp, #24]
   918ac:	f9400000 	ldr	x0, [x0]
   918b0:	b9400801 	ldr	w1, [x0, #8]
   918b4:	11000421 	add	w1, w1, #0x1
   918b8:	b9000801 	str	w1, [x0, #8]
   918bc:	d503201f 	nop
   918c0:	a8c27bfd 	ldp	x29, x30, [sp], #32
   918c4:	d65f03c0 	ret

Disassembly of section .text._ZN8valkyrie6kernel9UniquePtrINS0_4TaskEEaSEOS3_:

00000000000918c8 <_ZN8valkyrie6kernel9UniquePtrINS0_4TaskEEaSEOS3_>:
   918c8:	a9be7bfd 	stp	x29, x30, [sp, #-32]!
   918cc:	910003fd 	mov	x29, sp
   918d0:	f9000fe0 	str	x0, [sp, #24]
   918d4:	f9000be1 	str	x1, [sp, #16]
   918d8:	f9400be0 	ldr	x0, [sp, #16]
   918dc:	97fffbb7 	bl	907b8 <_ZN8valkyrie6kernel9UniquePtrINS0_4TaskEE7releaseEv>
   918e0:	aa0003e1 	mov	x1, x0
   918e4:	f9400fe0 	ldr	x0, [sp, #24]
   918e8:	97fffb75 	bl	906bc <_ZN8valkyrie6kernel9UniquePtrINS0_4TaskEE5resetEPS2_>
   918ec:	f9400fe0 	ldr	x0, [sp, #24]
   918f0:	a8c27bfd 	ldp	x29, x30, [sp], #32
   918f4:	d65f03c0 	ret

Disassembly of section .text._ZN8valkyrie6kernel5DequeINS0_16TimerMultiplexer5EventEED2Ev:

00000000000918f8 <_ZN8valkyrie6kernel5DequeINS0_16TimerMultiplexer5EventEED1Ev>:
   918f8:	a9be7bfd 	stp	x29, x30, [sp, #-32]!
   918fc:	910003fd 	mov	x29, sp
   91900:	f9000fe0 	str	x0, [sp, #24]
   91904:	f9400fe0 	ldr	x0, [sp, #24]
   91908:	94000015 	bl	9195c <_ZN8valkyrie6kernel9UniquePtrIA_NS0_16TimerMultiplexer5EventEED1Ev>
   9190c:	d503201f 	nop
   91910:	a8c27bfd 	ldp	x29, x30, [sp], #32
   91914:	d65f03c0 	ret

Disassembly of section .text._ZN8valkyrie6kernel16TimerMultiplexerD2Ev:

0000000000091918 <_ZN8valkyrie6kernel16TimerMultiplexerD1Ev>:
   91918:	a9be7bfd 	stp	x29, x30, [sp, #-32]!
   9191c:	910003fd 	mov	x29, sp
   91920:	f9000fe0 	str	x0, [sp, #24]
   91924:	f9400fe0 	ldr	x0, [sp, #24]
   91928:	91004000 	add	x0, x0, #0x10
   9192c:	97fffff3 	bl	918f8 <_ZN8valkyrie6kernel5DequeINS0_16TimerMultiplexer5EventEED1Ev>
   91930:	d503201f 	nop
   91934:	a8c27bfd 	ldp	x29, x30, [sp], #32
   91938:	d65f03c0 	ret

Disassembly of section .text._ZN8valkyrie6kernel16TimerMultiplexer5EventD2Ev:

000000000009193c <_ZN8valkyrie6kernel16TimerMultiplexer5EventD1Ev>:
   9193c:	a9be7bfd 	stp	x29, x30, [sp, #-32]!
   91940:	910003fd 	mov	x29, sp
   91944:	f9000fe0 	str	x0, [sp, #24]
   91948:	f9400fe0 	ldr	x0, [sp, #24]
   9194c:	97fff27d 	bl	8e340 <_ZN8valkyrie6kernel8FunctionIFvvEED1Ev>
   91950:	d503201f 	nop
   91954:	a8c27bfd 	ldp	x29, x30, [sp], #32
   91958:	d65f03c0 	ret

Disassembly of section .text._ZN8valkyrie6kernel9UniquePtrIA_NS0_16TimerMultiplexer5EventEED2Ev:

000000000009195c <_ZN8valkyrie6kernel9UniquePtrIA_NS0_16TimerMultiplexer5EventEED1Ev>:
   9195c:	a9be7bfd 	stp	x29, x30, [sp, #-32]!
   91960:	910003fd 	mov	x29, sp
   91964:	f9000fe0 	str	x0, [sp, #24]
   91968:	d2800001 	mov	x1, #0x0                   	// #0
   9196c:	f9400fe0 	ldr	x0, [sp, #24]
   91970:	94000103 	bl	91d7c <_ZN8valkyrie6kernel9UniquePtrIA_NS0_16TimerMultiplexer5EventEE5resetEPS3_>
   91974:	f9400fe0 	ldr	x0, [sp, #24]
   91978:	940000f8 	bl	91d58 <_ZN8valkyrie6kernel9UniquePtrINS0_16TimerMultiplexer5EventEED1Ev>
   9197c:	d503201f 	nop
   91980:	a8c27bfd 	ldp	x29, x30, [sp], #32
   91984:	d65f03c0 	ret

Disassembly of section .text._ZN8valkyrie6kernel5DequeINS0_16TimerMultiplexer5EventEEC2Ei:

0000000000091988 <_ZN8valkyrie6kernel5DequeINS0_16TimerMultiplexer5EventEEC1Ei>:
   91988:	a9be7bfd 	stp	x29, x30, [sp, #-32]!
   9198c:	910003fd 	mov	x29, sp
   91990:	f9000fe0 	str	x0, [sp, #24]
   91994:	b90017e1 	str	w1, [sp, #20]
   91998:	b98017e0 	ldrsw	x0, [sp, #20]
   9199c:	f9400fe1 	ldr	x1, [sp, #24]
   919a0:	aa0103e8 	mov	x8, x1
   919a4:	94000140 	bl	91ea4 <_ZN8valkyrie6kernel11make_uniqueIA_NS0_16TimerMultiplexer5EventEEENS0_9_UniqueIfIT_E13_UnknownBoundEm>
   919a8:	f9400fe0 	ldr	x0, [sp, #24]
   919ac:	f900041f 	str	xzr, [x0, #8]
   919b0:	b98017e1 	ldrsw	x1, [sp, #20]
   919b4:	f9400fe0 	ldr	x0, [sp, #24]
   919b8:	f9000801 	str	x1, [x0, #16]
   919bc:	d503201f 	nop
   919c0:	a8c27bfd 	ldp	x29, x30, [sp], #32
   919c4:	d65f03c0 	ret

Disassembly of section .text._Z6printkIJjEEvPKcDpOT_:

00000000000919c8 <_Z6printkIJjEEvPKcDpOT_>:
   919c8:	a9bb7bfd 	stp	x29, x30, [sp, #-80]!
   919cc:	910003fd 	mov	x29, sp
   919d0:	f9000fe0 	str	x0, [sp, #24]
   919d4:	f9000be1 	str	x1, [sp, #16]
   919d8:	d53be020 	mrs	x0, cntpct_el0
   919dc:	f90027e0 	str	x0, [sp, #72]
   919e0:	d53be000 	mrs	x0, cntfrq_el0
   919e4:	f90023e0 	str	x0, [sp, #64]
   919e8:	f94027e1 	ldr	x1, [sp, #72]
   919ec:	aa0103e0 	mov	x0, x1
   919f0:	d37be800 	lsl	x0, x0, #5
   919f4:	cb010000 	sub	x0, x0, x1
   919f8:	d37ef400 	lsl	x0, x0, #2
   919fc:	8b010000 	add	x0, x0, x1
   91a00:	d37df000 	lsl	x0, x0, #3
   91a04:	aa0003e1 	mov	x1, x0
   91a08:	f94023e0 	ldr	x0, [sp, #64]
   91a0c:	9ac00820 	udiv	x0, x1, x0
   91a10:	f9001fe0 	str	x0, [sp, #56]
   91a14:	f9401fe0 	ldr	x0, [sp, #56]
   91a18:	d343fc01 	lsr	x1, x0, #3
   91a1c:	d29ef9e0 	mov	x0, #0xf7cf                	// #63439
   91a20:	f2bc6a60 	movk	x0, #0xe353, lsl #16
   91a24:	f2d374a0 	movk	x0, #0x9ba5, lsl #32
   91a28:	f2e41880 	movk	x0, #0x20c4, lsl #48
   91a2c:	9bc07c20 	umulh	x0, x1, x0
   91a30:	d344fc00 	lsr	x0, x0, #4
   91a34:	f90017e0 	str	x0, [sp, #40]
   91a38:	f9401fe2 	ldr	x2, [sp, #56]
   91a3c:	d343fc41 	lsr	x1, x2, #3
   91a40:	d29ef9e0 	mov	x0, #0xf7cf                	// #63439
   91a44:	f2bc6a60 	movk	x0, #0xe353, lsl #16
   91a48:	f2d374a0 	movk	x0, #0x9ba5, lsl #32
   91a4c:	f2e41880 	movk	x0, #0x20c4, lsl #48
   91a50:	9bc07c20 	umulh	x0, x1, x0
   91a54:	d344fc01 	lsr	x1, x0, #4
   91a58:	aa0103e0 	mov	x0, x1
   91a5c:	d37be800 	lsl	x0, x0, #5
   91a60:	cb010000 	sub	x0, x0, x1
   91a64:	d37ef400 	lsl	x0, x0, #2
   91a68:	8b010000 	add	x0, x0, x1
   91a6c:	d37df000 	lsl	x0, x0, #3
   91a70:	cb000041 	sub	x1, x2, x0
   91a74:	f9001be1 	str	x1, [sp, #48]
   91a78:	9100c3e1 	add	x1, sp, #0x30
   91a7c:	9100a3e0 	add	x0, sp, #0x28
   91a80:	aa0103e2 	mov	x2, x1
   91a84:	aa0003e1 	mov	x1, x0
   91a88:	90ffffc0 	adrp	x0, 89000 <_ZN8valkyrie6kernel8FunctionIFvvEE12CallableImplIZNS0_16__run_unit_testsEvEUlvE_E4callEv+0x5e8>
   91a8c:	91352000 	add	x0, x0, #0xd48
   91a90:	97fff16d 	bl	8e044 <_Z6printfIJyyEEvPKcDpOT_>
   91a94:	f9400be1 	ldr	x1, [sp, #16]
   91a98:	f9400fe0 	ldr	x0, [sp, #24]
   91a9c:	9400012e 	bl	91f54 <_Z6printfIJRjEEvPKcDpOT_>
   91aa0:	d503201f 	nop
   91aa4:	a8c57bfd 	ldp	x29, x30, [sp], #80
   91aa8:	d65f03c0 	ret

Disassembly of section .text._ZNK8valkyrie6kernel5DequeINS0_16TimerMultiplexer5EventEE4sizeEv:

0000000000091aac <_ZNK8valkyrie6kernel5DequeINS0_16TimerMultiplexer5EventEE4sizeEv>:
   91aac:	d10043ff 	sub	sp, sp, #0x10
   91ab0:	f90007e0 	str	x0, [sp, #8]
   91ab4:	f94007e0 	ldr	x0, [sp, #8]
   91ab8:	f9400400 	ldr	x0, [x0, #8]
   91abc:	910043ff 	add	sp, sp, #0x10
   91ac0:	d65f03c0 	ret

Disassembly of section .text._ZN8valkyrie6kernel5DequeINS0_16TimerMultiplexer5EventEEixEm:

0000000000091ac4 <_ZN8valkyrie6kernel5DequeINS0_16TimerMultiplexer5EventEEixEm>:
   91ac4:	a9be7bfd 	stp	x29, x30, [sp, #-32]!
   91ac8:	910003fd 	mov	x29, sp
   91acc:	f9000fe0 	str	x0, [sp, #24]
   91ad0:	f9000be1 	str	x1, [sp, #16]
   91ad4:	f9400fe0 	ldr	x0, [sp, #24]
   91ad8:	f9400be1 	ldr	x1, [sp, #16]
   91adc:	9400012a 	bl	91f84 <_ZN8valkyrie6kernel9UniquePtrIA_NS0_16TimerMultiplexer5EventEEixEm>
   91ae0:	a8c27bfd 	ldp	x29, x30, [sp], #32
   91ae4:	d65f03c0 	ret

Disassembly of section .text._ZNK8valkyrie6kernel8FunctionIFvvEEclEv:

0000000000091ae8 <_ZNK8valkyrie6kernel8FunctionIFvvEEclEv>:
   91ae8:	a9bd7bfd 	stp	x29, x30, [sp, #-48]!
   91aec:	910003fd 	mov	x29, sp
   91af0:	f9000fe0 	str	x0, [sp, #24]
   91af4:	f9400fe0 	ldr	x0, [sp, #24]
   91af8:	94000132 	bl	91fc0 <_ZNK8valkyrie6kernel9SharedPtrINS0_8FunctionIFvvEE13CallableIfaceEEcvbEv>
   91afc:	12001c00 	and	w0, w0, #0xff
   91b00:	52000000 	eor	w0, w0, #0x1
   91b04:	12001c00 	and	w0, w0, #0xff
   91b08:	92401c00 	and	x0, x0, #0xff
   91b0c:	f100001f 	cmp	x0, #0x0
   91b10:	1a9f07e0 	cset	w0, ne  // ne = any
   91b14:	12001c00 	and	w0, w0, #0xff
   91b18:	7100001f 	cmp	w0, #0x0
   91b1c:	54000100 	b.eq	91b3c <_ZNK8valkyrie6kernel8FunctionIFvvEEclEv+0x54>  // b.none
   91b20:	f9400fe0 	ldr	x0, [sp, #24]
   91b24:	f90017e0 	str	x0, [sp, #40]
   91b28:	9100a3e0 	add	x0, sp, #0x28
   91b2c:	aa0003e1 	mov	x1, x0
   91b30:	90ffffc0 	adrp	x0, 89000 <_ZN8valkyrie6kernel8FunctionIFvvEE12CallableImplIZNS0_16__run_unit_testsEvEUlvE_E4callEv+0x5e8>
   91b34:	91356000 	add	x0, x0, #0xd58
   91b38:	9400012c 	bl	91fe8 <_Z6printkIJPKN8valkyrie6kernel8FunctionIFvvEEEEEvPKcDpOT_>
   91b3c:	f9400fe0 	ldr	x0, [sp, #24]
   91b40:	94000163 	bl	920cc <_ZNK8valkyrie6kernel9SharedPtrINS0_8FunctionIFvvEE13CallableIfaceEEptEv>
   91b44:	f9400001 	ldr	x1, [x0]
   91b48:	91004021 	add	x1, x1, #0x10
   91b4c:	f9400021 	ldr	x1, [x1]
   91b50:	d63f0020 	blr	x1
   91b54:	d503201f 	nop
   91b58:	a8c37bfd 	ldp	x29, x30, [sp], #48
   91b5c:	d65f03c0 	ret

Disassembly of section .text._ZN8valkyrie6kernel16TimerMultiplexer5EventaSEOS2_:

0000000000091b60 <_ZN8valkyrie6kernel16TimerMultiplexer5EventaSEOS2_>:
   91b60:	a9be7bfd 	stp	x29, x30, [sp, #-32]!
   91b64:	910003fd 	mov	x29, sp
   91b68:	f9000fe0 	str	x0, [sp, #24]
   91b6c:	f9000be1 	str	x1, [sp, #16]
   91b70:	f9400be1 	ldr	x1, [sp, #16]
   91b74:	f9400fe0 	ldr	x0, [sp, #24]
   91b78:	94000161 	bl	920fc <_ZN8valkyrie6kernel8FunctionIFvvEEaSEOS3_>
   91b7c:	f9400be0 	ldr	x0, [sp, #16]
   91b80:	b9401001 	ldr	w1, [x0, #16]
   91b84:	f9400fe0 	ldr	x0, [sp, #24]
   91b88:	b9001001 	str	w1, [x0, #16]
   91b8c:	f9400fe0 	ldr	x0, [sp, #24]
   91b90:	a8c27bfd 	ldp	x29, x30, [sp], #32
   91b94:	d65f03c0 	ret

Disassembly of section .text._ZN8valkyrie6kernel5DequeINS0_16TimerMultiplexer5EventEE5eraseEi:

0000000000091b98 <_ZN8valkyrie6kernel5DequeINS0_16TimerMultiplexer5EventEE5eraseEi>:
   91b98:	a9bc7bfd 	stp	x29, x30, [sp, #-64]!
   91b9c:	910003fd 	mov	x29, sp
   91ba0:	f9000bf3 	str	x19, [sp, #16]
   91ba4:	f90017e0 	str	x0, [sp, #40]
   91ba8:	b90027e1 	str	w1, [sp, #36]
   91bac:	b94027e0 	ldr	w0, [sp, #36]
   91bb0:	b9003fe0 	str	w0, [sp, #60]
   91bb4:	f94017e0 	ldr	x0, [sp, #40]
   91bb8:	f9400400 	ldr	x0, [x0, #8]
   91bbc:	51000400 	sub	w0, w0, #0x1
   91bc0:	b9403fe1 	ldr	w1, [sp, #60]
   91bc4:	6b00003f 	cmp	w1, w0
   91bc8:	5400026a 	b.ge	91c14 <_ZN8valkyrie6kernel5DequeINS0_16TimerMultiplexer5EventEE5eraseEi+0x7c>  // b.tcont
   91bcc:	f94017e2 	ldr	x2, [sp, #40]
   91bd0:	b9403fe0 	ldr	w0, [sp, #60]
   91bd4:	11000400 	add	w0, w0, #0x1
   91bd8:	93407c00 	sxtw	x0, w0
   91bdc:	aa0003e1 	mov	x1, x0
   91be0:	aa0203e0 	mov	x0, x2
   91be4:	940000e8 	bl	91f84 <_ZN8valkyrie6kernel9UniquePtrIA_NS0_16TimerMultiplexer5EventEEixEm>
   91be8:	94000140 	bl	920e8 <_ZN8valkyrie6kernel4moveIRNS0_16TimerMultiplexer5EventEEEONS0_16_RemoveReferenceIT_E4TypeEOS6_>
   91bec:	aa0003f3 	mov	x19, x0
   91bf0:	f94017e0 	ldr	x0, [sp, #40]
   91bf4:	b9803fe1 	ldrsw	x1, [sp, #60]
   91bf8:	940000e3 	bl	91f84 <_ZN8valkyrie6kernel9UniquePtrIA_NS0_16TimerMultiplexer5EventEEixEm>
   91bfc:	aa1303e1 	mov	x1, x19
   91c00:	97ffffd8 	bl	91b60 <_ZN8valkyrie6kernel16TimerMultiplexer5EventaSEOS2_>
   91c04:	b9403fe0 	ldr	w0, [sp, #60]
   91c08:	11000400 	add	w0, w0, #0x1
   91c0c:	b9003fe0 	str	w0, [sp, #60]
   91c10:	17ffffe9 	b	91bb4 <_ZN8valkyrie6kernel5DequeINS0_16TimerMultiplexer5EventEE5eraseEi+0x1c>
   91c14:	f94017e0 	ldr	x0, [sp, #40]
   91c18:	f9400400 	ldr	x0, [x0, #8]
   91c1c:	d1000401 	sub	x1, x0, #0x1
   91c20:	f94017e0 	ldr	x0, [sp, #40]
   91c24:	f9000401 	str	x1, [x0, #8]
   91c28:	f94017e0 	ldr	x0, [sp, #40]
   91c2c:	f9400401 	ldr	x1, [x0, #8]
   91c30:	f94017e0 	ldr	x0, [sp, #40]
   91c34:	f9400800 	ldr	x0, [x0, #16]
   91c38:	d342fc00 	lsr	x0, x0, #2
   91c3c:	eb00003f 	cmp	x1, x0
   91c40:	54000108 	b.hi	91c60 <_ZN8valkyrie6kernel5DequeINS0_16TimerMultiplexer5EventEE5eraseEi+0xc8>  // b.pmore
   91c44:	f94017e0 	ldr	x0, [sp, #40]
   91c48:	f9400800 	ldr	x0, [x0, #16]
   91c4c:	d341fc00 	lsr	x0, x0, #1
   91c50:	52800022 	mov	w2, #0x1                   	// #1
   91c54:	aa0003e1 	mov	x1, x0
   91c58:	f94017e0 	ldr	x0, [sp, #40]
   91c5c:	94000134 	bl	9212c <_ZN8valkyrie6kernel5DequeINS0_16TimerMultiplexer5EventEE6resizeEmb>
   91c60:	d503201f 	nop
   91c64:	f9400bf3 	ldr	x19, [sp, #16]
   91c68:	a8c47bfd 	ldp	x29, x30, [sp], #64
   91c6c:	d65f03c0 	ret

Disassembly of section .text._ZNK8valkyrie6kernel5DequeINS0_16TimerMultiplexer5EventEE5emptyEv:

0000000000091c70 <_ZNK8valkyrie6kernel5DequeINS0_16TimerMultiplexer5EventEE5emptyEv>:
   91c70:	d10043ff 	sub	sp, sp, #0x10
   91c74:	f90007e0 	str	x0, [sp, #8]
   91c78:	f94007e0 	ldr	x0, [sp, #8]
   91c7c:	f9400400 	ldr	x0, [x0, #8]
   91c80:	f100001f 	cmp	x0, #0x0
   91c84:	1a9f17e0 	cset	w0, eq  // eq = none
   91c88:	12001c00 	and	w0, w0, #0xff
   91c8c:	910043ff 	add	sp, sp, #0x10
   91c90:	d65f03c0 	ret

Disassembly of section .text._ZN8valkyrie6kernel5DequeINS0_16TimerMultiplexer5EventEE5clearEv:

0000000000091c94 <_ZN8valkyrie6kernel5DequeINS0_16TimerMultiplexer5EventEE5clearEv>:
   91c94:	a9be7bfd 	stp	x29, x30, [sp, #-32]!
   91c98:	910003fd 	mov	x29, sp
   91c9c:	f9000fe0 	str	x0, [sp, #24]
   91ca0:	52800002 	mov	w2, #0x0                   	// #0
   91ca4:	d2800081 	mov	x1, #0x4                   	// #4
   91ca8:	f9400fe0 	ldr	x0, [sp, #24]
   91cac:	94000120 	bl	9212c <_ZN8valkyrie6kernel5DequeINS0_16TimerMultiplexer5EventEE6resizeEmb>
   91cb0:	f9400fe0 	ldr	x0, [sp, #24]
   91cb4:	f900041f 	str	xzr, [x0, #8]
   91cb8:	d503201f 	nop
   91cbc:	a8c27bfd 	ldp	x29, x30, [sp], #32
   91cc0:	d65f03c0 	ret

Disassembly of section .text._ZN8valkyrie6kernel4moveIRNS0_8FunctionIFvvEEEEEONS0_16_RemoveReferenceIT_E4TypeEOS7_:

0000000000091cc4 <_ZN8valkyrie6kernel4moveIRNS0_8FunctionIFvvEEEEEONS0_16_RemoveReferenceIT_E4TypeEOS7_>:
   91cc4:	d10043ff 	sub	sp, sp, #0x10
   91cc8:	f90007e0 	str	x0, [sp, #8]
   91ccc:	f94007e0 	ldr	x0, [sp, #8]
   91cd0:	910043ff 	add	sp, sp, #0x10
   91cd4:	d65f03c0 	ret

Disassembly of section .text._ZN8valkyrie6kernel8FunctionIFvvEEC2EOS3_:

0000000000091cd8 <_ZN8valkyrie6kernel8FunctionIFvvEEC1EOS3_>:
   91cd8:	a9be7bfd 	stp	x29, x30, [sp, #-32]!
   91cdc:	910003fd 	mov	x29, sp
   91ce0:	f9000fe0 	str	x0, [sp, #24]
   91ce4:	f9000be1 	str	x1, [sp, #16]
   91ce8:	f9400fe0 	ldr	x0, [sp, #24]
   91cec:	97fff70d 	bl	8f920 <_ZN8valkyrie6kernel9SharedPtrINS0_8FunctionIFvvEE13CallableIfaceEEC1Ev>
   91cf0:	f9400be0 	ldr	x0, [sp, #16]
   91cf4:	97fffff4 	bl	91cc4 <_ZN8valkyrie6kernel4moveIRNS0_8FunctionIFvvEEEEEONS0_16_RemoveReferenceIT_E4TypeEOS7_>
   91cf8:	aa0003e1 	mov	x1, x0
   91cfc:	f9400fe0 	ldr	x0, [sp, #24]
   91d00:	940000ff 	bl	920fc <_ZN8valkyrie6kernel8FunctionIFvvEEaSEOS3_>
   91d04:	d503201f 	nop
   91d08:	a8c27bfd 	ldp	x29, x30, [sp], #32
   91d0c:	d65f03c0 	ret

Disassembly of section .text._ZN8valkyrie6kernel5DequeINS0_16TimerMultiplexer5EventEE9push_backIS3_EEvOT_:

0000000000091d10 <_ZN8valkyrie6kernel5DequeINS0_16TimerMultiplexer5EventEE9push_backIS3_EEvOT_>:
   91d10:	a9bd7bfd 	stp	x29, x30, [sp, #-48]!
   91d14:	910003fd 	mov	x29, sp
   91d18:	f9000bf3 	str	x19, [sp, #16]
   91d1c:	f90017e0 	str	x0, [sp, #40]
   91d20:	f90013e1 	str	x1, [sp, #32]
   91d24:	f94017e0 	ldr	x0, [sp, #40]
   91d28:	f9400400 	ldr	x0, [x0, #8]
   91d2c:	2a0003f3 	mov	w19, w0
   91d30:	f94013e0 	ldr	x0, [sp, #32]
   91d34:	94000136 	bl	9220c <_ZN8valkyrie6kernel7forwardINS0_16TimerMultiplexer5EventEEEOT_RNS0_16_RemoveReferenceIS4_E4TypeE>
   91d38:	aa0003e2 	mov	x2, x0
   91d3c:	2a1303e1 	mov	w1, w19
   91d40:	f94017e0 	ldr	x0, [sp, #40]
   91d44:	94000137 	bl	92220 <_ZN8valkyrie6kernel5DequeINS0_16TimerMultiplexer5EventEE6insertIS3_EEviOT_>
   91d48:	d503201f 	nop
   91d4c:	f9400bf3 	ldr	x19, [sp, #16]
   91d50:	a8c37bfd 	ldp	x29, x30, [sp], #48
   91d54:	d65f03c0 	ret

Disassembly of section .text._ZN8valkyrie6kernel9UniquePtrINS0_16TimerMultiplexer5EventEED2Ev:

0000000000091d58 <_ZN8valkyrie6kernel9UniquePtrINS0_16TimerMultiplexer5EventEED1Ev>:
   91d58:	a9be7bfd 	stp	x29, x30, [sp, #-32]!
   91d5c:	910003fd 	mov	x29, sp
   91d60:	f9000fe0 	str	x0, [sp, #24]
   91d64:	d2800001 	mov	x1, #0x0                   	// #0
   91d68:	f9400fe0 	ldr	x0, [sp, #24]
   91d6c:	9400016a 	bl	92314 <_ZN8valkyrie6kernel9UniquePtrINS0_16TimerMultiplexer5EventEE5resetEPS3_>
   91d70:	d503201f 	nop
   91d74:	a8c27bfd 	ldp	x29, x30, [sp], #32
   91d78:	d65f03c0 	ret

Disassembly of section .text._ZN8valkyrie6kernel9UniquePtrIA_NS0_16TimerMultiplexer5EventEE5resetEPS3_:

0000000000091d7c <_ZN8valkyrie6kernel9UniquePtrIA_NS0_16TimerMultiplexer5EventEE5resetEPS3_>:
   91d7c:	a9bd7bfd 	stp	x29, x30, [sp, #-48]!
   91d80:	910003fd 	mov	x29, sp
   91d84:	f9000bf3 	str	x19, [sp, #16]
   91d88:	f90017e0 	str	x0, [sp, #40]
   91d8c:	f90013e1 	str	x1, [sp, #32]
   91d90:	f94017e0 	ldr	x0, [sp, #40]
   91d94:	f9400000 	ldr	x0, [x0]
   91d98:	f94013e1 	ldr	x1, [sp, #32]
   91d9c:	eb00003f 	cmp	x1, x0
   91da0:	54000560 	b.eq	91e4c <_ZN8valkyrie6kernel9UniquePtrIA_NS0_16TimerMultiplexer5EventEE5resetEPS3_+0xd0>  // b.none
   91da4:	f94017e0 	ldr	x0, [sp, #40]
   91da8:	f9400000 	ldr	x0, [x0]
   91dac:	f100001f 	cmp	x0, #0x0
   91db0:	54000460 	b.eq	91e3c <_ZN8valkyrie6kernel9UniquePtrIA_NS0_16TimerMultiplexer5EventEE5resetEPS3_+0xc0>  // b.none
   91db4:	f94017e0 	ldr	x0, [sp, #40]
   91db8:	f9400002 	ldr	x2, [x0]
   91dbc:	f94017e0 	ldr	x0, [sp, #40]
   91dc0:	f9400000 	ldr	x0, [x0]
   91dc4:	d1002000 	sub	x0, x0, #0x8
   91dc8:	f9400001 	ldr	x1, [x0]
   91dcc:	aa0103e0 	mov	x0, x1
   91dd0:	d37ff800 	lsl	x0, x0, #1
   91dd4:	8b010000 	add	x0, x0, x1
   91dd8:	d37df000 	lsl	x0, x0, #3
   91ddc:	8b000053 	add	x19, x2, x0
   91de0:	f94017e0 	ldr	x0, [sp, #40]
   91de4:	f9400000 	ldr	x0, [x0]
   91de8:	eb00027f 	cmp	x19, x0
   91dec:	540000a0 	b.eq	91e00 <_ZN8valkyrie6kernel9UniquePtrIA_NS0_16TimerMultiplexer5EventEE5resetEPS3_+0x84>  // b.none
   91df0:	d1006273 	sub	x19, x19, #0x18
   91df4:	aa1303e0 	mov	x0, x19
   91df8:	97fffed1 	bl	9193c <_ZN8valkyrie6kernel16TimerMultiplexer5EventD1Ev>
   91dfc:	17fffff9 	b	91de0 <_ZN8valkyrie6kernel9UniquePtrIA_NS0_16TimerMultiplexer5EventEE5resetEPS3_+0x64>
   91e00:	f94017e0 	ldr	x0, [sp, #40]
   91e04:	f9400000 	ldr	x0, [x0]
   91e08:	d1002002 	sub	x2, x0, #0x8
   91e0c:	f94017e0 	ldr	x0, [sp, #40]
   91e10:	f9400000 	ldr	x0, [x0]
   91e14:	d1002000 	sub	x0, x0, #0x8
   91e18:	f9400001 	ldr	x1, [x0]
   91e1c:	aa0103e0 	mov	x0, x1
   91e20:	d37ff800 	lsl	x0, x0, #1
   91e24:	8b010000 	add	x0, x0, x1
   91e28:	d37df000 	lsl	x0, x0, #3
   91e2c:	91002000 	add	x0, x0, #0x8
   91e30:	aa0003e1 	mov	x1, x0
   91e34:	aa0203e0 	mov	x0, x2
   91e38:	97ffc40b 	bl	82e64 <_ZdaPvm>
   91e3c:	f94017e0 	ldr	x0, [sp, #40]
   91e40:	f94013e1 	ldr	x1, [sp, #32]
   91e44:	f9000001 	str	x1, [x0]
   91e48:	14000002 	b	91e50 <_ZN8valkyrie6kernel9UniquePtrIA_NS0_16TimerMultiplexer5EventEE5resetEPS3_+0xd4>
   91e4c:	d503201f 	nop
   91e50:	f9400bf3 	ldr	x19, [sp, #16]
   91e54:	a8c37bfd 	ldp	x29, x30, [sp], #48
   91e58:	d65f03c0 	ret

Disassembly of section .text._ZN8valkyrie6kernel16TimerMultiplexer5EventC2Ev:

0000000000091e5c <_ZN8valkyrie6kernel16TimerMultiplexer5EventC1Ev>:
   91e5c:	a9be7bfd 	stp	x29, x30, [sp, #-32]!
   91e60:	910003fd 	mov	x29, sp
   91e64:	f9000fe0 	str	x0, [sp, #24]
   91e68:	f9400fe0 	ldr	x0, [sp, #24]
   91e6c:	94000145 	bl	92380 <_ZN8valkyrie6kernel8FunctionIFvvEEC1Ev>
   91e70:	d503201f 	nop
   91e74:	a8c27bfd 	ldp	x29, x30, [sp], #32
   91e78:	d65f03c0 	ret

Disassembly of section .text._ZN8valkyrie6kernel9UniquePtrIA_NS0_16TimerMultiplexer5EventEECI2NS1_IS3_EEEPS3_:

0000000000091e7c <_ZN8valkyrie6kernel9UniquePtrIA_NS0_16TimerMultiplexer5EventEECI1NS1_IS3_EEEPS3_>:
   91e7c:	a9be7bfd 	stp	x29, x30, [sp, #-32]!
   91e80:	910003fd 	mov	x29, sp
   91e84:	f9000fe0 	str	x0, [sp, #24]
   91e88:	f9000be1 	str	x1, [sp, #16]
   91e8c:	f9400fe0 	ldr	x0, [sp, #24]
   91e90:	f9400be1 	ldr	x1, [sp, #16]
   91e94:	94000143 	bl	923a0 <_ZN8valkyrie6kernel9UniquePtrINS0_16TimerMultiplexer5EventEEC1EPS3_>
   91e98:	d503201f 	nop
   91e9c:	a8c27bfd 	ldp	x29, x30, [sp], #32
   91ea0:	d65f03c0 	ret

Disassembly of section .text._ZN8valkyrie6kernel11make_uniqueIA_NS0_16TimerMultiplexer5EventEEENS0_9_UniqueIfIT_E13_UnknownBoundEm:

0000000000091ea4 <_ZN8valkyrie6kernel11make_uniqueIA_NS0_16TimerMultiplexer5EventEEENS0_9_UniqueIfIT_E13_UnknownBoundEm>:
   91ea4:	a9bc7bfd 	stp	x29, x30, [sp, #-64]!
   91ea8:	910003fd 	mov	x29, sp
   91eac:	a90153f3 	stp	x19, x20, [sp, #16]
   91eb0:	a9025bf5 	stp	x21, x22, [sp, #32]
   91eb4:	aa0803f6 	mov	x22, x8
   91eb8:	f9001fe0 	str	x0, [sp, #56]
   91ebc:	f9401ff3 	ldr	x19, [sp, #56]
   91ec0:	b200f3e0 	mov	x0, #0x5555555555555555    	// #6148914691236517205
   91ec4:	f2e0aaa0 	movk	x0, #0x555, lsl #48
   91ec8:	eb00027f 	cmp	x19, x0
   91ecc:	540000e8 	b.hi	91ee8 <_ZN8valkyrie6kernel11make_uniqueIA_NS0_16TimerMultiplexer5EventEEENS0_9_UniqueIfIT_E13_UnknownBoundEm+0x44>  // b.pmore
   91ed0:	aa1303e0 	mov	x0, x19
   91ed4:	d37ff800 	lsl	x0, x0, #1
   91ed8:	8b130000 	add	x0, x0, x19
   91edc:	d37df000 	lsl	x0, x0, #3
   91ee0:	91002000 	add	x0, x0, #0x8
   91ee4:	14000002 	b	91eec <_ZN8valkyrie6kernel11make_uniqueIA_NS0_16TimerMultiplexer5EventEEENS0_9_UniqueIfIT_E13_UnknownBoundEm+0x48>
   91ee8:	92800000 	mov	x0, #0xffffffffffffffff    	// #-1
   91eec:	97ffc3be 	bl	82de4 <_Znam>
   91ef0:	aa0003f4 	mov	x20, x0
   91ef4:	f9000293 	str	x19, [x20]
   91ef8:	91002280 	add	x0, x20, #0x8
   91efc:	d1000661 	sub	x1, x19, #0x1
   91f00:	aa0103f5 	mov	x21, x1
   91f04:	aa0003f3 	mov	x19, x0
   91f08:	f10002bf 	cmp	x21, #0x0
   91f0c:	5400012b 	b.lt	91f30 <_ZN8valkyrie6kernel11make_uniqueIA_NS0_16TimerMultiplexer5EventEEENS0_9_UniqueIfIT_E13_UnknownBoundEm+0x8c>  // b.tstop
   91f10:	f900027f 	str	xzr, [x19]
   91f14:	f900067f 	str	xzr, [x19, #8]
   91f18:	b900127f 	str	wzr, [x19, #16]
   91f1c:	aa1303e0 	mov	x0, x19
   91f20:	97ffffcf 	bl	91e5c <_ZN8valkyrie6kernel16TimerMultiplexer5EventC1Ev>
   91f24:	91006273 	add	x19, x19, #0x18
   91f28:	d10006b5 	sub	x21, x21, #0x1
   91f2c:	17fffff7 	b	91f08 <_ZN8valkyrie6kernel11make_uniqueIA_NS0_16TimerMultiplexer5EventEEENS0_9_UniqueIfIT_E13_UnknownBoundEm+0x64>
   91f30:	91002280 	add	x0, x20, #0x8
   91f34:	aa0003e1 	mov	x1, x0
   91f38:	aa1603e0 	mov	x0, x22
   91f3c:	97ffffd0 	bl	91e7c <_ZN8valkyrie6kernel9UniquePtrIA_NS0_16TimerMultiplexer5EventEECI1NS1_IS3_EEEPS3_>
   91f40:	aa1603e0 	mov	x0, x22
   91f44:	a94153f3 	ldp	x19, x20, [sp, #16]
   91f48:	a9425bf5 	ldp	x21, x22, [sp, #32]
   91f4c:	a8c47bfd 	ldp	x29, x30, [sp], #64
   91f50:	d65f03c0 	ret

Disassembly of section .text._Z6printfIJRjEEvPKcDpOT_:

0000000000091f54 <_Z6printfIJRjEEvPKcDpOT_>:
   91f54:	a9be7bfd 	stp	x29, x30, [sp, #-32]!
   91f58:	910003fd 	mov	x29, sp
   91f5c:	f9000fe0 	str	x0, [sp, #24]
   91f60:	f9000be1 	str	x1, [sp, #16]
   91f64:	f9400be0 	ldr	x0, [sp, #16]
   91f68:	b9400000 	ldr	w0, [x0]
   91f6c:	2a0003e1 	mov	w1, w0
   91f70:	f9400fe0 	ldr	x0, [sp, #24]
   91f74:	97ffcb63 	bl	84d00 <_Z10tfp_printfPcz>
   91f78:	d503201f 	nop
   91f7c:	a8c27bfd 	ldp	x29, x30, [sp], #32
   91f80:	d65f03c0 	ret

Disassembly of section .text._ZN8valkyrie6kernel9UniquePtrIA_NS0_16TimerMultiplexer5EventEEixEm:

0000000000091f84 <_ZN8valkyrie6kernel9UniquePtrIA_NS0_16TimerMultiplexer5EventEEixEm>:
   91f84:	a9be7bfd 	stp	x29, x30, [sp, #-32]!
   91f88:	910003fd 	mov	x29, sp
   91f8c:	f9000fe0 	str	x0, [sp, #24]
   91f90:	f9000be1 	str	x1, [sp, #16]
   91f94:	f9400fe0 	ldr	x0, [sp, #24]
   91f98:	9400010b 	bl	923c4 <_ZNK8valkyrie6kernel9UniquePtrINS0_16TimerMultiplexer5EventEE3getEv>
   91f9c:	aa0003e2 	mov	x2, x0
   91fa0:	f9400be1 	ldr	x1, [sp, #16]
   91fa4:	aa0103e0 	mov	x0, x1
   91fa8:	d37ff800 	lsl	x0, x0, #1
   91fac:	8b010000 	add	x0, x0, x1
   91fb0:	d37df000 	lsl	x0, x0, #3
   91fb4:	8b000040 	add	x0, x2, x0
   91fb8:	a8c27bfd 	ldp	x29, x30, [sp], #32
   91fbc:	d65f03c0 	ret

Disassembly of section .text._ZNK8valkyrie6kernel9SharedPtrINS0_8FunctionIFvvEE13CallableIfaceEEcvbEv:

0000000000091fc0 <_ZNK8valkyrie6kernel9SharedPtrINS0_8FunctionIFvvEE13CallableIfaceEEcvbEv>:
   91fc0:	a9be7bfd 	stp	x29, x30, [sp, #-32]!
   91fc4:	910003fd 	mov	x29, sp
   91fc8:	f9000fe0 	str	x0, [sp, #24]
   91fcc:	f9400fe0 	ldr	x0, [sp, #24]
   91fd0:	94000103 	bl	923dc <_ZNK8valkyrie6kernel9SharedPtrINS0_8FunctionIFvvEE13CallableIfaceEE3getEv>
   91fd4:	f100001f 	cmp	x0, #0x0
   91fd8:	1a9f07e0 	cset	w0, ne  // ne = any
   91fdc:	12001c00 	and	w0, w0, #0xff
   91fe0:	a8c27bfd 	ldp	x29, x30, [sp], #32
   91fe4:	d65f03c0 	ret

Disassembly of section .text._Z6printkIJPKN8valkyrie6kernel8FunctionIFvvEEEEEvPKcDpOT_:

0000000000091fe8 <_Z6printkIJPKN8valkyrie6kernel8FunctionIFvvEEEEEvPKcDpOT_>:
   91fe8:	a9bb7bfd 	stp	x29, x30, [sp, #-80]!
   91fec:	910003fd 	mov	x29, sp
   91ff0:	f9000fe0 	str	x0, [sp, #24]
   91ff4:	f9000be1 	str	x1, [sp, #16]
   91ff8:	d53be020 	mrs	x0, cntpct_el0
   91ffc:	f90027e0 	str	x0, [sp, #72]
   92000:	d53be000 	mrs	x0, cntfrq_el0
   92004:	f90023e0 	str	x0, [sp, #64]
   92008:	f94027e1 	ldr	x1, [sp, #72]
   9200c:	aa0103e0 	mov	x0, x1
   92010:	d37be800 	lsl	x0, x0, #5
   92014:	cb010000 	sub	x0, x0, x1
   92018:	d37ef400 	lsl	x0, x0, #2
   9201c:	8b010000 	add	x0, x0, x1
   92020:	d37df000 	lsl	x0, x0, #3
   92024:	aa0003e1 	mov	x1, x0
   92028:	f94023e0 	ldr	x0, [sp, #64]
   9202c:	9ac00820 	udiv	x0, x1, x0
   92030:	f9001fe0 	str	x0, [sp, #56]
   92034:	f9401fe0 	ldr	x0, [sp, #56]
   92038:	d343fc01 	lsr	x1, x0, #3
   9203c:	d29ef9e0 	mov	x0, #0xf7cf                	// #63439
   92040:	f2bc6a60 	movk	x0, #0xe353, lsl #16
   92044:	f2d374a0 	movk	x0, #0x9ba5, lsl #32
   92048:	f2e41880 	movk	x0, #0x20c4, lsl #48
   9204c:	9bc07c20 	umulh	x0, x1, x0
   92050:	d344fc00 	lsr	x0, x0, #4
   92054:	f90017e0 	str	x0, [sp, #40]
   92058:	f9401fe2 	ldr	x2, [sp, #56]
   9205c:	d343fc41 	lsr	x1, x2, #3
   92060:	d29ef9e0 	mov	x0, #0xf7cf                	// #63439
   92064:	f2bc6a60 	movk	x0, #0xe353, lsl #16
   92068:	f2d374a0 	movk	x0, #0x9ba5, lsl #32
   9206c:	f2e41880 	movk	x0, #0x20c4, lsl #48
   92070:	9bc07c20 	umulh	x0, x1, x0
   92074:	d344fc01 	lsr	x1, x0, #4
   92078:	aa0103e0 	mov	x0, x1
   9207c:	d37be800 	lsl	x0, x0, #5
   92080:	cb010000 	sub	x0, x0, x1
   92084:	d37ef400 	lsl	x0, x0, #2
   92088:	8b010000 	add	x0, x0, x1
   9208c:	d37df000 	lsl	x0, x0, #3
   92090:	cb000041 	sub	x1, x2, x0
   92094:	f9001be1 	str	x1, [sp, #48]
   92098:	9100c3e1 	add	x1, sp, #0x30
   9209c:	9100a3e0 	add	x0, sp, #0x28
   920a0:	aa0103e2 	mov	x2, x1
   920a4:	aa0003e1 	mov	x1, x0
   920a8:	f0ffffa0 	adrp	x0, 89000 <_ZN8valkyrie6kernel8FunctionIFvvEE12CallableImplIZNS0_16__run_unit_testsEvEUlvE_E4callEv+0x5e8>
   920ac:	91352000 	add	x0, x0, #0xd48
   920b0:	97ffefe5 	bl	8e044 <_Z6printfIJyyEEvPKcDpOT_>
   920b4:	f9400be1 	ldr	x1, [sp, #16]
   920b8:	f9400fe0 	ldr	x0, [sp, #24]
   920bc:	940000dd 	bl	92430 <_Z6printfIJRPKN8valkyrie6kernel8FunctionIFvvEEEEEvPKcDpOT_>
   920c0:	d503201f 	nop
   920c4:	a8c57bfd 	ldp	x29, x30, [sp], #80
   920c8:	d65f03c0 	ret

Disassembly of section .text._ZNK8valkyrie6kernel9SharedPtrINS0_8FunctionIFvvEE13CallableIfaceEEptEv:

00000000000920cc <_ZNK8valkyrie6kernel9SharedPtrINS0_8FunctionIFvvEE13CallableIfaceEEptEv>:
   920cc:	a9be7bfd 	stp	x29, x30, [sp, #-32]!
   920d0:	910003fd 	mov	x29, sp
   920d4:	f9000fe0 	str	x0, [sp, #24]
   920d8:	f9400fe0 	ldr	x0, [sp, #24]
   920dc:	940000c0 	bl	923dc <_ZNK8valkyrie6kernel9SharedPtrINS0_8FunctionIFvvEE13CallableIfaceEE3getEv>
   920e0:	a8c27bfd 	ldp	x29, x30, [sp], #32
   920e4:	d65f03c0 	ret

Disassembly of section .text._ZN8valkyrie6kernel4moveIRNS0_16TimerMultiplexer5EventEEEONS0_16_RemoveReferenceIT_E4TypeEOS6_:

00000000000920e8 <_ZN8valkyrie6kernel4moveIRNS0_16TimerMultiplexer5EventEEEONS0_16_RemoveReferenceIT_E4TypeEOS6_>:
   920e8:	d10043ff 	sub	sp, sp, #0x10
   920ec:	f90007e0 	str	x0, [sp, #8]
   920f0:	f94007e0 	ldr	x0, [sp, #8]
   920f4:	910043ff 	add	sp, sp, #0x10
   920f8:	d65f03c0 	ret

Disassembly of section .text._ZN8valkyrie6kernel8FunctionIFvvEEaSEOS3_:

00000000000920fc <_ZN8valkyrie6kernel8FunctionIFvvEEaSEOS3_>:
   920fc:	a9be7bfd 	stp	x29, x30, [sp, #-32]!
   92100:	910003fd 	mov	x29, sp
   92104:	f9000fe0 	str	x0, [sp, #24]
   92108:	f9000be1 	str	x1, [sp, #16]
   9210c:	f9400be0 	ldr	x0, [sp, #16]
   92110:	940000d4 	bl	92460 <_ZN8valkyrie6kernel4moveIRNS0_9SharedPtrINS0_8FunctionIFvvEE13CallableIfaceEEEEEONS0_16_RemoveReferenceIT_E4TypeEOSA_>
   92114:	aa0003e1 	mov	x1, x0
   92118:	f9400fe0 	ldr	x0, [sp, #24]
   9211c:	97fff61d 	bl	8f990 <_ZN8valkyrie6kernel9SharedPtrINS0_8FunctionIFvvEE13CallableIfaceEEaSEOS6_>
   92120:	f9400fe0 	ldr	x0, [sp, #24]
   92124:	a8c27bfd 	ldp	x29, x30, [sp], #32
   92128:	d65f03c0 	ret

Disassembly of section .text._ZN8valkyrie6kernel5DequeINS0_16TimerMultiplexer5EventEE6resizeEmb:

000000000009212c <_ZN8valkyrie6kernel5DequeINS0_16TimerMultiplexer5EventEE6resizeEmb>:
   9212c:	a9ba7bfd 	stp	x29, x30, [sp, #-96]!
   92130:	910003fd 	mov	x29, sp
   92134:	f9000bf3 	str	x19, [sp, #16]
   92138:	f9001fe0 	str	x0, [sp, #56]
   9213c:	f9001be1 	str	x1, [sp, #48]
   92140:	3900bfe2 	strb	w2, [sp, #47]
   92144:	d2800080 	mov	x0, #0x4                   	// #4
   92148:	f9002be0 	str	x0, [sp, #80]
   9214c:	9100c3e1 	add	x1, sp, #0x30
   92150:	910143e0 	add	x0, sp, #0x50
   92154:	97fff6dd 	bl	8fcc8 <_ZN8valkyrie6kernel3maxImEERKT_S4_S4_>
   92158:	f9400001 	ldr	x1, [x0]
   9215c:	f9401fe0 	ldr	x0, [sp, #56]
   92160:	f9000801 	str	x1, [x0, #16]
   92164:	f9401fe0 	ldr	x0, [sp, #56]
   92168:	f9400800 	ldr	x0, [x0, #16]
   9216c:	910123e1 	add	x1, sp, #0x48
   92170:	aa0103e8 	mov	x8, x1
   92174:	97ffff4c 	bl	91ea4 <_ZN8valkyrie6kernel11make_uniqueIA_NS0_16TimerMultiplexer5EventEEENS0_9_UniqueIfIT_E13_UnknownBoundEm>
   92178:	3940bfe0 	ldrb	w0, [sp, #47]
   9217c:	7100001f 	cmp	w0, #0x0
   92180:	540002a0 	b.eq	921d4 <_ZN8valkyrie6kernel5DequeINS0_16TimerMultiplexer5EventEE6resizeEmb+0xa8>  // b.none
   92184:	f9002fff 	str	xzr, [sp, #88]
   92188:	f9401fe0 	ldr	x0, [sp, #56]
   9218c:	f9400400 	ldr	x0, [x0, #8]
   92190:	f9402fe1 	ldr	x1, [sp, #88]
   92194:	eb00003f 	cmp	x1, x0
   92198:	540001e2 	b.cs	921d4 <_ZN8valkyrie6kernel5DequeINS0_16TimerMultiplexer5EventEE6resizeEmb+0xa8>  // b.hs, b.nlast
   9219c:	f9401fe0 	ldr	x0, [sp, #56]
   921a0:	f9402fe1 	ldr	x1, [sp, #88]
   921a4:	97ffff78 	bl	91f84 <_ZN8valkyrie6kernel9UniquePtrIA_NS0_16TimerMultiplexer5EventEEixEm>
   921a8:	97ffffd0 	bl	920e8 <_ZN8valkyrie6kernel4moveIRNS0_16TimerMultiplexer5EventEEEONS0_16_RemoveReferenceIT_E4TypeEOS6_>
   921ac:	aa0003f3 	mov	x19, x0
   921b0:	910123e0 	add	x0, sp, #0x48
   921b4:	f9402fe1 	ldr	x1, [sp, #88]
   921b8:	97ffff73 	bl	91f84 <_ZN8valkyrie6kernel9UniquePtrIA_NS0_16TimerMultiplexer5EventEEixEm>
   921bc:	aa1303e1 	mov	x1, x19
   921c0:	97fffe68 	bl	91b60 <_ZN8valkyrie6kernel16TimerMultiplexer5EventaSEOS2_>
   921c4:	f9402fe0 	ldr	x0, [sp, #88]
   921c8:	91000400 	add	x0, x0, #0x1
   921cc:	f9002fe0 	str	x0, [sp, #88]
   921d0:	17ffffee 	b	92188 <_ZN8valkyrie6kernel5DequeINS0_16TimerMultiplexer5EventEE6resizeEmb+0x5c>
   921d4:	f9401fe0 	ldr	x0, [sp, #56]
   921d8:	d2800001 	mov	x1, #0x0                   	// #0
   921dc:	97fffee8 	bl	91d7c <_ZN8valkyrie6kernel9UniquePtrIA_NS0_16TimerMultiplexer5EventEE5resetEPS3_>
   921e0:	910123e0 	add	x0, sp, #0x48
   921e4:	940000a4 	bl	92474 <_ZN8valkyrie6kernel4moveIRNS0_9UniquePtrIA_NS0_16TimerMultiplexer5EventEEEEEONS0_16_RemoveReferenceIT_E4TypeEOS9_>
   921e8:	aa0003e1 	mov	x1, x0
   921ec:	f9401fe0 	ldr	x0, [sp, #56]
   921f0:	940000a6 	bl	92488 <_ZN8valkyrie6kernel9UniquePtrIA_NS0_16TimerMultiplexer5EventEEaSEOS5_>
   921f4:	910123e0 	add	x0, sp, #0x48
   921f8:	97fffdd9 	bl	9195c <_ZN8valkyrie6kernel9UniquePtrIA_NS0_16TimerMultiplexer5EventEED1Ev>
   921fc:	d503201f 	nop
   92200:	f9400bf3 	ldr	x19, [sp, #16]
   92204:	a8c67bfd 	ldp	x29, x30, [sp], #96
   92208:	d65f03c0 	ret

Disassembly of section .text._ZN8valkyrie6kernel7forwardINS0_16TimerMultiplexer5EventEEEOT_RNS0_16_RemoveReferenceIS4_E4TypeE:

000000000009220c <_ZN8valkyrie6kernel7forwardINS0_16TimerMultiplexer5EventEEEOT_RNS0_16_RemoveReferenceIS4_E4TypeE>:
   9220c:	d10043ff 	sub	sp, sp, #0x10
   92210:	f90007e0 	str	x0, [sp, #8]
   92214:	f94007e0 	ldr	x0, [sp, #8]
   92218:	910043ff 	add	sp, sp, #0x10
   9221c:	d65f03c0 	ret

Disassembly of section .text._ZN8valkyrie6kernel5DequeINS0_16TimerMultiplexer5EventEE6insertIS3_EEviOT_:

0000000000092220 <_ZN8valkyrie6kernel5DequeINS0_16TimerMultiplexer5EventEE6insertIS3_EEviOT_>:
   92220:	a9bb7bfd 	stp	x29, x30, [sp, #-80]!
   92224:	910003fd 	mov	x29, sp
   92228:	f9000bf3 	str	x19, [sp, #16]
   9222c:	f9001fe0 	str	x0, [sp, #56]
   92230:	b90037e1 	str	w1, [sp, #52]
   92234:	f90017e2 	str	x2, [sp, #40]
   92238:	f9401fe0 	ldr	x0, [sp, #56]
   9223c:	f9400401 	ldr	x1, [x0, #8]
   92240:	f9401fe0 	ldr	x0, [sp, #56]
   92244:	f9400800 	ldr	x0, [x0, #16]
   92248:	eb00003f 	cmp	x1, x0
   9224c:	54000101 	b.ne	9226c <_ZN8valkyrie6kernel5DequeINS0_16TimerMultiplexer5EventEE6insertIS3_EEviOT_+0x4c>  // b.any
   92250:	f9401fe0 	ldr	x0, [sp, #56]
   92254:	f9400800 	ldr	x0, [x0, #16]
   92258:	d37ff800 	lsl	x0, x0, #1
   9225c:	52800022 	mov	w2, #0x1                   	// #1
   92260:	aa0003e1 	mov	x1, x0
   92264:	f9401fe0 	ldr	x0, [sp, #56]
   92268:	97ffffb1 	bl	9212c <_ZN8valkyrie6kernel5DequeINS0_16TimerMultiplexer5EventEE6resizeEmb>
   9226c:	f9401fe0 	ldr	x0, [sp, #56]
   92270:	f9400400 	ldr	x0, [x0, #8]
   92274:	b9004fe0 	str	w0, [sp, #76]
   92278:	b9404fe1 	ldr	w1, [sp, #76]
   9227c:	b94037e0 	ldr	w0, [sp, #52]
   92280:	6b00003f 	cmp	w1, w0
   92284:	5400026d 	b.le	922d0 <_ZN8valkyrie6kernel5DequeINS0_16TimerMultiplexer5EventEE6insertIS3_EEviOT_+0xb0>
   92288:	f9401fe2 	ldr	x2, [sp, #56]
   9228c:	b9404fe0 	ldr	w0, [sp, #76]
   92290:	51000400 	sub	w0, w0, #0x1
   92294:	93407c00 	sxtw	x0, w0
   92298:	aa0003e1 	mov	x1, x0
   9229c:	aa0203e0 	mov	x0, x2
   922a0:	97ffff39 	bl	91f84 <_ZN8valkyrie6kernel9UniquePtrIA_NS0_16TimerMultiplexer5EventEEixEm>
   922a4:	97ffffda 	bl	9220c <_ZN8valkyrie6kernel7forwardINS0_16TimerMultiplexer5EventEEEOT_RNS0_16_RemoveReferenceIS4_E4TypeE>
   922a8:	aa0003f3 	mov	x19, x0
   922ac:	f9401fe0 	ldr	x0, [sp, #56]
   922b0:	b9804fe1 	ldrsw	x1, [sp, #76]
   922b4:	97ffff34 	bl	91f84 <_ZN8valkyrie6kernel9UniquePtrIA_NS0_16TimerMultiplexer5EventEEixEm>
   922b8:	aa1303e1 	mov	x1, x19
   922bc:	97fffe29 	bl	91b60 <_ZN8valkyrie6kernel16TimerMultiplexer5EventaSEOS2_>
   922c0:	b9404fe0 	ldr	w0, [sp, #76]
   922c4:	51000400 	sub	w0, w0, #0x1
   922c8:	b9004fe0 	str	w0, [sp, #76]
   922cc:	17ffffeb 	b	92278 <_ZN8valkyrie6kernel5DequeINS0_16TimerMultiplexer5EventEE6insertIS3_EEviOT_+0x58>
   922d0:	f94017e0 	ldr	x0, [sp, #40]
   922d4:	97ffffce 	bl	9220c <_ZN8valkyrie6kernel7forwardINS0_16TimerMultiplexer5EventEEEOT_RNS0_16_RemoveReferenceIS4_E4TypeE>
   922d8:	aa0003f3 	mov	x19, x0
   922dc:	f9401fe0 	ldr	x0, [sp, #56]
   922e0:	b98037e1 	ldrsw	x1, [sp, #52]
   922e4:	97ffff28 	bl	91f84 <_ZN8valkyrie6kernel9UniquePtrIA_NS0_16TimerMultiplexer5EventEEixEm>
   922e8:	aa1303e1 	mov	x1, x19
   922ec:	97fffe1d 	bl	91b60 <_ZN8valkyrie6kernel16TimerMultiplexer5EventaSEOS2_>
   922f0:	f9401fe0 	ldr	x0, [sp, #56]
   922f4:	f9400400 	ldr	x0, [x0, #8]
   922f8:	91000401 	add	x1, x0, #0x1
   922fc:	f9401fe0 	ldr	x0, [sp, #56]
   92300:	f9000401 	str	x1, [x0, #8]
   92304:	d503201f 	nop
   92308:	f9400bf3 	ldr	x19, [sp, #16]
   9230c:	a8c57bfd 	ldp	x29, x30, [sp], #80
   92310:	d65f03c0 	ret

Disassembly of section .text._ZN8valkyrie6kernel9UniquePtrINS0_16TimerMultiplexer5EventEE5resetEPS3_:

0000000000092314 <_ZN8valkyrie6kernel9UniquePtrINS0_16TimerMultiplexer5EventEE5resetEPS3_>:
   92314:	a9bd7bfd 	stp	x29, x30, [sp, #-48]!
   92318:	910003fd 	mov	x29, sp
   9231c:	f9000bf3 	str	x19, [sp, #16]
   92320:	f90017e0 	str	x0, [sp, #40]
   92324:	f90013e1 	str	x1, [sp, #32]
   92328:	f94017e0 	ldr	x0, [sp, #40]
   9232c:	f9400000 	ldr	x0, [x0]
   92330:	f94013e1 	ldr	x1, [sp, #32]
   92334:	eb00003f 	cmp	x1, x0
   92338:	540001c0 	b.eq	92370 <_ZN8valkyrie6kernel9UniquePtrINS0_16TimerMultiplexer5EventEE5resetEPS3_+0x5c>  // b.none
   9233c:	f94017e0 	ldr	x0, [sp, #40]
   92340:	f9400013 	ldr	x19, [x0]
   92344:	f100027f 	cmp	x19, #0x0
   92348:	540000c0 	b.eq	92360 <_ZN8valkyrie6kernel9UniquePtrINS0_16TimerMultiplexer5EventEE5resetEPS3_+0x4c>  // b.none
   9234c:	aa1303e0 	mov	x0, x19
   92350:	97fffd7b 	bl	9193c <_ZN8valkyrie6kernel16TimerMultiplexer5EventD1Ev>
   92354:	d2800301 	mov	x1, #0x18                  	// #24
   92358:	aa1303e0 	mov	x0, x19
   9235c:	97ffc2b9 	bl	82e40 <_ZdlPvm>
   92360:	f94017e0 	ldr	x0, [sp, #40]
   92364:	f94013e1 	ldr	x1, [sp, #32]
   92368:	f9000001 	str	x1, [x0]
   9236c:	14000002 	b	92374 <_ZN8valkyrie6kernel9UniquePtrINS0_16TimerMultiplexer5EventEE5resetEPS3_+0x60>
   92370:	d503201f 	nop
   92374:	f9400bf3 	ldr	x19, [sp, #16]
   92378:	a8c37bfd 	ldp	x29, x30, [sp], #48
   9237c:	d65f03c0 	ret

Disassembly of section .text._ZN8valkyrie6kernel8FunctionIFvvEEC2Ev:

0000000000092380 <_ZN8valkyrie6kernel8FunctionIFvvEEC1Ev>:
   92380:	a9be7bfd 	stp	x29, x30, [sp, #-32]!
   92384:	910003fd 	mov	x29, sp
   92388:	f9000fe0 	str	x0, [sp, #24]
   9238c:	f9400fe0 	ldr	x0, [sp, #24]
   92390:	97fff564 	bl	8f920 <_ZN8valkyrie6kernel9SharedPtrINS0_8FunctionIFvvEE13CallableIfaceEEC1Ev>
   92394:	d503201f 	nop
   92398:	a8c27bfd 	ldp	x29, x30, [sp], #32
   9239c:	d65f03c0 	ret

Disassembly of section .text._ZN8valkyrie6kernel9UniquePtrINS0_16TimerMultiplexer5EventEEC2EPS3_:

00000000000923a0 <_ZN8valkyrie6kernel9UniquePtrINS0_16TimerMultiplexer5EventEEC1EPS3_>:
   923a0:	d10043ff 	sub	sp, sp, #0x10
   923a4:	f90007e0 	str	x0, [sp, #8]
   923a8:	f90003e1 	str	x1, [sp]
   923ac:	f94007e0 	ldr	x0, [sp, #8]
   923b0:	f94003e1 	ldr	x1, [sp]
   923b4:	f9000001 	str	x1, [x0]
   923b8:	d503201f 	nop
   923bc:	910043ff 	add	sp, sp, #0x10
   923c0:	d65f03c0 	ret

Disassembly of section .text._ZNK8valkyrie6kernel9UniquePtrINS0_16TimerMultiplexer5EventEE3getEv:

00000000000923c4 <_ZNK8valkyrie6kernel9UniquePtrINS0_16TimerMultiplexer5EventEE3getEv>:
   923c4:	d10043ff 	sub	sp, sp, #0x10
   923c8:	f90007e0 	str	x0, [sp, #8]
   923cc:	f94007e0 	ldr	x0, [sp, #8]
   923d0:	f9400000 	ldr	x0, [x0]
   923d4:	910043ff 	add	sp, sp, #0x10
   923d8:	d65f03c0 	ret

Disassembly of section .text._ZNK8valkyrie6kernel9SharedPtrINS0_8FunctionIFvvEE13CallableIfaceEE3getEv:

00000000000923dc <_ZNK8valkyrie6kernel9SharedPtrINS0_8FunctionIFvvEE13CallableIfaceEE3getEv>:
   923dc:	d10043ff 	sub	sp, sp, #0x10
   923e0:	f90007e0 	str	x0, [sp, #8]
   923e4:	f94007e0 	ldr	x0, [sp, #8]
   923e8:	f9400400 	ldr	x0, [x0, #8]
   923ec:	f100001f 	cmp	x0, #0x0
   923f0:	54000080 	b.eq	92400 <_ZNK8valkyrie6kernel9SharedPtrINS0_8FunctionIFvvEE13CallableIfaceEE3getEv+0x24>  // b.none
   923f4:	f94007e0 	ldr	x0, [sp, #8]
   923f8:	f9400400 	ldr	x0, [x0, #8]
   923fc:	1400000b 	b	92428 <_ZNK8valkyrie6kernel9SharedPtrINS0_8FunctionIFvvEE13CallableIfaceEE3getEv+0x4c>
   92400:	f94007e0 	ldr	x0, [sp, #8]
   92404:	f9400000 	ldr	x0, [x0]
   92408:	f100001f 	cmp	x0, #0x0
   9240c:	540000a0 	b.eq	92420 <_ZNK8valkyrie6kernel9SharedPtrINS0_8FunctionIFvvEE13CallableIfaceEE3getEv+0x44>  // b.none
   92410:	f94007e0 	ldr	x0, [sp, #8]
   92414:	f9400000 	ldr	x0, [x0]
   92418:	f9400000 	ldr	x0, [x0]
   9241c:	14000002 	b	92424 <_ZNK8valkyrie6kernel9SharedPtrINS0_8FunctionIFvvEE13CallableIfaceEE3getEv+0x48>
   92420:	d2800000 	mov	x0, #0x0                   	// #0
   92424:	d503201f 	nop
   92428:	910043ff 	add	sp, sp, #0x10
   9242c:	d65f03c0 	ret

Disassembly of section .text._Z6printfIJRPKN8valkyrie6kernel8FunctionIFvvEEEEEvPKcDpOT_:

0000000000092430 <_Z6printfIJRPKN8valkyrie6kernel8FunctionIFvvEEEEEvPKcDpOT_>:
   92430:	a9be7bfd 	stp	x29, x30, [sp, #-32]!
   92434:	910003fd 	mov	x29, sp
   92438:	f9000fe0 	str	x0, [sp, #24]
   9243c:	f9000be1 	str	x1, [sp, #16]
   92440:	f9400be0 	ldr	x0, [sp, #16]
   92444:	f9400000 	ldr	x0, [x0]
   92448:	aa0003e1 	mov	x1, x0
   9244c:	f9400fe0 	ldr	x0, [sp, #24]
   92450:	97ffca2c 	bl	84d00 <_Z10tfp_printfPcz>
   92454:	d503201f 	nop
   92458:	a8c27bfd 	ldp	x29, x30, [sp], #32
   9245c:	d65f03c0 	ret

Disassembly of section .text._ZN8valkyrie6kernel4moveIRNS0_9SharedPtrINS0_8FunctionIFvvEE13CallableIfaceEEEEEONS0_16_RemoveReferenceIT_E4TypeEOSA_:

0000000000092460 <_ZN8valkyrie6kernel4moveIRNS0_9SharedPtrINS0_8FunctionIFvvEE13CallableIfaceEEEEEONS0_16_RemoveReferenceIT_E4TypeEOSA_>:
   92460:	d10043ff 	sub	sp, sp, #0x10
   92464:	f90007e0 	str	x0, [sp, #8]
   92468:	f94007e0 	ldr	x0, [sp, #8]
   9246c:	910043ff 	add	sp, sp, #0x10
   92470:	d65f03c0 	ret

Disassembly of section .text._ZN8valkyrie6kernel4moveIRNS0_9UniquePtrIA_NS0_16TimerMultiplexer5EventEEEEEONS0_16_RemoveReferenceIT_E4TypeEOS9_:

0000000000092474 <_ZN8valkyrie6kernel4moveIRNS0_9UniquePtrIA_NS0_16TimerMultiplexer5EventEEEEEONS0_16_RemoveReferenceIT_E4TypeEOS9_>:
   92474:	d10043ff 	sub	sp, sp, #0x10
   92478:	f90007e0 	str	x0, [sp, #8]
   9247c:	f94007e0 	ldr	x0, [sp, #8]
   92480:	910043ff 	add	sp, sp, #0x10
   92484:	d65f03c0 	ret

Disassembly of section .text._ZN8valkyrie6kernel9UniquePtrIA_NS0_16TimerMultiplexer5EventEEaSEOS5_:

0000000000092488 <_ZN8valkyrie6kernel9UniquePtrIA_NS0_16TimerMultiplexer5EventEEaSEOS5_>:
   92488:	a9be7bfd 	stp	x29, x30, [sp, #-32]!
   9248c:	910003fd 	mov	x29, sp
   92490:	f9000fe0 	str	x0, [sp, #24]
   92494:	f9000be1 	str	x1, [sp, #16]
   92498:	f9400be0 	ldr	x0, [sp, #16]
   9249c:	94000007 	bl	924b8 <_ZN8valkyrie6kernel9UniquePtrINS0_16TimerMultiplexer5EventEE7releaseEv>
   924a0:	aa0003e1 	mov	x1, x0
   924a4:	f9400fe0 	ldr	x0, [sp, #24]
   924a8:	97fffe35 	bl	91d7c <_ZN8valkyrie6kernel9UniquePtrIA_NS0_16TimerMultiplexer5EventEE5resetEPS3_>
   924ac:	f9400fe0 	ldr	x0, [sp, #24]
   924b0:	a8c27bfd 	ldp	x29, x30, [sp], #32
   924b4:	d65f03c0 	ret

Disassembly of section .text._ZN8valkyrie6kernel9UniquePtrINS0_16TimerMultiplexer5EventEE7releaseEv:

00000000000924b8 <_ZN8valkyrie6kernel9UniquePtrINS0_16TimerMultiplexer5EventEE7releaseEv>:
   924b8:	d10083ff 	sub	sp, sp, #0x20
   924bc:	f90007e0 	str	x0, [sp, #8]
   924c0:	f94007e0 	ldr	x0, [sp, #8]
   924c4:	f9400000 	ldr	x0, [x0]
   924c8:	f9000fe0 	str	x0, [sp, #24]
   924cc:	f94007e0 	ldr	x0, [sp, #8]
   924d0:	f900001f 	str	xzr, [x0]
   924d4:	f9400fe0 	ldr	x0, [sp, #24]
   924d8:	910083ff 	add	sp, sp, #0x20
   924dc:	d65f03c0 	ret

Disassembly of section .text._ZN8valkyrie6kernel4BaseC2Ev:

00000000000924e0 <_ZN8valkyrie6kernel4BaseC1Ev>:
   924e0:	a9be7bfd 	stp	x29, x30, [sp, #-32]!
   924e4:	910003fd 	mov	x29, sp
   924e8:	f9000fe0 	str	x0, [sp, #24]
   924ec:	b0000000 	adrp	x0, 93000 <_ZTVN8valkyrie6kernel8FunctionIFbRNS0_9UniquePtrINS0_4TaskEEEEE12CallableImplIZNS0_13TaskScheduler11remove_taskERKS3_EUlRT_E_EE+0x18>
   924f0:	91030001 	add	x1, x0, #0xc0
   924f4:	f9400fe0 	ldr	x0, [sp, #24]
   924f8:	f9000001 	str	x1, [x0]
   924fc:	f0ffffa0 	adrp	x0, 89000 <_ZN8valkyrie6kernel8FunctionIFvvEE12CallableImplIZNS0_16__run_unit_testsEvEUlvE_E4callEv+0x5e8>
   92500:	91362000 	add	x0, x0, #0xd88
   92504:	97ffeec8 	bl	8e024 <_Z6printfIJEEvPKcDpOT_>
   92508:	d503201f 	nop
   9250c:	a8c27bfd 	ldp	x29, x30, [sp], #32
   92510:	d65f03c0 	ret

Disassembly of section .text._ZN8valkyrie6kernel4BaseD2Ev:

0000000000092514 <_ZN8valkyrie6kernel4BaseD1Ev>:
   92514:	a9be7bfd 	stp	x29, x30, [sp, #-32]!
   92518:	910003fd 	mov	x29, sp
   9251c:	f9000fe0 	str	x0, [sp, #24]
   92520:	b0000000 	adrp	x0, 93000 <_ZTVN8valkyrie6kernel8FunctionIFbRNS0_9UniquePtrINS0_4TaskEEEEE12CallableImplIZNS0_13TaskScheduler11remove_taskERKS3_EUlRT_E_EE+0x18>
   92524:	91030001 	add	x1, x0, #0xc0
   92528:	f9400fe0 	ldr	x0, [sp, #24]
   9252c:	f9000001 	str	x1, [x0]
   92530:	f0ffffa0 	adrp	x0, 89000 <_ZN8valkyrie6kernel8FunctionIFvvEE12CallableImplIZNS0_16__run_unit_testsEvEUlvE_E4callEv+0x5e8>
   92534:	91366000 	add	x0, x0, #0xd98
   92538:	97ffeebb 	bl	8e024 <_Z6printfIJEEvPKcDpOT_>
   9253c:	d503201f 	nop
   92540:	a8c27bfd 	ldp	x29, x30, [sp], #32
   92544:	d65f03c0 	ret

Disassembly of section .text._ZN8valkyrie6kernel4BaseD0Ev:

0000000000092548 <_ZN8valkyrie6kernel4BaseD0Ev>:
   92548:	a9be7bfd 	stp	x29, x30, [sp, #-32]!
   9254c:	910003fd 	mov	x29, sp
   92550:	f9000fe0 	str	x0, [sp, #24]
   92554:	f9400fe0 	ldr	x0, [sp, #24]
   92558:	97ffffef 	bl	92514 <_ZN8valkyrie6kernel4BaseD1Ev>
   9255c:	d2800101 	mov	x1, #0x8                   	// #8
   92560:	f9400fe0 	ldr	x0, [sp, #24]
   92564:	97ffc237 	bl	82e40 <_ZdlPvm>
   92568:	a8c27bfd 	ldp	x29, x30, [sp], #32
   9256c:	d65f03c0 	ret

Disassembly of section .text._ZN8valkyrie6kernel4Base4funcEv:

0000000000092570 <_ZN8valkyrie6kernel4Base4funcEv>:
   92570:	a9be7bfd 	stp	x29, x30, [sp, #-32]!
   92574:	910003fd 	mov	x29, sp
   92578:	f9000fe0 	str	x0, [sp, #24]
   9257c:	f0ffffa0 	adrp	x0, 89000 <_ZN8valkyrie6kernel8FunctionIFvvEE12CallableImplIZNS0_16__run_unit_testsEvEUlvE_E4callEv+0x5e8>
   92580:	9136a000 	add	x0, x0, #0xda8
   92584:	97ffeea8 	bl	8e024 <_Z6printfIJEEvPKcDpOT_>
   92588:	d503201f 	nop
   9258c:	a8c27bfd 	ldp	x29, x30, [sp], #32
   92590:	d65f03c0 	ret

Disassembly of section .text._ZN8valkyrie6kernel7DerivedC2Ev:

0000000000092594 <_ZN8valkyrie6kernel7DerivedC1Ev>:
   92594:	a9be7bfd 	stp	x29, x30, [sp, #-32]!
   92598:	910003fd 	mov	x29, sp
   9259c:	f9000fe0 	str	x0, [sp, #24]
   925a0:	f9400fe0 	ldr	x0, [sp, #24]
   925a4:	97ffffcf 	bl	924e0 <_ZN8valkyrie6kernel4BaseC1Ev>
   925a8:	b0000000 	adrp	x0, 93000 <_ZTVN8valkyrie6kernel8FunctionIFbRNS0_9UniquePtrINS0_4TaskEEEEE12CallableImplIZNS0_13TaskScheduler11remove_taskERKS3_EUlRT_E_EE+0x18>
   925ac:	91026001 	add	x1, x0, #0x98
   925b0:	f9400fe0 	ldr	x0, [sp, #24]
   925b4:	f9000001 	str	x1, [x0]
   925b8:	f0ffffa0 	adrp	x0, 89000 <_ZN8valkyrie6kernel8FunctionIFvvEE12CallableImplIZNS0_16__run_unit_testsEvEUlvE_E4callEv+0x5e8>
   925bc:	9136e000 	add	x0, x0, #0xdb8
   925c0:	97ffee99 	bl	8e024 <_Z6printfIJEEvPKcDpOT_>
   925c4:	d503201f 	nop
   925c8:	a8c27bfd 	ldp	x29, x30, [sp], #32
   925cc:	d65f03c0 	ret

Disassembly of section .text._ZN8valkyrie6kernel7DerivedD2Ev:

00000000000925d0 <_ZN8valkyrie6kernel7DerivedD1Ev>:
   925d0:	a9be7bfd 	stp	x29, x30, [sp, #-32]!
   925d4:	910003fd 	mov	x29, sp
   925d8:	f9000fe0 	str	x0, [sp, #24]
   925dc:	b0000000 	adrp	x0, 93000 <_ZTVN8valkyrie6kernel8FunctionIFbRNS0_9UniquePtrINS0_4TaskEEEEE12CallableImplIZNS0_13TaskScheduler11remove_taskERKS3_EUlRT_E_EE+0x18>
   925e0:	91026001 	add	x1, x0, #0x98
   925e4:	f9400fe0 	ldr	x0, [sp, #24]
   925e8:	f9000001 	str	x1, [x0]
   925ec:	f0ffffa0 	adrp	x0, 89000 <_ZN8valkyrie6kernel8FunctionIFvvEE12CallableImplIZNS0_16__run_unit_testsEvEUlvE_E4callEv+0x5e8>
   925f0:	91374000 	add	x0, x0, #0xdd0
   925f4:	97ffee8c 	bl	8e024 <_Z6printfIJEEvPKcDpOT_>
   925f8:	f9400fe0 	ldr	x0, [sp, #24]
   925fc:	97ffffc6 	bl	92514 <_ZN8valkyrie6kernel4BaseD1Ev>
   92600:	d503201f 	nop
   92604:	a8c27bfd 	ldp	x29, x30, [sp], #32
   92608:	d65f03c0 	ret

Disassembly of section .text._ZN8valkyrie6kernel7DerivedD0Ev:

000000000009260c <_ZN8valkyrie6kernel7DerivedD0Ev>:
   9260c:	a9be7bfd 	stp	x29, x30, [sp, #-32]!
   92610:	910003fd 	mov	x29, sp
   92614:	f9000fe0 	str	x0, [sp, #24]
   92618:	f9400fe0 	ldr	x0, [sp, #24]
   9261c:	97ffffed 	bl	925d0 <_ZN8valkyrie6kernel7DerivedD1Ev>
   92620:	d2800101 	mov	x1, #0x8                   	// #8
   92624:	f9400fe0 	ldr	x0, [sp, #24]
   92628:	97ffc206 	bl	82e40 <_ZdlPvm>
   9262c:	a8c27bfd 	ldp	x29, x30, [sp], #32
   92630:	d65f03c0 	ret

Disassembly of section .text._ZN8valkyrie6kernel7Derived4funcEv:

0000000000092634 <_ZN8valkyrie6kernel7Derived4funcEv>:
   92634:	a9be7bfd 	stp	x29, x30, [sp, #-32]!
   92638:	910003fd 	mov	x29, sp
   9263c:	f9000fe0 	str	x0, [sp, #24]
   92640:	f0ffffa0 	adrp	x0, 89000 <_ZN8valkyrie6kernel8FunctionIFvvEE12CallableImplIZNS0_16__run_unit_testsEvEUlvE_E4callEv+0x5e8>
   92644:	9137a000 	add	x0, x0, #0xde8
   92648:	97ffee77 	bl	8e024 <_Z6printfIJEEvPKcDpOT_>
   9264c:	d503201f 	nop
   92650:	a8c27bfd 	ldp	x29, x30, [sp], #32
   92654:	d65f03c0 	ret

Disassembly of section .text._ZN8valkyrie6kernel5DequeINS0_9UniquePtrINS0_7DerivedEEEED2Ev:

0000000000092658 <_ZN8valkyrie6kernel5DequeINS0_9UniquePtrINS0_7DerivedEEEED1Ev>:
   92658:	a9be7bfd 	stp	x29, x30, [sp, #-32]!
   9265c:	910003fd 	mov	x29, sp
   92660:	f9000fe0 	str	x0, [sp, #24]
   92664:	f9400fe0 	ldr	x0, [sp, #24]
   92668:	94000014 	bl	926b8 <_ZN8valkyrie6kernel9UniquePtrIA_NS1_INS0_7DerivedEEEED1Ev>
   9266c:	d503201f 	nop
   92670:	a8c27bfd 	ldp	x29, x30, [sp], #32
   92674:	d65f03c0 	ret

Disassembly of section .text._ZN8valkyrie6kernel5DequeINS0_9UniquePtrINS0_7DerivedEEEEC2Ei:

0000000000092678 <_ZN8valkyrie6kernel5DequeINS0_9UniquePtrINS0_7DerivedEEEEC1Ei>:
   92678:	a9be7bfd 	stp	x29, x30, [sp, #-32]!
   9267c:	910003fd 	mov	x29, sp
   92680:	f9000fe0 	str	x0, [sp, #24]
   92684:	b90017e1 	str	w1, [sp, #20]
   92688:	b98017e0 	ldrsw	x0, [sp, #20]
   9268c:	f9400fe1 	ldr	x1, [sp, #24]
   92690:	aa0103e8 	mov	x8, x1
   92694:	940000c9 	bl	929b8 <_ZN8valkyrie6kernel11make_uniqueIA_NS0_9UniquePtrINS0_7DerivedEEEEENS0_9_UniqueIfIT_E13_UnknownBoundEm>
   92698:	f9400fe0 	ldr	x0, [sp, #24]
   9269c:	f900041f 	str	xzr, [x0, #8]
   926a0:	b98017e1 	ldrsw	x1, [sp, #20]
   926a4:	f9400fe0 	ldr	x0, [sp, #24]
   926a8:	f9000801 	str	x1, [x0, #16]
   926ac:	d503201f 	nop
   926b0:	a8c27bfd 	ldp	x29, x30, [sp], #32
   926b4:	d65f03c0 	ret

Disassembly of section .text._ZN8valkyrie6kernel9UniquePtrIA_NS1_INS0_7DerivedEEEED2Ev:

00000000000926b8 <_ZN8valkyrie6kernel9UniquePtrIA_NS1_INS0_7DerivedEEEED1Ev>:
   926b8:	a9be7bfd 	stp	x29, x30, [sp, #-32]!
   926bc:	910003fd 	mov	x29, sp
   926c0:	f9000fe0 	str	x0, [sp, #24]
   926c4:	d2800001 	mov	x1, #0x0                   	// #0
   926c8:	f9400fe0 	ldr	x0, [sp, #24]
   926cc:	940000e9 	bl	92a70 <_ZN8valkyrie6kernel9UniquePtrIA_NS1_INS0_7DerivedEEEE5resetEPS3_>
   926d0:	f9400fe0 	ldr	x0, [sp, #24]
   926d4:	940000de 	bl	92a4c <_ZN8valkyrie6kernel9UniquePtrINS1_INS0_7DerivedEEEED1Ev>
   926d8:	d503201f 	nop
   926dc:	a8c27bfd 	ldp	x29, x30, [sp], #32
   926e0:	d65f03c0 	ret

Disassembly of section .text._ZN8valkyrie6kernel11make_uniqueINS0_7DerivedEJEEENS0_9_UniqueIfIT_E13_SingleObjectEDpOT0_:

00000000000926e4 <_ZN8valkyrie6kernel11make_uniqueINS0_7DerivedEJEEENS0_9_UniqueIfIT_E13_SingleObjectEDpOT0_>:
   926e4:	a9be7bfd 	stp	x29, x30, [sp, #-32]!
   926e8:	910003fd 	mov	x29, sp
   926ec:	a90153f3 	stp	x19, x20, [sp, #16]
   926f0:	aa0803f3 	mov	x19, x8
   926f4:	d2800100 	mov	x0, #0x8                   	// #8
   926f8:	97ffc1b4 	bl	82dc8 <_Znwm>
   926fc:	aa0003f4 	mov	x20, x0
   92700:	aa1403e0 	mov	x0, x20
   92704:	97ffffa4 	bl	92594 <_ZN8valkyrie6kernel7DerivedC1Ev>
   92708:	aa1403e1 	mov	x1, x20
   9270c:	aa1303e0 	mov	x0, x19
   92710:	9400010a 	bl	92b38 <_ZN8valkyrie6kernel9UniquePtrINS0_7DerivedEEC1EPS2_>
   92714:	aa1303e0 	mov	x0, x19
   92718:	a94153f3 	ldp	x19, x20, [sp, #16]
   9271c:	a8c27bfd 	ldp	x29, x30, [sp], #32
   92720:	d65f03c0 	ret

Disassembly of section .text._ZN8valkyrie6kernel9UniquePtrINS0_7DerivedEED2Ev:

0000000000092724 <_ZN8valkyrie6kernel9UniquePtrINS0_7DerivedEED1Ev>:
   92724:	a9be7bfd 	stp	x29, x30, [sp, #-32]!
   92728:	910003fd 	mov	x29, sp
   9272c:	f9000fe0 	str	x0, [sp, #24]
   92730:	d2800001 	mov	x1, #0x0                   	// #0
   92734:	f9400fe0 	ldr	x0, [sp, #24]
   92738:	94000109 	bl	92b5c <_ZN8valkyrie6kernel9UniquePtrINS0_7DerivedEE5resetEPS2_>
   9273c:	d503201f 	nop
   92740:	a8c27bfd 	ldp	x29, x30, [sp], #32
   92744:	d65f03c0 	ret

Disassembly of section .text._ZN8valkyrie6kernel4moveIRNS0_9UniquePtrINS0_7DerivedEEEEEONS0_16_RemoveReferenceIT_E4TypeEOS7_:

0000000000092748 <_ZN8valkyrie6kernel4moveIRNS0_9UniquePtrINS0_7DerivedEEEEEONS0_16_RemoveReferenceIT_E4TypeEOS7_>:
   92748:	d10043ff 	sub	sp, sp, #0x10
   9274c:	f90007e0 	str	x0, [sp, #8]
   92750:	f94007e0 	ldr	x0, [sp, #8]
   92754:	910043ff 	add	sp, sp, #0x10
   92758:	d65f03c0 	ret

Disassembly of section .text._ZN8valkyrie6kernel5DequeINS0_9UniquePtrINS0_7DerivedEEEE9push_backIS4_EEvOT_:

000000000009275c <_ZN8valkyrie6kernel5DequeINS0_9UniquePtrINS0_7DerivedEEEE9push_backIS4_EEvOT_>:
   9275c:	a9bd7bfd 	stp	x29, x30, [sp, #-48]!
   92760:	910003fd 	mov	x29, sp
   92764:	f9000bf3 	str	x19, [sp, #16]
   92768:	f90017e0 	str	x0, [sp, #40]
   9276c:	f90013e1 	str	x1, [sp, #32]
   92770:	f94017e0 	ldr	x0, [sp, #40]
   92774:	f9400400 	ldr	x0, [x0, #8]
   92778:	2a0003f3 	mov	w19, w0
   9277c:	f94013e0 	ldr	x0, [sp, #32]
   92780:	9400010f 	bl	92bbc <_ZN8valkyrie6kernel7forwardINS0_9UniquePtrINS0_7DerivedEEEEEOT_RNS0_16_RemoveReferenceIS5_E4TypeE>
   92784:	aa0003e2 	mov	x2, x0
   92788:	2a1303e1 	mov	w1, w19
   9278c:	f94017e0 	ldr	x0, [sp, #40]
   92790:	94000110 	bl	92bd0 <_ZN8valkyrie6kernel5DequeINS0_9UniquePtrINS0_7DerivedEEEE6insertIS4_EEviOT_>
   92794:	d503201f 	nop
   92798:	f9400bf3 	ldr	x19, [sp, #16]
   9279c:	a8c37bfd 	ldp	x29, x30, [sp], #48
   927a0:	d65f03c0 	ret

Disassembly of section .text._ZNK8valkyrie6kernel5DequeINS0_9UniquePtrINS0_7DerivedEEEE4sizeEv:

00000000000927a4 <_ZNK8valkyrie6kernel5DequeINS0_9UniquePtrINS0_7DerivedEEEE4sizeEv>:
   927a4:	d10043ff 	sub	sp, sp, #0x10
   927a8:	f90007e0 	str	x0, [sp, #8]
   927ac:	f94007e0 	ldr	x0, [sp, #8]
   927b0:	f9400400 	ldr	x0, [x0, #8]
   927b4:	910043ff 	add	sp, sp, #0x10
   927b8:	d65f03c0 	ret

Disassembly of section .text._ZNK8valkyrie6kernel5DequeINS0_9UniquePtrINS0_7DerivedEEEE2atEi:

00000000000927bc <_ZNK8valkyrie6kernel5DequeINS0_9UniquePtrINS0_7DerivedEEEE2atEi>:
   927bc:	a9be7bfd 	stp	x29, x30, [sp, #-32]!
   927c0:	910003fd 	mov	x29, sp
   927c4:	f9000fe0 	str	x0, [sp, #24]
   927c8:	b90017e1 	str	w1, [sp, #20]
   927cc:	f9400fe0 	ldr	x0, [sp, #24]
   927d0:	9400013d 	bl	92cc4 <_ZNK8valkyrie6kernel9UniquePtrINS1_INS0_7DerivedEEEE3getEv>
   927d4:	aa0003e1 	mov	x1, x0
   927d8:	b98017e0 	ldrsw	x0, [sp, #20]
   927dc:	d37df000 	lsl	x0, x0, #3
   927e0:	8b000020 	add	x0, x1, x0
   927e4:	a8c27bfd 	ldp	x29, x30, [sp], #32
   927e8:	d65f03c0 	ret

Disassembly of section .text._ZNK8valkyrie6kernel9UniquePtrINS0_7DerivedEE3getEv:

00000000000927ec <_ZNK8valkyrie6kernel9UniquePtrINS0_7DerivedEE3getEv>:
   927ec:	d10043ff 	sub	sp, sp, #0x10
   927f0:	f90007e0 	str	x0, [sp, #8]
   927f4:	f94007e0 	ldr	x0, [sp, #8]
   927f8:	f9400000 	ldr	x0, [x0]
   927fc:	910043ff 	add	sp, sp, #0x10
   92800:	d65f03c0 	ret

Disassembly of section .text._Z6printfIJPN8valkyrie6kernel7DerivedEEEvPKcDpOT_:

0000000000092804 <_Z6printfIJPN8valkyrie6kernel7DerivedEEEvPKcDpOT_>:
   92804:	a9be7bfd 	stp	x29, x30, [sp, #-32]!
   92808:	910003fd 	mov	x29, sp
   9280c:	f9000fe0 	str	x0, [sp, #24]
   92810:	f9000be1 	str	x1, [sp, #16]
   92814:	f9400be0 	ldr	x0, [sp, #16]
   92818:	f9400000 	ldr	x0, [x0]
   9281c:	aa0003e1 	mov	x1, x0
   92820:	f9400fe0 	ldr	x0, [sp, #24]
   92824:	97ffc937 	bl	84d00 <_Z10tfp_printfPcz>
   92828:	d503201f 	nop
   9282c:	a8c27bfd 	ldp	x29, x30, [sp], #32
   92830:	d65f03c0 	ret

Disassembly of section .text._ZN8valkyrie6kernel5DequeINS0_9UniquePtrINS0_7DerivedEEEEixEm:

0000000000092834 <_ZN8valkyrie6kernel5DequeINS0_9UniquePtrINS0_7DerivedEEEEixEm>:
   92834:	a9be7bfd 	stp	x29, x30, [sp, #-32]!
   92838:	910003fd 	mov	x29, sp
   9283c:	f9000fe0 	str	x0, [sp, #24]
   92840:	f9000be1 	str	x1, [sp, #16]
   92844:	f9400fe0 	ldr	x0, [sp, #24]
   92848:	f9400be1 	ldr	x1, [sp, #16]
   9284c:	94000124 	bl	92cdc <_ZN8valkyrie6kernel9UniquePtrIA_NS1_INS0_7DerivedEEEEixEm>
   92850:	a8c27bfd 	ldp	x29, x30, [sp], #32
   92854:	d65f03c0 	ret

Disassembly of section .text._ZN8valkyrie6kernel9UniquePtrINS0_7DerivedEEaSEOS3_:

0000000000092858 <_ZN8valkyrie6kernel9UniquePtrINS0_7DerivedEEaSEOS3_>:
   92858:	a9be7bfd 	stp	x29, x30, [sp, #-32]!
   9285c:	910003fd 	mov	x29, sp
   92860:	f9000fe0 	str	x0, [sp, #24]
   92864:	f9000be1 	str	x1, [sp, #16]
   92868:	f9400be0 	ldr	x0, [sp, #16]
   9286c:	94000128 	bl	92d0c <_ZN8valkyrie6kernel9UniquePtrINS0_7DerivedEE7releaseEv>
   92870:	aa0003e1 	mov	x1, x0
   92874:	f9400fe0 	ldr	x0, [sp, #24]
   92878:	940000b9 	bl	92b5c <_ZN8valkyrie6kernel9UniquePtrINS0_7DerivedEE5resetEPS2_>
   9287c:	f9400fe0 	ldr	x0, [sp, #24]
   92880:	a8c27bfd 	ldp	x29, x30, [sp], #32
   92884:	d65f03c0 	ret

Disassembly of section .text._ZN8valkyrie6kernel5DequeINS0_9UniquePtrINS0_7DerivedEEEE5eraseEi:

0000000000092888 <_ZN8valkyrie6kernel5DequeINS0_9UniquePtrINS0_7DerivedEEEE5eraseEi>:
   92888:	a9bc7bfd 	stp	x29, x30, [sp, #-64]!
   9288c:	910003fd 	mov	x29, sp
   92890:	f9000bf3 	str	x19, [sp, #16]
   92894:	f90017e0 	str	x0, [sp, #40]
   92898:	b90027e1 	str	w1, [sp, #36]
   9289c:	b94027e0 	ldr	w0, [sp, #36]
   928a0:	b9003fe0 	str	w0, [sp, #60]
   928a4:	f94017e0 	ldr	x0, [sp, #40]
   928a8:	f9400400 	ldr	x0, [x0, #8]
   928ac:	51000400 	sub	w0, w0, #0x1
   928b0:	b9403fe1 	ldr	w1, [sp, #60]
   928b4:	6b00003f 	cmp	w1, w0
   928b8:	5400026a 	b.ge	92904 <_ZN8valkyrie6kernel5DequeINS0_9UniquePtrINS0_7DerivedEEEE5eraseEi+0x7c>  // b.tcont
   928bc:	f94017e2 	ldr	x2, [sp, #40]
   928c0:	b9403fe0 	ldr	w0, [sp, #60]
   928c4:	11000400 	add	w0, w0, #0x1
   928c8:	93407c00 	sxtw	x0, w0
   928cc:	aa0003e1 	mov	x1, x0
   928d0:	aa0203e0 	mov	x0, x2
   928d4:	94000102 	bl	92cdc <_ZN8valkyrie6kernel9UniquePtrIA_NS1_INS0_7DerivedEEEEixEm>
   928d8:	97ffff9c 	bl	92748 <_ZN8valkyrie6kernel4moveIRNS0_9UniquePtrINS0_7DerivedEEEEEONS0_16_RemoveReferenceIT_E4TypeEOS7_>
   928dc:	aa0003f3 	mov	x19, x0
   928e0:	f94017e0 	ldr	x0, [sp, #40]
   928e4:	b9803fe1 	ldrsw	x1, [sp, #60]
   928e8:	940000fd 	bl	92cdc <_ZN8valkyrie6kernel9UniquePtrIA_NS1_INS0_7DerivedEEEEixEm>
   928ec:	aa1303e1 	mov	x1, x19
   928f0:	97ffffda 	bl	92858 <_ZN8valkyrie6kernel9UniquePtrINS0_7DerivedEEaSEOS3_>
   928f4:	b9403fe0 	ldr	w0, [sp, #60]
   928f8:	11000400 	add	w0, w0, #0x1
   928fc:	b9003fe0 	str	w0, [sp, #60]
   92900:	17ffffe9 	b	928a4 <_ZN8valkyrie6kernel5DequeINS0_9UniquePtrINS0_7DerivedEEEE5eraseEi+0x1c>
   92904:	f94017e0 	ldr	x0, [sp, #40]
   92908:	f9400400 	ldr	x0, [x0, #8]
   9290c:	d1000401 	sub	x1, x0, #0x1
   92910:	f94017e0 	ldr	x0, [sp, #40]
   92914:	f9000401 	str	x1, [x0, #8]
   92918:	f94017e0 	ldr	x0, [sp, #40]
   9291c:	f9400401 	ldr	x1, [x0, #8]
   92920:	f94017e0 	ldr	x0, [sp, #40]
   92924:	f9400800 	ldr	x0, [x0, #16]
   92928:	d342fc00 	lsr	x0, x0, #2
   9292c:	eb00003f 	cmp	x1, x0
   92930:	54000108 	b.hi	92950 <_ZN8valkyrie6kernel5DequeINS0_9UniquePtrINS0_7DerivedEEEE5eraseEi+0xc8>  // b.pmore
   92934:	f94017e0 	ldr	x0, [sp, #40]
   92938:	f9400800 	ldr	x0, [x0, #16]
   9293c:	d341fc00 	lsr	x0, x0, #1
   92940:	52800022 	mov	w2, #0x1                   	// #1
   92944:	aa0003e1 	mov	x1, x0
   92948:	f94017e0 	ldr	x0, [sp, #40]
   9294c:	940000fa 	bl	92d34 <_ZN8valkyrie6kernel5DequeINS0_9UniquePtrINS0_7DerivedEEEE6resizeEmb>
   92950:	d503201f 	nop
   92954:	f9400bf3 	ldr	x19, [sp, #16]
   92958:	a8c47bfd 	ldp	x29, x30, [sp], #64
   9295c:	d65f03c0 	ret

Disassembly of section .text._Z6printfIJPKcEEvS1_DpOT_:

0000000000092960 <_Z6printfIJPKcEEvS1_DpOT_>:
   92960:	a9be7bfd 	stp	x29, x30, [sp, #-32]!
   92964:	910003fd 	mov	x29, sp
   92968:	f9000fe0 	str	x0, [sp, #24]
   9296c:	f9000be1 	str	x1, [sp, #16]
   92970:	f9400be0 	ldr	x0, [sp, #16]
   92974:	f9400000 	ldr	x0, [x0]
   92978:	aa0003e1 	mov	x1, x0
   9297c:	f9400fe0 	ldr	x0, [sp, #24]
   92980:	97ffc8e0 	bl	84d00 <_Z10tfp_printfPcz>
   92984:	d503201f 	nop
   92988:	a8c27bfd 	ldp	x29, x30, [sp], #32
   9298c:	d65f03c0 	ret

Disassembly of section .text._ZN8valkyrie6kernel9UniquePtrIA_NS1_INS0_7DerivedEEEECI2NS1_IS3_EEEPS3_:

0000000000092990 <_ZN8valkyrie6kernel9UniquePtrIA_NS1_INS0_7DerivedEEEECI1NS1_IS3_EEEPS3_>:
   92990:	a9be7bfd 	stp	x29, x30, [sp, #-32]!
   92994:	910003fd 	mov	x29, sp
   92998:	f9000fe0 	str	x0, [sp, #24]
   9299c:	f9000be1 	str	x1, [sp, #16]
   929a0:	f9400fe0 	ldr	x0, [sp, #24]
   929a4:	f9400be1 	ldr	x1, [sp, #16]
   929a8:	94000122 	bl	92e30 <_ZN8valkyrie6kernel9UniquePtrINS1_INS0_7DerivedEEEEC1EPS3_>
   929ac:	d503201f 	nop
   929b0:	a8c27bfd 	ldp	x29, x30, [sp], #32
   929b4:	d65f03c0 	ret

Disassembly of section .text._ZN8valkyrie6kernel11make_uniqueIA_NS0_9UniquePtrINS0_7DerivedEEEEENS0_9_UniqueIfIT_E13_UnknownBoundEm:

00000000000929b8 <_ZN8valkyrie6kernel11make_uniqueIA_NS0_9UniquePtrINS0_7DerivedEEEEENS0_9_UniqueIfIT_E13_UnknownBoundEm>:
   929b8:	a9bc7bfd 	stp	x29, x30, [sp, #-64]!
   929bc:	910003fd 	mov	x29, sp
   929c0:	a90153f3 	stp	x19, x20, [sp, #16]
   929c4:	a9025bf5 	stp	x21, x22, [sp, #32]
   929c8:	aa0803f6 	mov	x22, x8
   929cc:	f9001fe0 	str	x0, [sp, #56]
   929d0:	f9401ff3 	ldr	x19, [sp, #56]
   929d4:	92fe0000 	mov	x0, #0xfffffffffffffff     	// #1152921504606846975
   929d8:	eb00027f 	cmp	x19, x0
   929dc:	54000088 	b.hi	929ec <_ZN8valkyrie6kernel11make_uniqueIA_NS0_9UniquePtrINS0_7DerivedEEEEENS0_9_UniqueIfIT_E13_UnknownBoundEm+0x34>  // b.pmore
   929e0:	91000660 	add	x0, x19, #0x1
   929e4:	d37df000 	lsl	x0, x0, #3
   929e8:	14000002 	b	929f0 <_ZN8valkyrie6kernel11make_uniqueIA_NS0_9UniquePtrINS0_7DerivedEEEEENS0_9_UniqueIfIT_E13_UnknownBoundEm+0x38>
   929ec:	92800000 	mov	x0, #0xffffffffffffffff    	// #-1
   929f0:	97ffc0fd 	bl	82de4 <_Znam>
   929f4:	aa0003f4 	mov	x20, x0
   929f8:	f9000293 	str	x19, [x20]
   929fc:	91002280 	add	x0, x20, #0x8
   92a00:	d1000661 	sub	x1, x19, #0x1
   92a04:	aa0103f3 	mov	x19, x1
   92a08:	aa0003f5 	mov	x21, x0
   92a0c:	f100027f 	cmp	x19, #0x0
   92a10:	540000cb 	b.lt	92a28 <_ZN8valkyrie6kernel11make_uniqueIA_NS0_9UniquePtrINS0_7DerivedEEEEENS0_9_UniqueIfIT_E13_UnknownBoundEm+0x70>  // b.tstop
   92a14:	aa1503e0 	mov	x0, x21
   92a18:	940000ff 	bl	92e14 <_ZN8valkyrie6kernel9UniquePtrINS0_7DerivedEEC1Ev>
   92a1c:	910022b5 	add	x21, x21, #0x8
   92a20:	d1000673 	sub	x19, x19, #0x1
   92a24:	17fffffa 	b	92a0c <_ZN8valkyrie6kernel11make_uniqueIA_NS0_9UniquePtrINS0_7DerivedEEEEENS0_9_UniqueIfIT_E13_UnknownBoundEm+0x54>
   92a28:	91002280 	add	x0, x20, #0x8
   92a2c:	aa0003e1 	mov	x1, x0
   92a30:	aa1603e0 	mov	x0, x22
   92a34:	97ffffd7 	bl	92990 <_ZN8valkyrie6kernel9UniquePtrIA_NS1_INS0_7DerivedEEEECI1NS1_IS3_EEEPS3_>
   92a38:	aa1603e0 	mov	x0, x22
   92a3c:	a94153f3 	ldp	x19, x20, [sp, #16]
   92a40:	a9425bf5 	ldp	x21, x22, [sp, #32]
   92a44:	a8c47bfd 	ldp	x29, x30, [sp], #64
   92a48:	d65f03c0 	ret

Disassembly of section .text._ZN8valkyrie6kernel9UniquePtrINS1_INS0_7DerivedEEEED2Ev:

0000000000092a4c <_ZN8valkyrie6kernel9UniquePtrINS1_INS0_7DerivedEEEED1Ev>:
   92a4c:	a9be7bfd 	stp	x29, x30, [sp, #-32]!
   92a50:	910003fd 	mov	x29, sp
   92a54:	f9000fe0 	str	x0, [sp, #24]
   92a58:	d2800001 	mov	x1, #0x0                   	// #0
   92a5c:	f9400fe0 	ldr	x0, [sp, #24]
   92a60:	940000fd 	bl	92e54 <_ZN8valkyrie6kernel9UniquePtrINS1_INS0_7DerivedEEEE5resetEPS3_>
   92a64:	d503201f 	nop
   92a68:	a8c27bfd 	ldp	x29, x30, [sp], #32
   92a6c:	d65f03c0 	ret

Disassembly of section .text._ZN8valkyrie6kernel9UniquePtrIA_NS1_INS0_7DerivedEEEE5resetEPS3_:

0000000000092a70 <_ZN8valkyrie6kernel9UniquePtrIA_NS1_INS0_7DerivedEEEE5resetEPS3_>:
   92a70:	a9bd7bfd 	stp	x29, x30, [sp, #-48]!
   92a74:	910003fd 	mov	x29, sp
   92a78:	f9000bf3 	str	x19, [sp, #16]
   92a7c:	f90017e0 	str	x0, [sp, #40]
   92a80:	f90013e1 	str	x1, [sp, #32]
   92a84:	f94017e0 	ldr	x0, [sp, #40]
   92a88:	f9400000 	ldr	x0, [x0]
   92a8c:	f94013e1 	ldr	x1, [sp, #32]
   92a90:	eb00003f 	cmp	x1, x0
   92a94:	540004a0 	b.eq	92b28 <_ZN8valkyrie6kernel9UniquePtrIA_NS1_INS0_7DerivedEEEE5resetEPS3_+0xb8>  // b.none
   92a98:	f94017e0 	ldr	x0, [sp, #40]
   92a9c:	f9400000 	ldr	x0, [x0]
   92aa0:	f100001f 	cmp	x0, #0x0
   92aa4:	540003a0 	b.eq	92b18 <_ZN8valkyrie6kernel9UniquePtrIA_NS1_INS0_7DerivedEEEE5resetEPS3_+0xa8>  // b.none
   92aa8:	f94017e0 	ldr	x0, [sp, #40]
   92aac:	f9400001 	ldr	x1, [x0]
   92ab0:	f94017e0 	ldr	x0, [sp, #40]
   92ab4:	f9400000 	ldr	x0, [x0]
   92ab8:	d1002000 	sub	x0, x0, #0x8
   92abc:	f9400000 	ldr	x0, [x0]
   92ac0:	d37df000 	lsl	x0, x0, #3
   92ac4:	8b000033 	add	x19, x1, x0
   92ac8:	f94017e0 	ldr	x0, [sp, #40]
   92acc:	f9400000 	ldr	x0, [x0]
   92ad0:	eb00027f 	cmp	x19, x0
   92ad4:	540000a0 	b.eq	92ae8 <_ZN8valkyrie6kernel9UniquePtrIA_NS1_INS0_7DerivedEEEE5resetEPS3_+0x78>  // b.none
   92ad8:	d1002273 	sub	x19, x19, #0x8
   92adc:	aa1303e0 	mov	x0, x19
   92ae0:	97ffff11 	bl	92724 <_ZN8valkyrie6kernel9UniquePtrINS0_7DerivedEED1Ev>
   92ae4:	17fffff9 	b	92ac8 <_ZN8valkyrie6kernel9UniquePtrIA_NS1_INS0_7DerivedEEEE5resetEPS3_+0x58>
   92ae8:	f94017e0 	ldr	x0, [sp, #40]
   92aec:	f9400000 	ldr	x0, [x0]
   92af0:	d1002002 	sub	x2, x0, #0x8
   92af4:	f94017e0 	ldr	x0, [sp, #40]
   92af8:	f9400000 	ldr	x0, [x0]
   92afc:	d1002000 	sub	x0, x0, #0x8
   92b00:	f9400000 	ldr	x0, [x0]
   92b04:	91000400 	add	x0, x0, #0x1
   92b08:	d37df000 	lsl	x0, x0, #3
   92b0c:	aa0003e1 	mov	x1, x0
   92b10:	aa0203e0 	mov	x0, x2
   92b14:	97ffc0d4 	bl	82e64 <_ZdaPvm>
   92b18:	f94017e0 	ldr	x0, [sp, #40]
   92b1c:	f94013e1 	ldr	x1, [sp, #32]
   92b20:	f9000001 	str	x1, [x0]
   92b24:	14000002 	b	92b2c <_ZN8valkyrie6kernel9UniquePtrIA_NS1_INS0_7DerivedEEEE5resetEPS3_+0xbc>
   92b28:	d503201f 	nop
   92b2c:	f9400bf3 	ldr	x19, [sp, #16]
   92b30:	a8c37bfd 	ldp	x29, x30, [sp], #48
   92b34:	d65f03c0 	ret

Disassembly of section .text._ZN8valkyrie6kernel9UniquePtrINS0_7DerivedEEC2EPS2_:

0000000000092b38 <_ZN8valkyrie6kernel9UniquePtrINS0_7DerivedEEC1EPS2_>:
   92b38:	d10043ff 	sub	sp, sp, #0x10
   92b3c:	f90007e0 	str	x0, [sp, #8]
   92b40:	f90003e1 	str	x1, [sp]
   92b44:	f94007e0 	ldr	x0, [sp, #8]
   92b48:	f94003e1 	ldr	x1, [sp]
   92b4c:	f9000001 	str	x1, [x0]
   92b50:	d503201f 	nop
   92b54:	910043ff 	add	sp, sp, #0x10
   92b58:	d65f03c0 	ret

Disassembly of section .text._ZN8valkyrie6kernel9UniquePtrINS0_7DerivedEE5resetEPS2_:

0000000000092b5c <_ZN8valkyrie6kernel9UniquePtrINS0_7DerivedEE5resetEPS2_>:
   92b5c:	a9be7bfd 	stp	x29, x30, [sp, #-32]!
   92b60:	910003fd 	mov	x29, sp
   92b64:	f9000fe0 	str	x0, [sp, #24]
   92b68:	f9000be1 	str	x1, [sp, #16]
   92b6c:	f9400fe0 	ldr	x0, [sp, #24]
   92b70:	f9400000 	ldr	x0, [x0]
   92b74:	f9400be1 	ldr	x1, [sp, #16]
   92b78:	eb00003f 	cmp	x1, x0
   92b7c:	540001a0 	b.eq	92bb0 <_ZN8valkyrie6kernel9UniquePtrINS0_7DerivedEE5resetEPS2_+0x54>  // b.none
   92b80:	f9400fe0 	ldr	x0, [sp, #24]
   92b84:	f9400000 	ldr	x0, [x0]
   92b88:	f100001f 	cmp	x0, #0x0
   92b8c:	540000a0 	b.eq	92ba0 <_ZN8valkyrie6kernel9UniquePtrINS0_7DerivedEE5resetEPS2_+0x44>  // b.none
   92b90:	f9400001 	ldr	x1, [x0]
   92b94:	91002021 	add	x1, x1, #0x8
   92b98:	f9400021 	ldr	x1, [x1]
   92b9c:	d63f0020 	blr	x1
   92ba0:	f9400fe0 	ldr	x0, [sp, #24]
   92ba4:	f9400be1 	ldr	x1, [sp, #16]
   92ba8:	f9000001 	str	x1, [x0]
   92bac:	14000002 	b	92bb4 <_ZN8valkyrie6kernel9UniquePtrINS0_7DerivedEE5resetEPS2_+0x58>
   92bb0:	d503201f 	nop
   92bb4:	a8c27bfd 	ldp	x29, x30, [sp], #32
   92bb8:	d65f03c0 	ret

Disassembly of section .text._ZN8valkyrie6kernel7forwardINS0_9UniquePtrINS0_7DerivedEEEEEOT_RNS0_16_RemoveReferenceIS5_E4TypeE:

0000000000092bbc <_ZN8valkyrie6kernel7forwardINS0_9UniquePtrINS0_7DerivedEEEEEOT_RNS0_16_RemoveReferenceIS5_E4TypeE>:
   92bbc:	d10043ff 	sub	sp, sp, #0x10
   92bc0:	f90007e0 	str	x0, [sp, #8]
   92bc4:	f94007e0 	ldr	x0, [sp, #8]
   92bc8:	910043ff 	add	sp, sp, #0x10
   92bcc:	d65f03c0 	ret

Disassembly of section .text._ZN8valkyrie6kernel5DequeINS0_9UniquePtrINS0_7DerivedEEEE6insertIS4_EEviOT_:

0000000000092bd0 <_ZN8valkyrie6kernel5DequeINS0_9UniquePtrINS0_7DerivedEEEE6insertIS4_EEviOT_>:
   92bd0:	a9bb7bfd 	stp	x29, x30, [sp, #-80]!
   92bd4:	910003fd 	mov	x29, sp
   92bd8:	f9000bf3 	str	x19, [sp, #16]
   92bdc:	f9001fe0 	str	x0, [sp, #56]
   92be0:	b90037e1 	str	w1, [sp, #52]
   92be4:	f90017e2 	str	x2, [sp, #40]
   92be8:	f9401fe0 	ldr	x0, [sp, #56]
   92bec:	f9400401 	ldr	x1, [x0, #8]
   92bf0:	f9401fe0 	ldr	x0, [sp, #56]
   92bf4:	f9400800 	ldr	x0, [x0, #16]
   92bf8:	eb00003f 	cmp	x1, x0
   92bfc:	54000101 	b.ne	92c1c <_ZN8valkyrie6kernel5DequeINS0_9UniquePtrINS0_7DerivedEEEE6insertIS4_EEviOT_+0x4c>  // b.any
   92c00:	f9401fe0 	ldr	x0, [sp, #56]
   92c04:	f9400800 	ldr	x0, [x0, #16]
   92c08:	d37ff800 	lsl	x0, x0, #1
   92c0c:	52800022 	mov	w2, #0x1                   	// #1
   92c10:	aa0003e1 	mov	x1, x0
   92c14:	f9401fe0 	ldr	x0, [sp, #56]
   92c18:	94000047 	bl	92d34 <_ZN8valkyrie6kernel5DequeINS0_9UniquePtrINS0_7DerivedEEEE6resizeEmb>
   92c1c:	f9401fe0 	ldr	x0, [sp, #56]
   92c20:	f9400400 	ldr	x0, [x0, #8]
   92c24:	b9004fe0 	str	w0, [sp, #76]
   92c28:	b9404fe1 	ldr	w1, [sp, #76]
   92c2c:	b94037e0 	ldr	w0, [sp, #52]
   92c30:	6b00003f 	cmp	w1, w0
   92c34:	5400026d 	b.le	92c80 <_ZN8valkyrie6kernel5DequeINS0_9UniquePtrINS0_7DerivedEEEE6insertIS4_EEviOT_+0xb0>
   92c38:	f9401fe2 	ldr	x2, [sp, #56]
   92c3c:	b9404fe0 	ldr	w0, [sp, #76]
   92c40:	51000400 	sub	w0, w0, #0x1
   92c44:	93407c00 	sxtw	x0, w0
   92c48:	aa0003e1 	mov	x1, x0
   92c4c:	aa0203e0 	mov	x0, x2
   92c50:	94000023 	bl	92cdc <_ZN8valkyrie6kernel9UniquePtrIA_NS1_INS0_7DerivedEEEEixEm>
   92c54:	97ffffda 	bl	92bbc <_ZN8valkyrie6kernel7forwardINS0_9UniquePtrINS0_7DerivedEEEEEOT_RNS0_16_RemoveReferenceIS5_E4TypeE>
   92c58:	aa0003f3 	mov	x19, x0
   92c5c:	f9401fe0 	ldr	x0, [sp, #56]
   92c60:	b9804fe1 	ldrsw	x1, [sp, #76]
   92c64:	9400001e 	bl	92cdc <_ZN8valkyrie6kernel9UniquePtrIA_NS1_INS0_7DerivedEEEEixEm>
   92c68:	aa1303e1 	mov	x1, x19
   92c6c:	97fffefb 	bl	92858 <_ZN8valkyrie6kernel9UniquePtrINS0_7DerivedEEaSEOS3_>
   92c70:	b9404fe0 	ldr	w0, [sp, #76]
   92c74:	51000400 	sub	w0, w0, #0x1
   92c78:	b9004fe0 	str	w0, [sp, #76]
   92c7c:	17ffffeb 	b	92c28 <_ZN8valkyrie6kernel5DequeINS0_9UniquePtrINS0_7DerivedEEEE6insertIS4_EEviOT_+0x58>
   92c80:	f94017e0 	ldr	x0, [sp, #40]
   92c84:	97ffffce 	bl	92bbc <_ZN8valkyrie6kernel7forwardINS0_9UniquePtrINS0_7DerivedEEEEEOT_RNS0_16_RemoveReferenceIS5_E4TypeE>
   92c88:	aa0003f3 	mov	x19, x0
   92c8c:	f9401fe0 	ldr	x0, [sp, #56]
   92c90:	b98037e1 	ldrsw	x1, [sp, #52]
   92c94:	94000012 	bl	92cdc <_ZN8valkyrie6kernel9UniquePtrIA_NS1_INS0_7DerivedEEEEixEm>
   92c98:	aa1303e1 	mov	x1, x19
   92c9c:	97fffeef 	bl	92858 <_ZN8valkyrie6kernel9UniquePtrINS0_7DerivedEEaSEOS3_>
   92ca0:	f9401fe0 	ldr	x0, [sp, #56]
   92ca4:	f9400400 	ldr	x0, [x0, #8]
   92ca8:	91000401 	add	x1, x0, #0x1
   92cac:	f9401fe0 	ldr	x0, [sp, #56]
   92cb0:	f9000401 	str	x1, [x0, #8]
   92cb4:	d503201f 	nop
   92cb8:	f9400bf3 	ldr	x19, [sp, #16]
   92cbc:	a8c57bfd 	ldp	x29, x30, [sp], #80
   92cc0:	d65f03c0 	ret

Disassembly of section .text._ZNK8valkyrie6kernel9UniquePtrINS1_INS0_7DerivedEEEE3getEv:

0000000000092cc4 <_ZNK8valkyrie6kernel9UniquePtrINS1_INS0_7DerivedEEEE3getEv>:
   92cc4:	d10043ff 	sub	sp, sp, #0x10
   92cc8:	f90007e0 	str	x0, [sp, #8]
   92ccc:	f94007e0 	ldr	x0, [sp, #8]
   92cd0:	f9400000 	ldr	x0, [x0]
   92cd4:	910043ff 	add	sp, sp, #0x10
   92cd8:	d65f03c0 	ret

Disassembly of section .text._ZN8valkyrie6kernel9UniquePtrIA_NS1_INS0_7DerivedEEEEixEm:

0000000000092cdc <_ZN8valkyrie6kernel9UniquePtrIA_NS1_INS0_7DerivedEEEEixEm>:
   92cdc:	a9be7bfd 	stp	x29, x30, [sp, #-32]!
   92ce0:	910003fd 	mov	x29, sp
   92ce4:	f9000fe0 	str	x0, [sp, #24]
   92ce8:	f9000be1 	str	x1, [sp, #16]
   92cec:	f9400fe0 	ldr	x0, [sp, #24]
   92cf0:	97fffff5 	bl	92cc4 <_ZNK8valkyrie6kernel9UniquePtrINS1_INS0_7DerivedEEEE3getEv>
   92cf4:	aa0003e1 	mov	x1, x0
   92cf8:	f9400be0 	ldr	x0, [sp, #16]
   92cfc:	d37df000 	lsl	x0, x0, #3
   92d00:	8b000020 	add	x0, x1, x0
   92d04:	a8c27bfd 	ldp	x29, x30, [sp], #32
   92d08:	d65f03c0 	ret

Disassembly of section .text._ZN8valkyrie6kernel9UniquePtrINS0_7DerivedEE7releaseEv:

0000000000092d0c <_ZN8valkyrie6kernel9UniquePtrINS0_7DerivedEE7releaseEv>:
   92d0c:	d10083ff 	sub	sp, sp, #0x20
   92d10:	f90007e0 	str	x0, [sp, #8]
   92d14:	f94007e0 	ldr	x0, [sp, #8]
   92d18:	f9400000 	ldr	x0, [x0]
   92d1c:	f9000fe0 	str	x0, [sp, #24]
   92d20:	f94007e0 	ldr	x0, [sp, #8]
   92d24:	f900001f 	str	xzr, [x0]
   92d28:	f9400fe0 	ldr	x0, [sp, #24]
   92d2c:	910083ff 	add	sp, sp, #0x20
   92d30:	d65f03c0 	ret

Disassembly of section .text._ZN8valkyrie6kernel5DequeINS0_9UniquePtrINS0_7DerivedEEEE6resizeEmb:

0000000000092d34 <_ZN8valkyrie6kernel5DequeINS0_9UniquePtrINS0_7DerivedEEEE6resizeEmb>:
   92d34:	a9ba7bfd 	stp	x29, x30, [sp, #-96]!
   92d38:	910003fd 	mov	x29, sp
   92d3c:	f9000bf3 	str	x19, [sp, #16]
   92d40:	f9001fe0 	str	x0, [sp, #56]
   92d44:	f9001be1 	str	x1, [sp, #48]
   92d48:	3900bfe2 	strb	w2, [sp, #47]
   92d4c:	d2800080 	mov	x0, #0x4                   	// #4
   92d50:	f9002be0 	str	x0, [sp, #80]
   92d54:	9100c3e1 	add	x1, sp, #0x30
   92d58:	910143e0 	add	x0, sp, #0x50
   92d5c:	97fff3db 	bl	8fcc8 <_ZN8valkyrie6kernel3maxImEERKT_S4_S4_>
   92d60:	f9400001 	ldr	x1, [x0]
   92d64:	f9401fe0 	ldr	x0, [sp, #56]
   92d68:	f9000801 	str	x1, [x0, #16]
   92d6c:	f9401fe0 	ldr	x0, [sp, #56]
   92d70:	f9400800 	ldr	x0, [x0, #16]
   92d74:	910123e1 	add	x1, sp, #0x48
   92d78:	aa0103e8 	mov	x8, x1
   92d7c:	97ffff0f 	bl	929b8 <_ZN8valkyrie6kernel11make_uniqueIA_NS0_9UniquePtrINS0_7DerivedEEEEENS0_9_UniqueIfIT_E13_UnknownBoundEm>
   92d80:	3940bfe0 	ldrb	w0, [sp, #47]
   92d84:	7100001f 	cmp	w0, #0x0
   92d88:	540002a0 	b.eq	92ddc <_ZN8valkyrie6kernel5DequeINS0_9UniquePtrINS0_7DerivedEEEE6resizeEmb+0xa8>  // b.none
   92d8c:	f9002fff 	str	xzr, [sp, #88]
   92d90:	f9401fe0 	ldr	x0, [sp, #56]
   92d94:	f9400400 	ldr	x0, [x0, #8]
   92d98:	f9402fe1 	ldr	x1, [sp, #88]
   92d9c:	eb00003f 	cmp	x1, x0
   92da0:	540001e2 	b.cs	92ddc <_ZN8valkyrie6kernel5DequeINS0_9UniquePtrINS0_7DerivedEEEE6resizeEmb+0xa8>  // b.hs, b.nlast
   92da4:	f9401fe0 	ldr	x0, [sp, #56]
   92da8:	f9402fe1 	ldr	x1, [sp, #88]
   92dac:	97ffffcc 	bl	92cdc <_ZN8valkyrie6kernel9UniquePtrIA_NS1_INS0_7DerivedEEEEixEm>
   92db0:	97fffe66 	bl	92748 <_ZN8valkyrie6kernel4moveIRNS0_9UniquePtrINS0_7DerivedEEEEEONS0_16_RemoveReferenceIT_E4TypeEOS7_>
   92db4:	aa0003f3 	mov	x19, x0
   92db8:	910123e0 	add	x0, sp, #0x48
   92dbc:	f9402fe1 	ldr	x1, [sp, #88]
   92dc0:	97ffffc7 	bl	92cdc <_ZN8valkyrie6kernel9UniquePtrIA_NS1_INS0_7DerivedEEEEixEm>
   92dc4:	aa1303e1 	mov	x1, x19
   92dc8:	97fffea4 	bl	92858 <_ZN8valkyrie6kernel9UniquePtrINS0_7DerivedEEaSEOS3_>
   92dcc:	f9402fe0 	ldr	x0, [sp, #88]
   92dd0:	91000400 	add	x0, x0, #0x1
   92dd4:	f9002fe0 	str	x0, [sp, #88]
   92dd8:	17ffffee 	b	92d90 <_ZN8valkyrie6kernel5DequeINS0_9UniquePtrINS0_7DerivedEEEE6resizeEmb+0x5c>
   92ddc:	f9401fe0 	ldr	x0, [sp, #56]
   92de0:	d2800001 	mov	x1, #0x0                   	// #0
   92de4:	97ffff23 	bl	92a70 <_ZN8valkyrie6kernel9UniquePtrIA_NS1_INS0_7DerivedEEEE5resetEPS3_>
   92de8:	910123e0 	add	x0, sp, #0x48
   92dec:	94000035 	bl	92ec0 <_ZN8valkyrie6kernel4moveIRNS0_9UniquePtrIA_NS2_INS0_7DerivedEEEEEEEONS0_16_RemoveReferenceIT_E4TypeEOS9_>
   92df0:	aa0003e1 	mov	x1, x0
   92df4:	f9401fe0 	ldr	x0, [sp, #56]
   92df8:	94000037 	bl	92ed4 <_ZN8valkyrie6kernel9UniquePtrIA_NS1_INS0_7DerivedEEEEaSEOS5_>
   92dfc:	910123e0 	add	x0, sp, #0x48
   92e00:	97fffe2e 	bl	926b8 <_ZN8valkyrie6kernel9UniquePtrIA_NS1_INS0_7DerivedEEEED1Ev>
   92e04:	d503201f 	nop
   92e08:	f9400bf3 	ldr	x19, [sp, #16]
   92e0c:	a8c67bfd 	ldp	x29, x30, [sp], #96
   92e10:	d65f03c0 	ret

Disassembly of section .text._ZN8valkyrie6kernel9UniquePtrINS0_7DerivedEEC2Ev:

0000000000092e14 <_ZN8valkyrie6kernel9UniquePtrINS0_7DerivedEEC1Ev>:
   92e14:	d10043ff 	sub	sp, sp, #0x10
   92e18:	f90007e0 	str	x0, [sp, #8]
   92e1c:	f94007e0 	ldr	x0, [sp, #8]
   92e20:	f900001f 	str	xzr, [x0]
   92e24:	d503201f 	nop
   92e28:	910043ff 	add	sp, sp, #0x10
   92e2c:	d65f03c0 	ret

Disassembly of section .text._ZN8valkyrie6kernel9UniquePtrINS1_INS0_7DerivedEEEEC2EPS3_:

0000000000092e30 <_ZN8valkyrie6kernel9UniquePtrINS1_INS0_7DerivedEEEEC1EPS3_>:
   92e30:	d10043ff 	sub	sp, sp, #0x10
   92e34:	f90007e0 	str	x0, [sp, #8]
   92e38:	f90003e1 	str	x1, [sp]
   92e3c:	f94007e0 	ldr	x0, [sp, #8]
   92e40:	f94003e1 	ldr	x1, [sp]
   92e44:	f9000001 	str	x1, [x0]
   92e48:	d503201f 	nop
   92e4c:	910043ff 	add	sp, sp, #0x10
   92e50:	d65f03c0 	ret

Disassembly of section .text._ZN8valkyrie6kernel9UniquePtrINS1_INS0_7DerivedEEEE5resetEPS3_:

0000000000092e54 <_ZN8valkyrie6kernel9UniquePtrINS1_INS0_7DerivedEEEE5resetEPS3_>:
   92e54:	a9bd7bfd 	stp	x29, x30, [sp, #-48]!
   92e58:	910003fd 	mov	x29, sp
   92e5c:	f9000bf3 	str	x19, [sp, #16]
   92e60:	f90017e0 	str	x0, [sp, #40]
   92e64:	f90013e1 	str	x1, [sp, #32]
   92e68:	f94017e0 	ldr	x0, [sp, #40]
   92e6c:	f9400000 	ldr	x0, [x0]
   92e70:	f94013e1 	ldr	x1, [sp, #32]
   92e74:	eb00003f 	cmp	x1, x0
   92e78:	540001c0 	b.eq	92eb0 <_ZN8valkyrie6kernel9UniquePtrINS1_INS0_7DerivedEEEE5resetEPS3_+0x5c>  // b.none
   92e7c:	f94017e0 	ldr	x0, [sp, #40]
   92e80:	f9400013 	ldr	x19, [x0]
   92e84:	f100027f 	cmp	x19, #0x0
   92e88:	540000c0 	b.eq	92ea0 <_ZN8valkyrie6kernel9UniquePtrINS1_INS0_7DerivedEEEE5resetEPS3_+0x4c>  // b.none
   92e8c:	aa1303e0 	mov	x0, x19
   92e90:	97fffe25 	bl	92724 <_ZN8valkyrie6kernel9UniquePtrINS0_7DerivedEED1Ev>
   92e94:	d2800101 	mov	x1, #0x8                   	// #8
   92e98:	aa1303e0 	mov	x0, x19
   92e9c:	97ffbfe9 	bl	82e40 <_ZdlPvm>
   92ea0:	f94017e0 	ldr	x0, [sp, #40]
   92ea4:	f94013e1 	ldr	x1, [sp, #32]
   92ea8:	f9000001 	str	x1, [x0]
   92eac:	14000002 	b	92eb4 <_ZN8valkyrie6kernel9UniquePtrINS1_INS0_7DerivedEEEE5resetEPS3_+0x60>
   92eb0:	d503201f 	nop
   92eb4:	f9400bf3 	ldr	x19, [sp, #16]
   92eb8:	a8c37bfd 	ldp	x29, x30, [sp], #48
   92ebc:	d65f03c0 	ret

Disassembly of section .text._ZN8valkyrie6kernel4moveIRNS0_9UniquePtrIA_NS2_INS0_7DerivedEEEEEEEONS0_16_RemoveReferenceIT_E4TypeEOS9_:

0000000000092ec0 <_ZN8valkyrie6kernel4moveIRNS0_9UniquePtrIA_NS2_INS0_7DerivedEEEEEEEONS0_16_RemoveReferenceIT_E4TypeEOS9_>:
   92ec0:	d10043ff 	sub	sp, sp, #0x10
   92ec4:	f90007e0 	str	x0, [sp, #8]
   92ec8:	f94007e0 	ldr	x0, [sp, #8]
   92ecc:	910043ff 	add	sp, sp, #0x10
   92ed0:	d65f03c0 	ret

Disassembly of section .text._ZN8valkyrie6kernel9UniquePtrIA_NS1_INS0_7DerivedEEEEaSEOS5_:

0000000000092ed4 <_ZN8valkyrie6kernel9UniquePtrIA_NS1_INS0_7DerivedEEEEaSEOS5_>:
   92ed4:	a9be7bfd 	stp	x29, x30, [sp, #-32]!
   92ed8:	910003fd 	mov	x29, sp
   92edc:	f9000fe0 	str	x0, [sp, #24]
   92ee0:	f9000be1 	str	x1, [sp, #16]
   92ee4:	f9400be0 	ldr	x0, [sp, #16]
   92ee8:	94000007 	bl	92f04 <_ZN8valkyrie6kernel9UniquePtrINS1_INS0_7DerivedEEEE7releaseEv>
   92eec:	aa0003e1 	mov	x1, x0
   92ef0:	f9400fe0 	ldr	x0, [sp, #24]
   92ef4:	97fffedf 	bl	92a70 <_ZN8valkyrie6kernel9UniquePtrIA_NS1_INS0_7DerivedEEEE5resetEPS3_>
   92ef8:	f9400fe0 	ldr	x0, [sp, #24]
   92efc:	a8c27bfd 	ldp	x29, x30, [sp], #32
   92f00:	d65f03c0 	ret

Disassembly of section .text._ZN8valkyrie6kernel9UniquePtrINS1_INS0_7DerivedEEEE7releaseEv:

0000000000092f04 <_ZN8valkyrie6kernel9UniquePtrINS1_INS0_7DerivedEEEE7releaseEv>:
   92f04:	d10083ff 	sub	sp, sp, #0x20
   92f08:	f90007e0 	str	x0, [sp, #8]
   92f0c:	f94007e0 	ldr	x0, [sp, #8]
   92f10:	f9400000 	ldr	x0, [x0]
   92f14:	f9000fe0 	str	x0, [sp, #24]
   92f18:	f94007e0 	ldr	x0, [sp, #8]
   92f1c:	f900001f 	str	xzr, [x0]
   92f20:	f9400fe0 	ldr	x0, [sp, #24]
   92f24:	910083ff 	add	sp, sp, #0x20
   92f28:	d65f03c0 	ret
